---
triple:          'arm64-apple-darwin'
binary-path:     '/Users/runner/work/llama.cpp/llama.cpp/build-visionos/framework/llama.framework/llama'
relocations:
  - { offset: 0x24DB0, size: 0x8, addend: 0x0, symName: __ZNSt3__127__tree_balance_after_insertB8ne190102IPNS_16__tree_node_baseIPvEEEEvT_S5_, symObjAddr: 0x3134, symBinAddr: 0x7134, symSize: 0x1B4 }
  - { offset: 0x2699A, size: 0x8, addend: 0x0, symName: __ZNSt3__120__throw_length_errorB8ne190102EPKc, symObjAddr: 0x32FC, symBinAddr: 0x72FC, symSize: 0x50 }
  - { offset: 0x26CA3, size: 0x8, addend: 0x0, symName: __ZNSt3__120__throw_out_of_rangeB8ne190102EPKc, symObjAddr: 0x4238, symBinAddr: 0x8238, symSize: 0x50 }
  - { offset: 0x27F72, size: 0x8, addend: 0x0, symName: __ZSt28__throw_bad_array_new_lengthB8ne190102v, symObjAddr: 0x310C, symBinAddr: 0x710C, symSize: 0x28 }
  - { offset: 0x2F1E2, size: 0x8, addend: 0x0, symName: __ZNK18llama_adapter_cvec10tensor_forEi, symObjAddr: 0x0, symBinAddr: 0x4000, symSize: 0x40 }
  - { offset: 0x2F24C, size: 0x8, addend: 0x0, symName: __ZNK18llama_adapter_cvec8apply_toEP12ggml_contextP11ggml_tensori, symObjAddr: 0x40, symBinAddr: 0x4040, symSize: 0x50 }
  - { offset: 0x2F2B3, size: 0x8, addend: 0x0, symName: __ZNK18llama_adapter_cvec8apply_toEP12ggml_contextP11ggml_tensori, symObjAddr: 0x40, symBinAddr: 0x4040, symSize: 0x50 }
  - { offset: 0x2F96F, size: 0x8, addend: 0x0, symName: __ZN18llama_adapter_cvec4initERK11llama_model, symObjAddr: 0x90, symBinAddr: 0x4090, symSize: 0x774 }
  - { offset: 0x32A35, size: 0x8, addend: 0x0, symName: __ZNSt3__16__treeINS_12__value_typeIP24ggml_backend_buffer_typeP12ggml_contextEENS_19__map_value_compareIS3_S6_NS_4lessIS3_EELb1EEENS_9allocatorIS6_EEE7destroyEPNS_11__tree_nodeIS6_PvEE, symObjAddr: 0x4EE4, symBinAddr: 0x8EE4, symSize: 0x44 }
  - { offset: 0x32B70, size: 0x8, addend: 0x0, symName: __ZNKSt3__16vectorINS_10unique_ptrI19ggml_backend_buffer27ggml_backend_buffer_deleterEENS_9allocatorIS4_EEE20__throw_length_errorB8ne190102Ev, symObjAddr: 0x4CF0, symBinAddr: 0x8CF0, symSize: 0x14 }
  - { offset: 0x32B9A, size: 0x8, addend: 0x0, symName: __ZNKSt3__16vectorIhNS_9allocatorIhEEE20__throw_length_errorB8ne190102Ev, symObjAddr: 0x4D04, symBinAddr: 0x8D04, symSize: 0x14 }
  - { offset: 0x32BA5, size: 0x8, addend: 0x0, symName: __ZNKSt3__16vectorIP11ggml_tensorNS_9allocatorIS2_EEE20__throw_length_errorB8ne190102Ev, symObjAddr: 0x4F28, symBinAddr: 0x8F28, symSize: 0x14 }
  - { offset: 0x32BCF, size: 0x8, addend: 0x0, symName: __ZNSt3__112__hash_tableINS_17__hash_value_typeINS_12basic_stringIcNS_11char_traitsIcEENS_9allocatorIcEEEE25llama_adapter_lora_weightEENS_22__unordered_map_hasherIS7_S9_NS_4hashIS7_EENS_8equal_toIS7_EELb1EEENS_21__unordered_map_equalIS7_S9_SE_SC_Lb1EEENS5_IS9_EEE4findIS7_EENS_15__hash_iteratorIPNS_11__hash_nodeIS9_PvEEEERKT_, symObjAddr: 0x4F3C, symBinAddr: 0x8F3C, symSize: 0x1B4 }
  - { offset: 0x32BDA, size: 0x8, addend: 0x0, symName: __ZNKSt3__16vectorINS_10unique_ptrI12ggml_context20ggml_context_deleterEENS_9allocatorIS4_EEE20__throw_length_errorB8ne190102Ev, symObjAddr: 0x32E8, symBinAddr: 0x72E8, symSize: 0x14 }
  - { offset: 0x32C04, size: 0x8, addend: 0x0, symName: __ZNSt3__120__throw_length_errorB8ne190102EPKc, symObjAddr: 0x32FC, symBinAddr: 0x72FC, symSize: 0x50 }
  - { offset: 0x32C4D, size: 0x8, addend: 0x0, symName: __ZN18llama_adapter_cvec5applyERK11llama_modelPKfmiii, symObjAddr: 0x804, symBinAddr: 0x4804, symSize: 0x12C }
  - { offset: 0x3319E, size: 0x8, addend: 0x0, symName: __ZN18llama_adapter_lora10get_weightEP11ggml_tensor, symObjAddr: 0x930, symBinAddr: 0x4930, symSize: 0x104 }
  - { offset: 0x336CE, size: 0x8, addend: 0x0, symName: __ZNSt3__112__hash_tableINS_17__hash_value_typeINS_12basic_stringIcNS_11char_traitsIcEENS_9allocatorIcEEEE25llama_adapter_lora_weightEENS_22__unordered_map_hasherIS7_S9_NS_4hashIS7_EENS_8equal_toIS7_EELb1EEENS_21__unordered_map_equalIS7_S9_SE_SC_Lb1EEENS5_IS9_EEE4findIS7_EENS_15__hash_iteratorIPNS_11__hash_nodeIS9_PvEEEERKT_, symObjAddr: 0x4F3C, symBinAddr: 0x8F3C, symSize: 0x1B4 }
  - { offset: 0x339D7, size: 0x8, addend: 0x0, symName: __ZNKSt3__112basic_stringIcNS_11char_traitsIcEENS_9allocatorIcEEE20__throw_length_errorB8ne190102Ev, symObjAddr: 0x42AC, symBinAddr: 0x82AC, symSize: 0x14 }
  - { offset: 0x33A01, size: 0x8, addend: 0x0, symName: __ZNSt3__112basic_stringIcNS_11char_traitsIcEENS_9allocatorIcEEE25__init_copy_ctor_externalEPKcm, symObjAddr: 0x42C0, symBinAddr: 0x82C0, symSize: 0x8C }
  - { offset: 0x33A0C, size: 0x8, addend: 0x0, symName: __ZNSt3__112basic_stringIcNS_11char_traitsIcEENS_9allocatorIcEEEC1B8ne190102ILi0EEEPKc, symObjAddr: 0xA34, symBinAddr: 0x4A34, symSize: 0xA8 }
  - { offset: 0x33C6D, size: 0x8, addend: 0x0, symName: _llama_adapter_lora_init, symObjAddr: 0xADC, symBinAddr: 0x4ADC, symSize: 0x100 }
  - { offset: 0x34017, size: 0x8, addend: 0x0, symName: _llama_adapter_lora_init, symObjAddr: 0xADC, symBinAddr: 0x4ADC, symSize: 0x100 }
  - { offset: 0x34394, size: 0x8, addend: 0x0, symName: __ZL28llama_adapter_lora_init_implR11llama_modelPKcR18llama_adapter_lora, symObjAddr: 0xBDC, symBinAddr: 0x4BDC, symSize: 0x2264 }
  - { offset: 0x3D507, size: 0x8, addend: 0x0, symName: __ZN18llama_adapter_loraD2Ev, symObjAddr: 0x4D78, symBinAddr: 0x8D78, symSize: 0x16C }
  - { offset: 0x3FAA7, size: 0x8, addend: 0x0, symName: __ZNSt3__112__hash_tableINS_17__hash_value_typeINS_12basic_stringIcNS_11char_traitsIcEENS_9allocatorIcEEEES7_EENS_22__unordered_map_hasherIS7_S8_NS_4hashIS7_EENS_8equal_toIS7_EELb1EEENS_21__unordered_map_equalIS7_S8_SD_SB_Lb1EEENS5_IS8_EEE21__emplace_unique_implIJRPKcRKS7_EEENS_4pairINS_15__hash_iteratorIPNS_11__hash_nodeIS8_PvEEEEbEEDpOT_, symObjAddr: 0x3590, symBinAddr: 0x7590, symSize: 0x144 }
  - { offset: 0x40341, size: 0x8, addend: 0x0, symName: __ZNSt3__112basic_stringIcNS_11char_traitsIcEENS_9allocatorIcEEE25__init_copy_ctor_externalEPKcm, symObjAddr: 0x42C0, symBinAddr: 0x82C0, symSize: 0x8C }
  - { offset: 0x404FA, size: 0x8, addend: 0x0, symName: __ZNSt3__16vectorIiNS_9allocatorIiEEE8__appendEm, symObjAddr: 0x434C, symBinAddr: 0x834C, symSize: 0x124 }
  - { offset: 0x4059E, size: 0x8, addend: 0x0, symName: __ZNSt3__16vectorIiNS_9allocatorIiEEE8__appendEm, symObjAddr: 0x434C, symBinAddr: 0x834C, symSize: 0x124 }
  - { offset: 0x4099B, size: 0x8, addend: 0x0, symName: __ZNKSt3__16vectorIiNS_9allocatorIiEEE20__throw_length_errorB8ne190102Ev, symObjAddr: 0x4470, symBinAddr: 0x8470, symSize: 0x14 }
  - { offset: 0x40A09, size: 0x8, addend: 0x0, symName: __ZNSt3__16__treeINS_12__value_typeINS_12basic_stringIcNS_11char_traitsIcEENS_9allocatorIcEEEE25llama_adapter_lora_weightEENS_19__map_value_compareIS7_S9_NS_4lessIS7_EELb1EEENS5_IS9_EEE25__emplace_unique_key_argsIS7_JRKNS_21piecewise_construct_tENS_5tupleIJRKS7_EEENSK_IJEEEEEENS_4pairINS_15__tree_iteratorIS9_PNS_11__tree_nodeIS9_PvEElEEbEERKT_DpOT0_, symObjAddr: 0x4484, symBinAddr: 0x8484, symSize: 0x1B8 }
  - { offset: 0x41175, size: 0x8, addend: 0x0, symName: __ZNSt3__112__hash_tableINS_17__hash_value_typeINS_12basic_stringIcNS_11char_traitsIcEENS_9allocatorIcEEEE25llama_adapter_lora_weightEENS_22__unordered_map_hasherIS7_S9_NS_4hashIS7_EENS_8equal_toIS7_EELb1EEENS_21__unordered_map_equalIS7_S9_SE_SC_Lb1EEENS5_IS9_EEE25__emplace_unique_key_argsIS7_JRKNS_21piecewise_construct_tENS_5tupleIJRKS7_EEENSO_IJEEEEEENS_4pairINS_15__hash_iteratorIPNS_11__hash_nodeIS9_PvEEEEbEERKT_DpOT0_, symObjAddr: 0x46B0, symBinAddr: 0x86B0, symSize: 0x440 }
  - { offset: 0x41D3B, size: 0x8, addend: 0x0, symName: '__ZZL28llama_adapter_lora_init_implR11llama_modelPKcR18llama_adapter_loraENK3$_4clEP11ggml_tensorS7_', symObjAddr: 0x33D8, symBinAddr: 0x73D8, symSize: 0x184 }
  - { offset: 0x42338, size: 0x8, addend: 0x0, symName: __ZNSt3__110unique_ptrI12gguf_context20gguf_context_deleterED1B8ne190102Ev, symObjAddr: 0x355C, symBinAddr: 0x755C, symSize: 0x34 }
  - { offset: 0x4234A, size: 0x8, addend: 0x0, symName: __ZNSt3__16__treeINS_12__value_typeINS_12basic_stringIcNS_11char_traitsIcEENS_9allocatorIcEEEE25llama_adapter_lora_weightEENS_19__map_value_compareIS7_S9_NS_4lessIS7_EELb1EEENS5_IS9_EEE7destroyEPNS_11__tree_nodeIS9_PvEE, symObjAddr: 0x4D18, symBinAddr: 0x8D18, symSize: 0x60 }
  - { offset: 0x425DD, size: 0x8, addend: 0x0, symName: __ZNKSt3__112basic_stringIcNS_11char_traitsIcEENS_9allocatorIcEEE20__throw_out_of_rangeB8ne190102Ev, symObjAddr: 0x4224, symBinAddr: 0x8224, symSize: 0x14 }
  - { offset: 0x42607, size: 0x8, addend: 0x0, symName: __ZNSt3__120__throw_out_of_rangeB8ne190102EPKc, symObjAddr: 0x4238, symBinAddr: 0x8238, symSize: 0x50 }
  - { offset: 0x42612, size: 0x8, addend: 0x0, symName: __ZNKSt3__16vectorIP24ggml_backend_buffer_typeNS_9allocatorIS2_EEE20__throw_length_errorB8ne190102Ev, symObjAddr: 0x469C, symBinAddr: 0x869C, symSize: 0x14 }
  - { offset: 0x4263C, size: 0x8, addend: 0x0, symName: __ZNSt3__112__hash_tableINS_17__hash_value_typeINS_12basic_stringIcNS_11char_traitsIcEENS_9allocatorIcEEEE25llama_adapter_lora_weightEENS_22__unordered_map_hasherIS7_S9_NS_4hashIS7_EENS_8equal_toIS7_EELb1EEENS_21__unordered_map_equalIS7_S9_SE_SC_Lb1EEENS5_IS9_EEE25__emplace_unique_key_argsIS7_JRKNS_21piecewise_construct_tENS_5tupleIJRKS7_EEENSO_IJEEEEEENS_4pairINS_15__hash_iteratorIPNS_11__hash_nodeIS9_PvEEEEbEERKT_DpOT0_, symObjAddr: 0x46B0, symBinAddr: 0x86B0, symSize: 0x440 }
  - { offset: 0x42647, size: 0x8, addend: 0x0, symName: __ZNSt3__110unique_ptrI12gguf_context20gguf_context_deleterED1B8ne190102Ev, symObjAddr: 0x355C, symBinAddr: 0x755C, symSize: 0x34 }
  - { offset: 0x426DB, size: 0x8, addend: 0x0, symName: __ZNSt3__110unique_ptrI19ggml_backend_buffer27ggml_backend_buffer_deleterED1B8ne190102Ev, symObjAddr: 0x33A4, symBinAddr: 0x73A4, symSize: 0x34 }
  - { offset: 0x4276F, size: 0x8, addend: 0x0, symName: __ZNSt3__110unique_ptrI12ggml_context20ggml_context_deleterED1B8ne190102Ev, symObjAddr: 0x3370, symBinAddr: 0x7370, symSize: 0x34 }
  - { offset: 0x4282A, size: 0x8, addend: 0x0, symName: _llama_adapter_meta_val_str, symObjAddr: 0x2E50, symBinAddr: 0x6E50, symSize: 0x140 }
  - { offset: 0x42E38, size: 0x8, addend: 0x0, symName: __ZNKSt3__112__hash_tableINS_17__hash_value_typeINS_12basic_stringIcNS_11char_traitsIcEENS_9allocatorIcEEEES7_EENS_22__unordered_map_hasherIS7_S8_NS_4hashIS7_EENS_8equal_toIS7_EELb1EEENS_21__unordered_map_equalIS7_S8_SD_SB_Lb1EEENS5_IS8_EEE4findIS7_EENS_21__hash_const_iteratorIPNS_11__hash_nodeIS8_PvEEEERKT_, symObjAddr: 0x50F0, symBinAddr: 0x90F0, symSize: 0x1B4 }
  - { offset: 0x43190, size: 0x8, addend: 0x0, symName: _llama_adapter_meta_count, symObjAddr: 0x2F90, symBinAddr: 0x6F90, symSize: 0x8 }
  - { offset: 0x431BE, size: 0x8, addend: 0x0, symName: _llama_adapter_meta_count, symObjAddr: 0x2F90, symBinAddr: 0x6F90, symSize: 0x8 }
  - { offset: 0x431DD, size: 0x8, addend: 0x0, symName: _llama_adapter_meta_count, symObjAddr: 0x2F90, symBinAddr: 0x6F90, symSize: 0x8 }
  - { offset: 0x432AC, size: 0x8, addend: 0x0, symName: _llama_adapter_meta_key_by_index, symObjAddr: 0x2F98, symBinAddr: 0x6F98, symSize: 0x84 }
  - { offset: 0x434E6, size: 0x8, addend: 0x0, symName: _llama_adapter_meta_val_str_by_index, symObjAddr: 0x301C, symBinAddr: 0x701C, symSize: 0x84 }
  - { offset: 0x436D7, size: 0x8, addend: 0x0, symName: _llama_adapter_lora_free, symObjAddr: 0x30A0, symBinAddr: 0x70A0, symSize: 0x1C }
  - { offset: 0x43728, size: 0x8, addend: 0x0, symName: _llama_adapter_get_alora_n_invocation_tokens, symObjAddr: 0x30BC, symBinAddr: 0x70BC, symSize: 0x14 }
  - { offset: 0x4378A, size: 0x8, addend: 0x0, symName: _llama_adapter_get_alora_invocation_tokens, symObjAddr: 0x30D0, symBinAddr: 0x70D0, symSize: 0x3C }
  - { offset: 0x437D8, size: 0x8, addend: 0x0, symName: __ZSt28__throw_bad_array_new_lengthB8ne190102v, symObjAddr: 0x310C, symBinAddr: 0x710C, symSize: 0x28 }
  - { offset: 0x43828, size: 0x8, addend: 0x0, symName: __ZNSt12length_errorC1B8ne190102EPKc, symObjAddr: 0x334C, symBinAddr: 0x734C, symSize: 0x24 }
  - { offset: 0x43DB8, size: 0x8, addend: 0x0, symName: __ZNKSt3__16vectorIhNS_9allocatorIhEEE20__throw_length_errorB8ne190102Ev, symObjAddr: 0x4D04, symBinAddr: 0x8D04, symSize: 0x14 }
  - { offset: 0x43DE2, size: 0x8, addend: 0x0, symName: __ZNSt3__16__treeINS_12__value_typeINS_12basic_stringIcNS_11char_traitsIcEENS_9allocatorIcEEEE25llama_adapter_lora_weightEENS_19__map_value_compareIS7_S9_NS_4lessIS7_EELb1EEENS5_IS9_EEE7destroyEPNS_11__tree_nodeIS9_PvEE, symObjAddr: 0x4D18, symBinAddr: 0x8D18, symSize: 0x60 }
  - { offset: 0x44310, size: 0x8, addend: 0x0, symName: __ZNSt3__14pairIKNS_12basic_stringIcNS_11char_traitsIcEENS_9allocatorIcEEEES6_EC2B8ne190102IRPKcRS7_Li0EEEOT_OT0_, symObjAddr: 0x3888, symBinAddr: 0x7888, symSize: 0x10C }
  - { offset: 0x44739, size: 0x8, addend: 0x0, symName: __ZNKSt3__121__murmur2_or_cityhashImLm64EEclB8ne190102EPKvm, symObjAddr: 0x3994, symBinAddr: 0x7994, symSize: 0x44C }
  - { offset: 0x451BE, size: 0x8, addend: 0x0, symName: __ZNSt3__112__hash_tableINS_17__hash_value_typeINS_12basic_stringIcNS_11char_traitsIcEENS_9allocatorIcEEEES7_EENS_22__unordered_map_hasherIS7_S8_NS_4hashIS7_EENS_8equal_toIS7_EELb1EEENS_21__unordered_map_equalIS7_S8_SD_SB_Lb1EEENS5_IS8_EEE20__node_insert_uniqueEPNS_11__hash_nodeIS8_PvEE, symObjAddr: 0x36D4, symBinAddr: 0x76D4, symSize: 0x148 }
  - { offset: 0x45465, size: 0x8, addend: 0x0, symName: __ZNSt3__110unique_ptrINS_11__hash_nodeINS_17__hash_value_typeINS_12basic_stringIcNS_11char_traitsIcEENS_9allocatorIcEEEES8_EEPvEENS_22__hash_node_destructorINS6_ISB_EEEEED1B8ne190102Ev, symObjAddr: 0x381C, symBinAddr: 0x781C, symSize: 0x6C }
  - { offset: 0x458DF, size: 0x8, addend: 0x0, symName: __ZNSt3__112__hash_tableINS_17__hash_value_typeINS_12basic_stringIcNS_11char_traitsIcEENS_9allocatorIcEEEES7_EENS_22__unordered_map_hasherIS7_S8_NS_4hashIS7_EENS_8equal_toIS7_EELb1EEENS_21__unordered_map_equalIS7_S8_SD_SB_Lb1EEENS5_IS8_EEE28__node_insert_unique_prepareB8ne190102EmRS8_, symObjAddr: 0x3DE0, symBinAddr: 0x7DE0, symSize: 0x2A4 }
  - { offset: 0x45F4B, size: 0x8, addend: 0x0, symName: __ZNSt3__112__hash_tableINS_17__hash_value_typeINS_12basic_stringIcNS_11char_traitsIcEENS_9allocatorIcEEEES7_EENS_22__unordered_map_hasherIS7_S8_NS_4hashIS7_EENS_8equal_toIS7_EELb1EEENS_21__unordered_map_equalIS7_S8_SD_SB_Lb1EEENS5_IS8_EEE11__do_rehashILb1EEEvm, symObjAddr: 0x4084, symBinAddr: 0x8084, symSize: 0x1A0 }
  - { offset: 0x463A9, size: 0x8, addend: 0x0, symName: __ZNKSt3__112basic_stringIcNS_11char_traitsIcEENS_9allocatorIcEEE20__throw_out_of_rangeB8ne190102Ev, symObjAddr: 0x4224, symBinAddr: 0x8224, symSize: 0x14 }
  - { offset: 0x464C5, size: 0x8, addend: 0x0, symName: __ZNSt12out_of_rangeC1B8ne190102EPKc, symObjAddr: 0x4288, symBinAddr: 0x8288, symSize: 0x24 }
  - { offset: 0x4684E, size: 0x8, addend: 0x0, symName: __ZNKSt3__16vectorIiNS_9allocatorIiEEE20__throw_length_errorB8ne190102Ev, symObjAddr: 0x4470, symBinAddr: 0x8470, symSize: 0x14 }
  - { offset: 0x46878, size: 0x8, addend: 0x0, symName: __ZNSt3__16__treeINS_12__value_typeINS_12basic_stringIcNS_11char_traitsIcEENS_9allocatorIcEEEE25llama_adapter_lora_weightEENS_19__map_value_compareIS7_S9_NS_4lessIS7_EELb1EEENS5_IS9_EEE25__emplace_unique_key_argsIS7_JRKNS_21piecewise_construct_tENS_5tupleIJRKS7_EEENSK_IJEEEEEENS_4pairINS_15__tree_iteratorIS9_PNS_11__tree_nodeIS9_PvEElEEbEERKT_DpOT0_, symObjAddr: 0x4484, symBinAddr: 0x8484, symSize: 0x1B8 }
  - { offset: 0x46D6B, size: 0x8, addend: 0x0, symName: __ZNSt3__110unique_ptrINS_11__tree_nodeINS_12__value_typeINS_12basic_stringIcNS_11char_traitsIcEENS_9allocatorIcEEEE25llama_adapter_lora_weightEEPvEENS_22__tree_node_destructorINS6_ISC_EEEEED1B8ne190102Ev, symObjAddr: 0x463C, symBinAddr: 0x863C, symSize: 0x60 }
  - { offset: 0x476AC, size: 0x8, addend: 0x0, symName: __ZNSt3__112__hash_tableINS_17__hash_value_typeINS_12basic_stringIcNS_11char_traitsIcEENS_9allocatorIcEEEE25llama_adapter_lora_weightEENS_22__unordered_map_hasherIS7_S9_NS_4hashIS7_EENS_8equal_toIS7_EELb1EEENS_21__unordered_map_equalIS7_S9_SE_SC_Lb1EEENS5_IS9_EEE11__do_rehashILb1EEEvm, symObjAddr: 0x4B50, symBinAddr: 0x8B50, symSize: 0x1A0 }
  - { offset: 0x47B0A, size: 0x8, addend: 0x0, symName: __ZNKSt3__16vectorINS_10unique_ptrI19ggml_backend_buffer27ggml_backend_buffer_deleterEENS_9allocatorIS4_EEE20__throw_length_errorB8ne190102Ev, symObjAddr: 0x4CF0, symBinAddr: 0x8CF0, symSize: 0x14 }
  - { offset: 0x47B1F, size: 0x8, addend: 0x0, symName: __ZNSt3__110unique_ptrINS_11__hash_nodeINS_17__hash_value_typeINS_12basic_stringIcNS_11char_traitsIcEENS_9allocatorIcEEEE25llama_adapter_lora_weightEEPvEENS_22__hash_node_destructorINS6_ISC_EEEEED1B8ne190102Ev, symObjAddr: 0x4AF0, symBinAddr: 0x8AF0, symSize: 0x60 }
  - { offset: 0x4A8DD, size: 0x8, addend: 0x0, symName: __MergedGlobals, symObjAddr: 0xC9AC0, symBinAddr: 0x302EC8, symSize: 0x0 }
  - { offset: 0x5C35B, size: 0x8, addend: 0x0, symName: __MergedGlobals, symObjAddr: 0xC9AC0, symBinAddr: 0x302EC8, symSize: 0x0 }
  - { offset: 0x5C7C5, size: 0x8, addend: 0x0, symName: __ZL16LLM_TENSOR_NAMES, symObjAddr: 0xC9AA8, symBinAddr: 0x302EB0, symSize: 0x0 }
  - { offset: 0x5D4E9, size: 0x8, addend: 0x0, symName: __MergedGlobals, symObjAddr: 0xC9AC0, symBinAddr: 0x302EC8, symSize: 0x0 }
  - { offset: 0x5DADA, size: 0x8, addend: 0x0, symName: __ZNSt3__13mapI8llm_archPKcNS_4lessIS1_EENS_9allocatorINS_4pairIKS1_S3_EEEEED1B8ne190102Ev, symObjAddr: 0x0, symBinAddr: 0x92A4, symSize: 0x28 }
  - { offset: 0x5DB8E, size: 0x8, addend: 0x0, symName: __ZNSt3__16__treeINS_12__value_typeI8llm_archPKcEENS_19__map_value_compareIS2_S5_NS_4lessIS2_EELb1EEENS_9allocatorIS5_EEE7destroyEPNS_11__tree_nodeIS5_PvEE, symObjAddr: 0xD6C, symBinAddr: 0x9E4C, symSize: 0x44 }
  - { offset: 0x5DD3B, size: 0x8, addend: 0x0, symName: __ZNSt3__13mapI6llm_kvPKcNS_4lessIS1_EENS_9allocatorINS_4pairIKS1_S3_EEEEED1B8ne190102Ev, symObjAddr: 0x28, symBinAddr: 0x92CC, symSize: 0x28 }
  - { offset: 0x5DDEF, size: 0x8, addend: 0x0, symName: __ZNSt3__16__treeINS_12__value_typeI6llm_kvPKcEENS_19__map_value_compareIS2_S5_NS_4lessIS2_EELb1EEENS_9allocatorIS5_EEE7destroyEPNS_11__tree_nodeIS5_PvEE, symObjAddr: 0x1054, symBinAddr: 0xA134, symSize: 0x44 }
  - { offset: 0x5E6B5, size: 0x8, addend: 0x0, symName: ___cxx_global_var_init.259, symObjAddr: 0x1860, symBinAddr: 0xA8B8, symSize: 0x58C4 }
  - { offset: 0x78500, size: 0x8, addend: 0x0, symName: __ZNSt3__13mapI10llm_tensorPKcNS_4lessIS1_EENS_9allocatorINS_4pairIKS1_S3_EEEEE6insertB8ne190102INS_20__map_const_iteratorINS_21__tree_const_iteratorINS_12__value_typeIS1_S3_EEPNS_11__tree_nodeISG_PvEElEEEEEEvT_SN_, symObjAddr: 0x610, symBinAddr: 0x98B4, symSize: 0x100 }
  - { offset: 0x78546, size: 0x8, addend: 0x0, symName: __ZNSt3__13mapI10llm_tensorPKcNS_4lessIS1_EENS_9allocatorINS_4pairIKS1_S3_EEEEE6insertB8ne190102INS_20__map_const_iteratorINS_21__tree_const_iteratorINS_12__value_typeIS1_S3_EEPNS_11__tree_nodeISG_PvEElEEEEEEvT_SN_, symObjAddr: 0x610, symBinAddr: 0x98B4, symSize: 0x100 }
  - { offset: 0x78850, size: 0x8, addend: 0x0, symName: __ZNSt3__13mapI10llm_tensorPKcNS_4lessIS1_EENS_9allocatorINS_4pairIKS1_S3_EEEEEC2B8ne190102ESt16initializer_listIS9_ERKS5_, symObjAddr: 0x1098, symBinAddr: 0xA178, symSize: 0xF4 }
  - { offset: 0x78C27, size: 0x8, addend: 0x0, symName: __ZNSt3__16__treeINS_12__value_typeI8llm_archNS_3mapI10llm_tensorPKcNS_4lessIS4_EENS_9allocatorINS_4pairIKS4_S6_EEEEEEEENS_19__map_value_compareIS2_SF_NS7_IS2_EELb1EEENS9_ISF_EEE30__emplace_hint_unique_key_argsIS2_JRKNSA_IKS2_SE_EEEEENSA_INS_15__tree_iteratorISF_PNS_11__tree_nodeISF_PvEElEEbEENS_21__tree_const_iteratorISF_SU_lEERKT_DpOT0_, symObjAddr: 0x118C, symBinAddr: 0xA26C, symSize: 0x10C }
  - { offset: 0x7919B, size: 0x8, addend: 0x0, symName: __ZNSt3__16__treeINS_12__value_typeI10llm_tensorPKcEENS_19__map_value_compareIS2_S5_NS_4lessIS2_EELb1EEENS_9allocatorIS5_EEE7destroyEPNS_11__tree_nodeIS5_PvEE, symObjAddr: 0xA84, symBinAddr: 0x9B64, symSize: 0x44 }
  - { offset: 0x792D6, size: 0x8, addend: 0x0, symName: __ZNSt3__16__treeINS_12__value_typeI8llm_archNS_3mapI10llm_tensorPKcNS_4lessIS4_EENS_9allocatorINS_4pairIKS4_S6_EEEEEEEENS_19__map_value_compareIS2_SF_NS7_IS2_EELb1EEENS9_ISF_EEE7destroyEPNS_11__tree_nodeISF_PvEE, symObjAddr: 0x1494, symBinAddr: 0xA574, symSize: 0x50 }
  - { offset: 0x79503, size: 0x8, addend: 0x0, symName: __ZNSt3__13mapI8llm_archNS0_I10llm_tensorPKcNS_4lessIS2_EENS_9allocatorINS_4pairIKS2_S4_EEEEEENS5_IS1_EENS7_INS8_IKS1_SC_EEEEED1B8ne190102Ev, symObjAddr: 0x50, symBinAddr: 0x92F4, symSize: 0x28 }
  - { offset: 0x79629, size: 0x8, addend: 0x0, symName: __ZNSt3__13mapI10llm_tensor15llm_tensor_infoNS_4lessIS1_EENS_9allocatorINS_4pairIKS1_S2_EEEEED1B8ne190102Ev, symObjAddr: 0x78, symBinAddr: 0x931C, symSize: 0x28 }
  - { offset: 0x796DD, size: 0x8, addend: 0x0, symName: __ZNSt3__16__treeINS_12__value_typeI10llm_tensor15llm_tensor_infoEENS_19__map_value_compareIS2_S4_NS_4lessIS2_EELb1EEENS_9allocatorIS4_EEE7destroyEPNS_11__tree_nodeIS4_PvEE, symObjAddr: 0x1794, symBinAddr: 0xA874, symSize: 0x44 }
  - { offset: 0x7981D, size: 0x8, addend: 0x0, symName: __ZN6LLM_KVC2E8llm_archPKc, symObjAddr: 0xA0, symBinAddr: 0x9344, symSize: 0xC }
  - { offset: 0x79885, size: 0x8, addend: 0x0, symName: __ZN6LLM_KVC1E8llm_archPKc, symObjAddr: 0xAC, symBinAddr: 0x9350, symSize: 0xC }
  - { offset: 0x798CF, size: 0x8, addend: 0x0, symName: __ZN6LLM_KVC1E8llm_archPKc, symObjAddr: 0xAC, symBinAddr: 0x9350, symSize: 0xC }
  - { offset: 0x79C40, size: 0x8, addend: 0x0, symName: __ZNK6LLM_KVclE6llm_kv, symObjAddr: 0xB8, symBinAddr: 0x935C, symSize: 0xFC }
  - { offset: 0x7A407, size: 0x8, addend: 0x0, symName: __ZNK11LLM_TN_IMPL3strEv, symObjAddr: 0x1B4, symBinAddr: 0x9458, symSize: 0x1E4 }
  - { offset: 0x7ACA3, size: 0x8, addend: 0x0, symName: __Z13llm_arch_name8llm_arch, symObjAddr: 0x398, symBinAddr: 0x963C, symSize: 0x58 }
  - { offset: 0x7ACE5, size: 0x8, addend: 0x0, symName: __Z13llm_arch_name8llm_arch, symObjAddr: 0x398, symBinAddr: 0x963C, symSize: 0x58 }
  - { offset: 0x7ACFA, size: 0x8, addend: 0x0, symName: __Z13llm_arch_name8llm_arch, symObjAddr: 0x398, symBinAddr: 0x963C, symSize: 0x58 }
  - { offset: 0x7AD18, size: 0x8, addend: 0x0, symName: __Z13llm_arch_name8llm_arch, symObjAddr: 0x398, symBinAddr: 0x963C, symSize: 0x58 }
  - { offset: 0x7AED9, size: 0x8, addend: 0x0, symName: __Z20llm_arch_from_stringRKNSt3__112basic_stringIcNS_11char_traitsIcEENS_9allocatorIcEEEE, symObjAddr: 0x3F0, symBinAddr: 0x9694, symSize: 0x160 }
  - { offset: 0x7B168, size: 0x8, addend: 0x0, symName: ___cxx_global_var_init.259, symObjAddr: 0x1860, symBinAddr: 0xA8B8, symSize: 0x58C4 }
  - { offset: 0x7B26D, size: 0x8, addend: 0x0, symName: __Z19llm_tensor_info_for10llm_tensor, symObjAddr: 0x550, symBinAddr: 0x97F4, symSize: 0x50 }
  - { offset: 0x7B359, size: 0x8, addend: 0x0, symName: __Z21llm_arch_is_recurrentRK8llm_arch, symObjAddr: 0x5A0, symBinAddr: 0x9844, symSize: 0x24 }
  - { offset: 0x7B389, size: 0x8, addend: 0x0, symName: __Z18llm_arch_is_hybridRK8llm_arch, symObjAddr: 0x5C4, symBinAddr: 0x9868, symSize: 0x28 }
  - { offset: 0x7B3B9, size: 0x8, addend: 0x0, symName: __Z21llm_arch_is_diffusionRK8llm_arch, symObjAddr: 0x5EC, symBinAddr: 0x9890, symSize: 0x24 }
  - { offset: 0x7B6AC, size: 0x8, addend: 0x0, symName: __ZNSt3__16__treeINS_12__value_typeI10llm_tensorPKcEENS_19__map_value_compareIS2_S5_NS_4lessIS2_EELb1EEENS_9allocatorIS5_EEE12__find_equalIS2_EERPNS_16__tree_node_baseIPvEENS_21__tree_const_iteratorIS5_PNS_11__tree_nodeIS5_SF_EElEERPNS_15__tree_end_nodeISH_EESI_RKT_, symObjAddr: 0x710, symBinAddr: 0x99B4, symSize: 0x1B0 }
  - { offset: 0x7B70F, size: 0x8, addend: 0x0, symName: __ZNSt3__16__treeINS_12__value_typeI10llm_tensorPKcEENS_19__map_value_compareIS2_S5_NS_4lessIS2_EELb1EEENS_9allocatorIS5_EEE12__find_equalIS2_EERPNS_16__tree_node_baseIPvEENS_21__tree_const_iteratorIS5_PNS_11__tree_nodeIS5_SF_EElEERPNS_15__tree_end_nodeISH_EESI_RKT_, symObjAddr: 0x710, symBinAddr: 0x99B4, symSize: 0x1B0 }
  - { offset: 0x7B72B, size: 0x8, addend: 0x0, symName: __ZNSt3__16__treeINS_12__value_typeI10llm_tensorPKcEENS_19__map_value_compareIS2_S5_NS_4lessIS2_EELb1EEENS_9allocatorIS5_EEE12__find_equalIS2_EERPNS_16__tree_node_baseIPvEENS_21__tree_const_iteratorIS5_PNS_11__tree_nodeIS5_SF_EElEERPNS_15__tree_end_nodeISH_EESI_RKT_, symObjAddr: 0x710, symBinAddr: 0x99B4, symSize: 0x1B0 }
  - { offset: 0x7BEAF, size: 0x8, addend: 0x0, symName: __ZNSt3__13mapI8llm_archPKcNS_4lessIS1_EENS_9allocatorINS_4pairIKS1_S3_EEEEEC2B8ne190102ESt16initializer_listIS9_ERKS5_, symObjAddr: 0xAC8, symBinAddr: 0x9BA8, symSize: 0xF4 }
  - { offset: 0x7C286, size: 0x8, addend: 0x0, symName: __ZNSt3__16__treeINS_12__value_typeI8llm_archPKcEENS_19__map_value_compareIS2_S5_NS_4lessIS2_EELb1EEENS_9allocatorIS5_EEE12__find_equalIS2_EERPNS_16__tree_node_baseIPvEENS_21__tree_const_iteratorIS5_PNS_11__tree_nodeIS5_SF_EElEERPNS_15__tree_end_nodeISH_EESI_RKT_, symObjAddr: 0xBBC, symBinAddr: 0x9C9C, symSize: 0x1B0 }
  - { offset: 0x7C2E9, size: 0x8, addend: 0x0, symName: __ZNSt3__16__treeINS_12__value_typeI8llm_archPKcEENS_19__map_value_compareIS2_S5_NS_4lessIS2_EELb1EEENS_9allocatorIS5_EEE12__find_equalIS2_EERPNS_16__tree_node_baseIPvEENS_21__tree_const_iteratorIS5_PNS_11__tree_nodeIS5_SF_EElEERPNS_15__tree_end_nodeISH_EESI_RKT_, symObjAddr: 0xBBC, symBinAddr: 0x9C9C, symSize: 0x1B0 }
  - { offset: 0x7C305, size: 0x8, addend: 0x0, symName: __ZNSt3__16__treeINS_12__value_typeI8llm_archPKcEENS_19__map_value_compareIS2_S5_NS_4lessIS2_EELb1EEENS_9allocatorIS5_EEE12__find_equalIS2_EERPNS_16__tree_node_baseIPvEENS_21__tree_const_iteratorIS5_PNS_11__tree_nodeIS5_SF_EElEERPNS_15__tree_end_nodeISH_EESI_RKT_, symObjAddr: 0xBBC, symBinAddr: 0x9C9C, symSize: 0x1B0 }
  - { offset: 0x7CA4C, size: 0x8, addend: 0x0, symName: __ZNSt3__13mapI6llm_kvPKcNS_4lessIS1_EENS_9allocatorINS_4pairIKS1_S3_EEEEEC2B8ne190102ESt16initializer_listIS9_ERKS5_, symObjAddr: 0xDB0, symBinAddr: 0x9E90, symSize: 0xF4 }
  - { offset: 0x7CE23, size: 0x8, addend: 0x0, symName: __ZNSt3__16__treeINS_12__value_typeI6llm_kvPKcEENS_19__map_value_compareIS2_S5_NS_4lessIS2_EELb1EEENS_9allocatorIS5_EEE12__find_equalIS2_EERPNS_16__tree_node_baseIPvEENS_21__tree_const_iteratorIS5_PNS_11__tree_nodeIS5_SF_EElEERPNS_15__tree_end_nodeISH_EESI_RKT_, symObjAddr: 0xEA4, symBinAddr: 0x9F84, symSize: 0x1B0 }
  - { offset: 0x7CE86, size: 0x8, addend: 0x0, symName: __ZNSt3__16__treeINS_12__value_typeI6llm_kvPKcEENS_19__map_value_compareIS2_S5_NS_4lessIS2_EELb1EEENS_9allocatorIS5_EEE12__find_equalIS2_EERPNS_16__tree_node_baseIPvEENS_21__tree_const_iteratorIS5_PNS_11__tree_nodeIS5_SF_EElEERPNS_15__tree_end_nodeISH_EESI_RKT_, symObjAddr: 0xEA4, symBinAddr: 0x9F84, symSize: 0x1B0 }
  - { offset: 0x7CEA2, size: 0x8, addend: 0x0, symName: __ZNSt3__16__treeINS_12__value_typeI6llm_kvPKcEENS_19__map_value_compareIS2_S5_NS_4lessIS2_EELb1EEENS_9allocatorIS5_EEE12__find_equalIS2_EERPNS_16__tree_node_baseIPvEENS_21__tree_const_iteratorIS5_PNS_11__tree_nodeIS5_SF_EElEERPNS_15__tree_end_nodeISH_EESI_RKT_, symObjAddr: 0xEA4, symBinAddr: 0x9F84, symSize: 0x1B0 }
  - { offset: 0x7D62F, size: 0x8, addend: 0x0, symName: __ZNSt3__16__treeINS_12__value_typeI8llm_archNS_3mapI10llm_tensorPKcNS_4lessIS4_EENS_9allocatorINS_4pairIKS4_S6_EEEEEEEENS_19__map_value_compareIS2_SF_NS7_IS2_EELb1EEENS9_ISF_EEE12__find_equalIS2_EERPNS_16__tree_node_baseIPvEENS_21__tree_const_iteratorISF_PNS_11__tree_nodeISF_SN_EElEERPNS_15__tree_end_nodeISP_EESQ_RKT_, symObjAddr: 0x1298, symBinAddr: 0xA378, symSize: 0x1B0 }
  - { offset: 0x7D692, size: 0x8, addend: 0x0, symName: __ZNSt3__16__treeINS_12__value_typeI8llm_archNS_3mapI10llm_tensorPKcNS_4lessIS4_EENS_9allocatorINS_4pairIKS4_S6_EEEEEEEENS_19__map_value_compareIS2_SF_NS7_IS2_EELb1EEENS9_ISF_EEE12__find_equalIS2_EERPNS_16__tree_node_baseIPvEENS_21__tree_const_iteratorISF_PNS_11__tree_nodeISF_SN_EElEERPNS_15__tree_end_nodeISP_EESQ_RKT_, symObjAddr: 0x1298, symBinAddr: 0xA378, symSize: 0x1B0 }
  - { offset: 0x7D6AE, size: 0x8, addend: 0x0, symName: __ZNSt3__16__treeINS_12__value_typeI8llm_archNS_3mapI10llm_tensorPKcNS_4lessIS4_EENS_9allocatorINS_4pairIKS4_S6_EEEEEEEENS_19__map_value_compareIS2_SF_NS7_IS2_EELb1EEENS9_ISF_EEE12__find_equalIS2_EERPNS_16__tree_node_baseIPvEENS_21__tree_const_iteratorISF_PNS_11__tree_nodeISF_SN_EElEERPNS_15__tree_end_nodeISP_EESQ_RKT_, symObjAddr: 0x1298, symBinAddr: 0xA378, symSize: 0x1B0 }
  - { offset: 0x7D9EB, size: 0x8, addend: 0x0, symName: __ZNSt3__110unique_ptrINS_11__tree_nodeINS_12__value_typeI8llm_archNS_3mapI10llm_tensorPKcNS_4lessIS5_EENS_9allocatorINS_4pairIKS5_S7_EEEEEEEEPvEENS_22__tree_node_destructorINSA_ISI_EEEEED1B8ne190102Ev, symObjAddr: 0x1448, symBinAddr: 0xA528, symSize: 0x4C }
  - { offset: 0x7E10C, size: 0x8, addend: 0x0, symName: __ZNSt3__13mapI10llm_tensor15llm_tensor_infoNS_4lessIS1_EENS_9allocatorINS_4pairIKS1_S2_EEEEEC2B8ne190102ESt16initializer_listIS8_ERKS4_, symObjAddr: 0x14E4, symBinAddr: 0xA5C4, symSize: 0x100 }
  - { offset: 0x7E4E3, size: 0x8, addend: 0x0, symName: __ZNSt3__16__treeINS_12__value_typeI10llm_tensor15llm_tensor_infoEENS_19__map_value_compareIS2_S4_NS_4lessIS2_EELb1EEENS_9allocatorIS4_EEE12__find_equalIS2_EERPNS_16__tree_node_baseIPvEENS_21__tree_const_iteratorIS4_PNS_11__tree_nodeIS4_SE_EElEERPNS_15__tree_end_nodeISG_EESH_RKT_, symObjAddr: 0x15E4, symBinAddr: 0xA6C4, symSize: 0x1B0 }
  - { offset: 0x7E546, size: 0x8, addend: 0x0, symName: __ZNSt3__16__treeINS_12__value_typeI10llm_tensor15llm_tensor_infoEENS_19__map_value_compareIS2_S4_NS_4lessIS2_EELb1EEENS_9allocatorIS4_EEE12__find_equalIS2_EERPNS_16__tree_node_baseIPvEENS_21__tree_const_iteratorIS4_PNS_11__tree_nodeIS4_SE_EElEERPNS_15__tree_end_nodeISG_EESH_RKT_, symObjAddr: 0x15E4, symBinAddr: 0xA6C4, symSize: 0x1B0 }
  - { offset: 0x7E562, size: 0x8, addend: 0x0, symName: __ZNSt3__16__treeINS_12__value_typeI10llm_tensor15llm_tensor_infoEENS_19__map_value_compareIS2_S4_NS_4lessIS2_EELb1EEENS_9allocatorIS4_EEE12__find_equalIS2_EERPNS_16__tree_node_baseIPvEENS_21__tree_const_iteratorIS4_PNS_11__tree_nodeIS4_SE_EElEERPNS_15__tree_end_nodeISG_EESH_RKT_, symObjAddr: 0x15E4, symBinAddr: 0xA6C4, symSize: 0x1B0 }
  - { offset: 0x7EAA7, size: 0x8, addend: 0x0, symName: __GLOBAL__sub_I_llama_arch.cpp, symObjAddr: 0x7124, symBinAddr: 0x1017C, symSize: 0x11C }
  - { offset: 0x9122D, size: 0x8, addend: 0x0, symName: __ZNSt3__124__put_character_sequenceB8ne190102IcNS_11char_traitsIcEEEERNS_13basic_ostreamIT_T0_EES7_PKS4_m, symObjAddr: 0x5A64, symBinAddr: 0x15AA4, symSize: 0x170 }
  - { offset: 0x98808, size: 0x8, addend: 0x0, symName: __ZNSt3__116__pad_and_outputB8ne190102IcNS_11char_traitsIcEEEENS_19ostreambuf_iteratorIT_T0_EES6_PKS4_S8_S8_RNS_8ios_baseES4_, symObjAddr: 0x5BD4, symBinAddr: 0x15C14, symSize: 0x1A8 }
  - { offset: 0x9CFAE, size: 0x8, addend: 0x0, symName: __ZN18llama_batch_allocrC2Ej, symObjAddr: 0x0, symBinAddr: 0x10298, symSize: 0x2D0 }
  - { offset: 0x9DF35, size: 0x8, addend: 0x0, symName: __ZNSt3__16vectorINS_3setIiNS_4lessIiEENS_9allocatorIiEEEENS4_IS6_EEE8__appendEm, symObjAddr: 0x4A40, symBinAddr: 0x14CC8, symSize: 0x224 }
  - { offset: 0x9E6B1, size: 0x8, addend: 0x0, symName: __ZNKSt3__16vectorINS_3setIiNS_4lessIiEENS_9allocatorIiEEEENS4_IS6_EEE20__throw_length_errorB8ne190102Ev, symObjAddr: 0x4C64, symBinAddr: 0x14EEC, symSize: 0x14 }
  - { offset: 0x9E6BC, size: 0x8, addend: 0x0, symName: __ZNSt3__16vectorINS0_IbNS_9allocatorIbEEEENS1_IS3_EEE8__appendEm, symObjAddr: 0x4D14, symBinAddr: 0x14F00, symSize: 0x1D0 }
  - { offset: 0x9ED61, size: 0x8, addend: 0x0, symName: __ZNKSt3__16vectorINS0_IbNS_9allocatorIbEEEENS1_IS3_EEE20__throw_length_errorB8ne190102Ev, symObjAddr: 0x4EE4, symBinAddr: 0x150D0, symSize: 0x14 }
  - { offset: 0x9ED6C, size: 0x8, addend: 0x0, symName: __ZNSt3__16vectorIbNS_9allocatorIbEEE6resizeEmb, symObjAddr: 0x2D0, symBinAddr: 0x10568, symSize: 0x268 }
  - { offset: 0x9F59B, size: 0x8, addend: 0x0, symName: __ZNSt3__16vectorIiNS_9allocatorIiEEE8__appendEmRKi, symObjAddr: 0x500C, symBinAddr: 0x151F8, symSize: 0x1B8 }
  - { offset: 0x9FA16, size: 0x8, addend: 0x0, symName: __ZNSt3__113unordered_mapINS_6bitsetILm256EEENS_6vectorIiNS_9allocatorIiEEEENS_4hashIS2_EENS_8equal_toIS2_EENS4_INS_4pairIKS2_S6_EEEEED1B8ne190102Ev, symObjAddr: 0x538, symBinAddr: 0x107D0, symSize: 0x68 }
  - { offset: 0x9FE9C, size: 0x8, addend: 0x0, symName: __ZNSt3__16vectorINS0_IbNS_9allocatorIbEEEENS1_IS3_EEED1B8ne190102Ev, symObjAddr: 0x5A0, symBinAddr: 0x10838, symSize: 0x68 }
  - { offset: 0xA0127, size: 0x8, addend: 0x0, symName: __ZNSt3__16vectorINS_3setIiNS_4lessIiEENS_9allocatorIiEEEENS4_IS6_EEED1B8ne190102Ev, symObjAddr: 0x608, symBinAddr: 0x108A0, symSize: 0x68 }
  - { offset: 0xA0543, size: 0x8, addend: 0x0, symName: __ZNSt3__16vectorIbNS_9allocatorIbEEE7reserveEm, symObjAddr: 0x4EF8, symBinAddr: 0x150E4, symSize: 0x100 }
  - { offset: 0xA0975, size: 0x8, addend: 0x0, symName: __ZNKSt3__16vectorIbNS_9allocatorIbEEE20__throw_length_errorB8ne190102Ev, symObjAddr: 0x4FF8, symBinAddr: 0x151E4, symSize: 0x14 }
  - { offset: 0xA0987, size: 0x8, addend: 0x0, symName: __ZNKSt3__16vectorIbNS_9allocatorIbEEE20__throw_length_errorB8ne190102Ev, symObjAddr: 0x4FF8, symBinAddr: 0x151E4, symSize: 0x14 }
  - { offset: 0xA09B1, size: 0x8, addend: 0x0, symName: __ZNSt3__16vectorIiNS_9allocatorIiEEE8__appendEmRKi, symObjAddr: 0x500C, symBinAddr: 0x151F8, symSize: 0x1B8 }
  - { offset: 0xA0E57, size: 0x8, addend: 0x0, symName: __ZNSt3__16__treeIiNS_4lessIiEENS_9allocatorIiEEE7destroyEPNS_11__tree_nodeIiPvEE, symObjAddr: 0x49FC, symBinAddr: 0x14C84, symSize: 0x44 }
  - { offset: 0xA0F90, size: 0x8, addend: 0x0, symName: __ZN18llama_batch_allocrC1Ej, symObjAddr: 0x670, symBinAddr: 0x10908, symSize: 0x4 }
  - { offset: 0xA0FCC, size: 0x8, addend: 0x0, symName: __ZN18llama_batch_allocrC1Ej, symObjAddr: 0x670, symBinAddr: 0x10908, symSize: 0x4 }
  - { offset: 0xA26E9, size: 0x8, addend: 0x0, symName: __ZN18llama_batch_allocr4initERK11llama_batchRK11llama_vocabPK14llama_memory_ijjb, symObjAddr: 0x674, symBinAddr: 0x1090C, symSize: 0x1888 }
  - { offset: 0xA5FF4, size: 0x8, addend: 0x0, symName: __ZN18llama_batch_allocr5clearEv, symObjAddr: 0x1EFC, symBinAddr: 0x12194, symSize: 0x1A0 }
  - { offset: 0xA6CF1, size: 0x8, addend: 0x0, symName: __ZNSt3__16vectorIPiNS_9allocatorIS1_EEE8__appendEm, symObjAddr: 0x52FC, symBinAddr: 0x153B0, symSize: 0x124 }
  - { offset: 0xA6CFC, size: 0x8, addend: 0x0, symName: __ZNSt3__16vectorIPiNS_9allocatorIS1_EEE8__appendEm, symObjAddr: 0x52FC, symBinAddr: 0x153B0, symSize: 0x124 }
  - { offset: 0xA70F9, size: 0x8, addend: 0x0, symName: __ZNKSt3__16vectorIPiNS_9allocatorIS1_EEE20__throw_length_errorB8ne190102Ev, symObjAddr: 0x5420, symBinAddr: 0x154D4, symSize: 0x14 }
  - { offset: 0xA7114, size: 0x8, addend: 0x0, symName: __ZNSt3__112__hash_tableINS_17__hash_value_typeINS_6bitsetILm256EEENS_6vectorIiNS_9allocatorIiEEEEEENS_22__unordered_map_hasherIS3_S8_NS_4hashIS3_EENS_8equal_toIS3_EELb1EEENS_21__unordered_map_equalIS3_S8_SD_SB_Lb1EEENS5_IS8_EEE25__emplace_unique_key_argsIS3_JRKNS_21piecewise_construct_tENS_5tupleIJRKS3_EEENSN_IJEEEEEENS_4pairINS_15__hash_iteratorIPNS_11__hash_nodeIS8_PvEEEEbEERKT_DpOT0_, symObjAddr: 0x54D0, symBinAddr: 0x15510, symSize: 0x394 }
  - { offset: 0xA7950, size: 0x8, addend: 0x0, symName: __ZN18llama_batch_allocr12ubatch_printERK12llama_ubatchi, symObjAddr: 0x209C, symBinAddr: 0x12334, symSize: 0xBCC }
  - { offset: 0xA8D6B, size: 0x8, addend: 0x0, symName: __ZNSt3__118basic_stringstreamIcNS_11char_traitsIcEENS_9allocatorIcEEEC1B8ne190102Ev, symObjAddr: 0x2C68, symBinAddr: 0x12F00, symSize: 0x130 }
  - { offset: 0xA8EC2, size: 0x8, addend: 0x0, symName: __ZNKSt3__16vectorINS_6bitsetILm256EEENS_9allocatorIS2_EEE20__throw_length_errorB8ne190102Ev, symObjAddr: 0x54BC, symBinAddr: 0x154FC, symSize: 0x14 }
  - { offset: 0xA8EEC, size: 0x8, addend: 0x0, symName: __ZNSt3__112__hash_tableINS_17__hash_value_typeINS_6bitsetILm256EEENS_6vectorIiNS_9allocatorIiEEEEEENS_22__unordered_map_hasherIS3_S8_NS_4hashIS3_EENS_8equal_toIS3_EELb1EEENS_21__unordered_map_equalIS3_S8_SD_SB_Lb1EEENS5_IS8_EEE25__emplace_unique_key_argsIS3_JRKNS_21piecewise_construct_tENS_5tupleIJRKS3_EEENSN_IJEEEEEENS_4pairINS_15__hash_iteratorIPNS_11__hash_nodeIS8_PvEEEEbEERKT_DpOT0_, symObjAddr: 0x54D0, symBinAddr: 0x15510, symSize: 0x394 }
  - { offset: 0xA8F11, size: 0x8, addend: 0x0, symName: __ZNKSt3__16vectorIaNS_9allocatorIaEEE20__throw_length_errorB8ne190102Ev, symObjAddr: 0x5434, symBinAddr: 0x154E8, symSize: 0x14 }
  - { offset: 0xA8F4B, size: 0x8, addend: 0x0, symName: __ZN12llama_ubatchD1Ev, symObjAddr: 0x2E98, symBinAddr: 0x13130, symSize: 0x5C }
  - { offset: 0xA9017, size: 0x8, addend: 0x0, symName: __ZNSt3__118basic_stringstreamIcNS_11char_traitsIcEENS_9allocatorIcEEED1Ev, symObjAddr: 0x2E10, symBinAddr: 0x130A8, symSize: 0x88 }
  - { offset: 0xA9634, size: 0x8, addend: 0x0, symName: __ZNK18llama_batch_allocr11seq_pos_minEi, symObjAddr: 0x2D98, symBinAddr: 0x13030, symSize: 0x28 }
  - { offset: 0xA965F, size: 0x8, addend: 0x0, symName: __ZNK18llama_batch_allocr11seq_pos_minEi, symObjAddr: 0x2D98, symBinAddr: 0x13030, symSize: 0x28 }
  - { offset: 0xA96D4, size: 0x8, addend: 0x0, symName: __ZNK18llama_batch_allocr11seq_pos_maxEi, symObjAddr: 0x2DC0, symBinAddr: 0x13058, symSize: 0x50 }
  - { offset: 0xA96FF, size: 0x8, addend: 0x0, symName: __ZNK18llama_batch_allocr11seq_pos_maxEi, symObjAddr: 0x2DC0, symBinAddr: 0x13058, symSize: 0x50 }
  - { offset: 0xA986D, size: 0x8, addend: 0x0, symName: __ZN18llama_batch_allocr11split_resetEv, symObjAddr: 0x2EF4, symBinAddr: 0x1318C, symSize: 0x20 }
  - { offset: 0xA9891, size: 0x8, addend: 0x0, symName: __ZN18llama_batch_allocr11split_resetEv, symObjAddr: 0x2EF4, symBinAddr: 0x1318C, symSize: 0x20 }
  - { offset: 0xA98B0, size: 0x8, addend: 0x0, symName: __ZN18llama_batch_allocr11split_resetEv, symObjAddr: 0x2EF4, symBinAddr: 0x1318C, symSize: 0x20 }
  - { offset: 0xA9D9E, size: 0x8, addend: 0x0, symName: __ZN18llama_batch_allocr14ubatch_reserveEjj, symObjAddr: 0x2F14, symBinAddr: 0x131AC, symSize: 0x450 }
  - { offset: 0xAAEF6, size: 0x8, addend: 0x0, symName: __ZNSt3__110shared_ptrIN12llama_ubatch6data_tEED1B8ne190102Ev, symObjAddr: 0x3364, symBinAddr: 0x135FC, symSize: 0x5C }
  - { offset: 0xAAF8B, size: 0x8, addend: 0x0, symName: __ZNK18llama_batch_allocr9get_batchEv, symObjAddr: 0x33C0, symBinAddr: 0x13658, symSize: 0x4 }
  - { offset: 0xAAFB3, size: 0x8, addend: 0x0, symName: __ZNK18llama_batch_allocr12get_n_tokensEv, symObjAddr: 0x33C4, symBinAddr: 0x1365C, symSize: 0x8 }
  - { offset: 0xAAFD5, size: 0x8, addend: 0x0, symName: __ZNK18llama_batch_allocr13get_n_outputsEv, symObjAddr: 0x33CC, symBinAddr: 0x13664, symSize: 0x8 }
  - { offset: 0xAAFFF, size: 0x8, addend: 0x0, symName: __ZNK18llama_batch_allocr10get_n_usedEv, symObjAddr: 0x33D4, symBinAddr: 0x1366C, symSize: 0x8 }
  - { offset: 0xAB029, size: 0x8, addend: 0x0, symName: __ZN18llama_batch_allocr11get_out_idsEv, symObjAddr: 0x33DC, symBinAddr: 0x13674, symSize: 0x8 }
  - { offset: 0xAB053, size: 0x8, addend: 0x0, symName: __ZN18llama_batch_allocr12split_simpleEj, symObjAddr: 0x33E4, symBinAddr: 0x1367C, symSize: 0x238 }
  - { offset: 0xAB839, size: 0x8, addend: 0x0, symName: __ZN18llama_batch_allocr10ubatch_addERKNSt3__16vectorIiNS0_9allocatorIiEEEEjb, symObjAddr: 0x361C, symBinAddr: 0x138B4, symSize: 0x854 }
  - { offset: 0xAD1DF, size: 0x8, addend: 0x0, symName: __ZNSt3__16vectorIfNS_9allocatorIfEEE8__appendEm, symObjAddr: 0x61E4, symBinAddr: 0x16210, symSize: 0x124 }
  - { offset: 0xAD5DC, size: 0x8, addend: 0x0, symName: __ZNKSt3__16vectorIfNS_9allocatorIfEEE20__throw_length_errorB8ne190102Ev, symObjAddr: 0x6308, symBinAddr: 0x16334, symSize: 0x14 }
  - { offset: 0xADAC2, size: 0x8, addend: 0x0, symName: __ZN18llama_batch_allocr11split_equalEjb, symObjAddr: 0x3E70, symBinAddr: 0x14108, symSize: 0x690 }
  - { offset: 0xAF4B9, size: 0x8, addend: 0x0, symName: __ZNSt3__16vectorIiNS_9allocatorIiEEE18__insert_with_sizeB8ne190102INS_11__wrap_iterIPiEES7_EES7_NS5_IPKiEET_T0_l, symObjAddr: 0x5EF8, symBinAddr: 0x15F24, symSize: 0x2EC }
  - { offset: 0xAFEB1, size: 0x8, addend: 0x0, symName: __ZNSt3__16vectorIfNS_9allocatorIfEEE8__appendEm, symObjAddr: 0x61E4, symBinAddr: 0x16210, symSize: 0x124 }
  - { offset: 0xAFECE, size: 0x8, addend: 0x0, symName: __ZNSt3__128__exception_guard_exceptionsINS_6vectorINS1_IiNS_9allocatorIiEEEENS2_IS4_EEE16__destroy_vectorEED1B8ne190102Ev, symObjAddr: 0x5E74, symBinAddr: 0x15EA0, symSize: 0x84 }
  - { offset: 0xB0177, size: 0x8, addend: 0x0, symName: __ZNSt3__16vectorINS0_IiNS_9allocatorIiEEEENS1_IS3_EEED1B8ne190102Ev, symObjAddr: 0x4500, symBinAddr: 0x14798, symSize: 0x74 }
  - { offset: 0xB045A, size: 0x8, addend: 0x0, symName: __ZN18llama_batch_allocr9split_seqEj, symObjAddr: 0x4574, symBinAddr: 0x1480C, symSize: 0x2FC }
  - { offset: 0xB0E16, size: 0x8, addend: 0x0, symName: _llama_batch_get_one, symObjAddr: 0x4870, symBinAddr: 0x14B08, symSize: 0x1C }
  - { offset: 0xB0E4E, size: 0x8, addend: 0x0, symName: _llama_batch_init, symObjAddr: 0x488C, symBinAddr: 0x14B24, symSize: 0xD0 }
  - { offset: 0xB0F47, size: 0x8, addend: 0x0, symName: _llama_batch_free, symObjAddr: 0x495C, symBinAddr: 0x14BF4, symSize: 0x90 }
  - { offset: 0xB15BD, size: 0x8, addend: 0x0, symName: __ZNKSt3__16vectorINS_3setIiNS_4lessIiEENS_9allocatorIiEEEENS4_IS6_EEE20__throw_length_errorB8ne190102Ev, symObjAddr: 0x4C64, symBinAddr: 0x14EEC, symSize: 0x14 }
  - { offset: 0xB19D1, size: 0x8, addend: 0x0, symName: __ZNKSt3__16vectorINS0_IbNS_9allocatorIbEEEENS1_IS3_EEE20__throw_length_errorB8ne190102Ev, symObjAddr: 0x4EE4, symBinAddr: 0x150D0, symSize: 0x14 }
  - { offset: 0xB19FB, size: 0x8, addend: 0x0, symName: __ZNSt3__16vectorIbNS_9allocatorIbEEE7reserveEm, symObjAddr: 0x4EF8, symBinAddr: 0x150E4, symSize: 0x100 }
  - { offset: 0xB1FE7, size: 0x8, addend: 0x0, symName: __ZNKSt3__16vectorIPiNS_9allocatorIS1_EEE20__throw_length_errorB8ne190102Ev, symObjAddr: 0x5420, symBinAddr: 0x154D4, symSize: 0x14 }
  - { offset: 0xB2011, size: 0x8, addend: 0x0, symName: __ZNKSt3__16vectorIaNS_9allocatorIaEEE20__throw_length_errorB8ne190102Ev, symObjAddr: 0x5434, symBinAddr: 0x154E8, symSize: 0x14 }
  - { offset: 0xB2672, size: 0x8, addend: 0x0, symName: __ZNSt3__112__hash_tableINS_17__hash_value_typeINS_6bitsetILm256EEENS_6vectorIiNS_9allocatorIiEEEEEENS_22__unordered_map_hasherIS3_S8_NS_4hashIS3_EENS_8equal_toIS3_EELb1EEENS_21__unordered_map_equalIS3_S8_SD_SB_Lb1EEENS5_IS8_EEE11__do_rehashILb1EEEvm, symObjAddr: 0x58C4, symBinAddr: 0x15904, symSize: 0x1A0 }
  - { offset: 0xB2AD0, size: 0x8, addend: 0x0, symName: __ZNSt3__124__put_character_sequenceB8ne190102IcNS_11char_traitsIcEEEERNS_13basic_ostreamIT_T0_EES7_PKS4_m, symObjAddr: 0x5A64, symBinAddr: 0x15AA4, symSize: 0x170 }
  - { offset: 0xB2AE5, size: 0x8, addend: 0x0, symName: __ZNSt3__110unique_ptrINS_11__hash_nodeINS_17__hash_value_typeINS_6bitsetILm256EEENS_6vectorIiNS_9allocatorIiEEEEEEPvEENS_22__hash_node_destructorINS6_ISB_EEEEED1B8ne190102Ev, symObjAddr: 0x5864, symBinAddr: 0x158A4, symSize: 0x60 }
  - { offset: 0xB3351, size: 0x8, addend: 0x0, symName: __ZNSt3__120__shared_ptr_emplaceIN12llama_ubatch6data_tENS_9allocatorIS2_EEED1Ev, symObjAddr: 0x5D90, symBinAddr: 0x15DBC, symSize: 0x14 }
  - { offset: 0xB3378, size: 0x8, addend: 0x0, symName: __ZNSt3__120__shared_ptr_emplaceIN12llama_ubatch6data_tENS_9allocatorIS2_EEED1Ev, symObjAddr: 0x5D90, symBinAddr: 0x15DBC, symSize: 0x14 }
  - { offset: 0xB339A, size: 0x8, addend: 0x0, symName: __ZNSt3__120__shared_ptr_emplaceIN12llama_ubatch6data_tENS_9allocatorIS2_EEED1Ev, symObjAddr: 0x5D90, symBinAddr: 0x15DBC, symSize: 0x14 }
  - { offset: 0xB33D0, size: 0x8, addend: 0x0, symName: __ZNSt3__120__shared_ptr_emplaceIN12llama_ubatch6data_tENS_9allocatorIS2_EEED0Ev, symObjAddr: 0x5DA4, symBinAddr: 0x15DD0, symSize: 0x24 }
  - { offset: 0xB34F2, size: 0x8, addend: 0x0, symName: __ZNSt3__120__shared_ptr_emplaceIN12llama_ubatch6data_tENS_9allocatorIS2_EEE16__on_zero_sharedEv, symObjAddr: 0x5DC8, symBinAddr: 0x15DF4, symSize: 0x8 }
  - { offset: 0xB351B, size: 0x8, addend: 0x0, symName: __ZNSt3__120__shared_ptr_emplaceIN12llama_ubatch6data_tENS_9allocatorIS2_EEE16__on_zero_sharedEv, symObjAddr: 0x5DC8, symBinAddr: 0x15DF4, symSize: 0x8 }
  - { offset: 0xB3540, size: 0x8, addend: 0x0, symName: __ZNSt3__120__shared_ptr_emplaceIN12llama_ubatch6data_tENS_9allocatorIS2_EEE16__on_zero_sharedEv, symObjAddr: 0x5DC8, symBinAddr: 0x15DF4, symSize: 0x8 }
  - { offset: 0xB35AB, size: 0x8, addend: 0x0, symName: __ZN12llama_ubatch6data_tD2Ev, symObjAddr: 0x5DD4, symBinAddr: 0x15E00, symSize: 0xA0 }
  - { offset: 0xB406A, size: 0x8, addend: 0x0, symName: __ZNSt3__120__shared_ptr_emplaceIN12llama_ubatch6data_tENS_9allocatorIS2_EEE21__on_zero_shared_weakEv, symObjAddr: 0x5DD0, symBinAddr: 0x15DFC, symSize: 0x4 }
  - { offset: 0xB409F, size: 0x8, addend: 0x0, symName: __ZNSt3__120__shared_ptr_emplaceIN12llama_ubatch6data_tENS_9allocatorIS2_EEE21__on_zero_shared_weakEv, symObjAddr: 0x5DD0, symBinAddr: 0x15DFC, symSize: 0x4 }
  - { offset: 0xB40C2, size: 0x8, addend: 0x0, symName: __ZNSt3__120__shared_ptr_emplaceIN12llama_ubatch6data_tENS_9allocatorIS2_EEE21__on_zero_shared_weakEv, symObjAddr: 0x5DD0, symBinAddr: 0x15DFC, symSize: 0x4 }
  - { offset: 0xB40E5, size: 0x8, addend: 0x0, symName: __ZNSt3__120__shared_ptr_emplaceIN12llama_ubatch6data_tENS_9allocatorIS2_EEE21__on_zero_shared_weakEv, symObjAddr: 0x5DD0, symBinAddr: 0x15DFC, symSize: 0x4 }
  - { offset: 0xB4113, size: 0x8, addend: 0x0, symName: __ZNSt3__120__shared_ptr_emplaceIN12llama_ubatch6data_tENS_9allocatorIS2_EEE21__on_zero_shared_weakEv, symObjAddr: 0x5DD0, symBinAddr: 0x15DFC, symSize: 0x4 }
  - { offset: 0xB413B, size: 0x8, addend: 0x0, symName: __ZNSt3__120__shared_ptr_emplaceIN12llama_ubatch6data_tENS_9allocatorIS2_EEE21__on_zero_shared_weakEv, symObjAddr: 0x5DD0, symBinAddr: 0x15DFC, symSize: 0x4 }
  - { offset: 0xB47BB, size: 0x8, addend: 0x0, symName: __ZNKSt3__16vectorIfNS_9allocatorIfEEE20__throw_length_errorB8ne190102Ev, symObjAddr: 0x6308, symBinAddr: 0x16334, symSize: 0x14 }
  - { offset: 0xB66B2, size: 0x8, addend: 0x0, symName: __ZL18LLM_CHAT_TEMPLATES, symObjAddr: 0x890D0, symBinAddr: 0x302F10, symSize: 0x0 }
  - { offset: 0xBEB08, size: 0x8, addend: 0x0, symName: __ZNSt3__1eqB8ne190102IcNS_11char_traitsIcEENS_9allocatorIcEEEEbRKNS_12basic_stringIT_T0_T1_EEPKS6_, symObjAddr: 0x593C, symBinAddr: 0x1BAAC, symSize: 0x8C }
  - { offset: 0xC0CD5, size: 0x8, addend: 0x0, symName: __ZNSt3__13mapINS_12basic_stringIcNS_11char_traitsIcEENS_9allocatorIcEEEE17llm_chat_templateNS_4lessIS6_EENS4_INS_4pairIKS6_S7_EEEEED1B8ne190102Ev, symObjAddr: 0x0, symBinAddr: 0x16348, symSize: 0x28 }
  - { offset: 0xC0D89, size: 0x8, addend: 0x0, symName: __ZNSt3__16__treeINS_12__value_typeINS_12basic_stringIcNS_11char_traitsIcEENS_9allocatorIcEEEE17llm_chat_templateEENS_19__map_value_compareIS7_S9_NS_4lessIS7_EELb1EEENS5_IS9_EEE7destroyEPNS_11__tree_nodeIS9_PvEE, symObjAddr: 0x64EC, symBinAddr: 0x1C300, symSize: 0x60 }
  - { offset: 0xC1269, size: 0x8, addend: 0x0, symName: __Z26llm_chat_template_from_strRKNSt3__112basic_stringIcNS_11char_traitsIcEENS_9allocatorIcEEEE, symObjAddr: 0x28, symBinAddr: 0x16370, symSize: 0xF0 }
  - { offset: 0xC15A3, size: 0x8, addend: 0x0, symName: __Z24llm_chat_detect_templateRKNSt3__112basic_stringIcNS_11char_traitsIcEENS_9allocatorIcEEEE, symObjAddr: 0x118, symBinAddr: 0x16460, symSize: 0x880 }
  - { offset: 0xC1BE6, size: 0x8, addend: 0x0, symName: '__ZZ24llm_chat_detect_templateRKNSt3__112basic_stringIcNS_11char_traitsIcEENS_9allocatorIcEEEEENK3$_0clEPKc', symObjAddr: 0x998, symBinAddr: 0x16CE0, symSize: 0xD8 }
  - { offset: 0xC1E43, size: 0x8, addend: 0x0, symName: __ZNKSt3__112basic_stringIcNS_11char_traitsIcEENS_9allocatorIcEEE4findB8ne190102EPKcm, symObjAddr: 0xA70, symBinAddr: 0x16DB8, symSize: 0xEC }
  - { offset: 0xC2811, size: 0x8, addend: 0x0, symName: __Z23llm_chat_apply_template17llm_chat_templateRKNSt3__16vectorIPK18llama_chat_messageNS0_9allocatorIS4_EEEERNS0_12basic_stringIcNS0_11char_traitsIcEENS5_IcEEEEb, symObjAddr: 0xB5C, symBinAddr: 0x16EA4, symSize: 0x4C08 }
  - { offset: 0xD349E, size: 0x8, addend: 0x0, symName: __ZL4trimRKNSt3__112basic_stringIcNS_11char_traitsIcEENS_9allocatorIcEEEE, symObjAddr: 0x59C8, symBinAddr: 0x1BB38, symSize: 0x1C8 }
  - { offset: 0xD3B8C, size: 0x8, addend: 0x0, symName: __ZNSt3__1eqB8ne190102IcNS_11char_traitsIcEENS_9allocatorIcEEEEbRKNS_12basic_stringIT_T0_T1_EEPKS6_, symObjAddr: 0x593C, symBinAddr: 0x1BAAC, symSize: 0x8C }
  - { offset: 0xD405D, size: 0x8, addend: 0x0, symName: _llama_chat_builtin_templates, symObjAddr: 0x5C18, symBinAddr: 0x1BD00, symSize: 0x90 }
  - { offset: 0xD460C, size: 0x8, addend: 0x0, symName: __ZNSt3__16__treeINS_12__value_typeINS_12basic_stringIcNS_11char_traitsIcEENS_9allocatorIcEEEE17llm_chat_templateEENS_19__map_value_compareIS7_S9_NS_4lessIS7_EELb1EEENS5_IS9_EEE30__emplace_hint_unique_key_argsIS7_JRKNS_4pairIKS7_S8_EEEEENSH_INS_15__tree_iteratorIS9_PNS_11__tree_nodeIS9_PvEElEEbEENS_21__tree_const_iteratorIS9_SQ_lEERKT_DpOT0_, symObjAddr: 0x5DC8, symBinAddr: 0x1BD90, symSize: 0x118 }
  - { offset: 0xD49B8, size: 0x8, addend: 0x0, symName: __ZNSt3__16__treeINS_12__value_typeINS_12basic_stringIcNS_11char_traitsIcEENS_9allocatorIcEEEE17llm_chat_templateEENS_19__map_value_compareIS7_S9_NS_4lessIS7_EELb1EEENS5_IS9_EEE12__find_equalIS7_EERPNS_16__tree_node_baseIPvEENS_21__tree_const_iteratorIS9_PNS_11__tree_nodeIS9_SI_EElEERPNS_15__tree_end_nodeISK_EESL_RKT_, symObjAddr: 0x5EE0, symBinAddr: 0x1BEA8, symSize: 0x3F8 }
  - { offset: 0xD5680, size: 0x8, addend: 0x0, symName: __ZNSt3__110unique_ptrINS_11__tree_nodeINS_12__value_typeINS_12basic_stringIcNS_11char_traitsIcEENS_9allocatorIcEEEE17llm_chat_templateEEPvEENS_22__tree_node_destructorINS6_ISC_EEEEED1B8ne190102Ev, symObjAddr: 0x62D8, symBinAddr: 0x1C2A0, symSize: 0x60 }
  - { offset: 0xD6871, size: 0x8, addend: 0x0, symName: __GLOBAL__sub_I_llama_chat.cpp, symObjAddr: 0x7018, symBinAddr: 0x1C360, symSize: 0xBD8 }
  - { offset: 0x1129A1, size: 0x8, addend: 0x0, symName: __ZNK13llama_context12graph_get_cbEv, symObjAddr: 0x5B4C, symBinAddr: 0x229E4, symSize: 0x14 }
  - { offset: 0x1129FC, size: 0x8, addend: 0x0, symName: __ZNK13llama_context12graph_get_cbEv, symObjAddr: 0x5B4C, symBinAddr: 0x229E4, symSize: 0x14 }
  - { offset: 0x112A1F, size: 0x8, addend: 0x0, symName: __ZNK13llama_context12graph_get_cbEv, symObjAddr: 0x5B4C, symBinAddr: 0x229E4, symSize: 0x14 }
  - { offset: 0x112A42, size: 0x8, addend: 0x0, symName: __ZNK13llama_context12graph_get_cbEv, symObjAddr: 0x5B4C, symBinAddr: 0x229E4, symSize: 0x14 }
  - { offset: 0x112A5E, size: 0x8, addend: 0x0, symName: __ZNK13llama_context12graph_get_cbEv, symObjAddr: 0x5B4C, symBinAddr: 0x229E4, symSize: 0x14 }
  - { offset: 0x112A7A, size: 0x8, addend: 0x0, symName: __ZNK13llama_context12graph_get_cbEv, symObjAddr: 0x5B4C, symBinAddr: 0x229E4, symSize: 0x14 }
  - { offset: 0x112A93, size: 0x8, addend: 0x0, symName: __ZNK13llama_context12graph_get_cbEv, symObjAddr: 0x5B4C, symBinAddr: 0x229E4, symSize: 0x14 }
  - { offset: 0x112AAB, size: 0x8, addend: 0x0, symName: __ZNK13llama_context12graph_get_cbEv, symObjAddr: 0x5B4C, symBinAddr: 0x229E4, symSize: 0x14 }
  - { offset: 0x112AC7, size: 0x8, addend: 0x0, symName: __ZNK13llama_context12graph_get_cbEv, symObjAddr: 0x5B4C, symBinAddr: 0x229E4, symSize: 0x14 }
  - { offset: 0x11536F, size: 0x8, addend: 0x0, symName: __ZN13llama_contextC2ERK11llama_model20llama_context_params, symObjAddr: 0x0, symBinAddr: 0x1CF38, symSize: 0x1A6C }
  - { offset: 0x119951, size: 0x8, addend: 0x0, symName: __ZN13llama_context14output_reserveEi, symObjAddr: 0x1B10, symBinAddr: 0x1EA48, symSize: 0x1D8 }
  - { offset: 0x119DA5, size: 0x8, addend: 0x0, symName: __ZN13llama_context13graph_reserveEjjjPK22llama_memory_context_ib, symObjAddr: 0x1D10, symBinAddr: 0x1EC48, symSize: 0x3F8 }
  - { offset: 0x11A71E, size: 0x8, addend: 0x0, symName: __ZNKSt3__16vectorINS_10unique_ptrI12ggml_backend20ggml_backend_deleterEENS_9allocatorIS4_EEE20__throw_length_errorB8ne190102Ev, symObjAddr: 0xBBE8, symBinAddr: 0x2898C, symSize: 0x14 }
  - { offset: 0x11A748, size: 0x8, addend: 0x0, symName: __ZNKSt3__16vectorINS_4pairIP12ggml_backendPFvS3_iEEENS_9allocatorIS6_EEE20__throw_length_errorB8ne190102Ev, symObjAddr: 0xBBFC, symBinAddr: 0x289A0, symSize: 0x14 }
  - { offset: 0x11A76B, size: 0x8, addend: 0x0, symName: __ZNKSt3__16vectorIP12ggml_backendNS_9allocatorIS2_EEE20__throw_length_errorB8ne190102Ev, symObjAddr: 0xBC24, symBinAddr: 0x289B4, symSize: 0x14 }
  - { offset: 0x11A776, size: 0x8, addend: 0x0, symName: __ZNKSt3__16vectorIP12ggml_backendNS_9allocatorIS2_EEE20__throw_length_errorB8ne190102Ev, symObjAddr: 0xBC24, symBinAddr: 0x289B4, symSize: 0x14 }
  - { offset: 0x11A7AB, size: 0x8, addend: 0x0, symName: __ZNKSt3__16vectorINS_4pairIP12ggml_backendPFvS3_iEEENS_9allocatorIS6_EEE20__throw_length_errorB8ne190102Ev, symObjAddr: 0xBBFC, symBinAddr: 0x289A0, symSize: 0x14 }
  - { offset: 0x11A7F8, size: 0x8, addend: 0x0, symName: __ZNSt3__112__hash_tableINS_17__hash_value_typeIP18llama_adapter_lorafEENS_22__unordered_map_hasherIS3_S4_NS_4hashIS3_EENS_8equal_toIS3_EELb1EEENS_21__unordered_map_equalIS3_S4_S9_S7_Lb1EEENS_9allocatorIS4_EEE25__emplace_unique_key_argsIS3_JRKNS_21piecewise_construct_tENS_5tupleIJRKS3_EEENSK_IJEEEEEENS_4pairINS_15__hash_iteratorIPNS_11__hash_nodeIS4_PvEEEEbEERKT_DpOT0_, symObjAddr: 0xBC4C, symBinAddr: 0x289C8, symSize: 0x364 }
  - { offset: 0x11A881, size: 0x8, addend: 0x0, symName: __ZNSt3__16vectorINS_10unique_ptrI12ggml_backend20ggml_backend_deleterEENS_9allocatorIS4_EEED1B8ne190102Ev, symObjAddr: 0x213C, symBinAddr: 0x1F040, symSize: 0x70 }
  - { offset: 0x11AA69, size: 0x8, addend: 0x0, symName: __ZNSt3__110unique_ptrI18ggml_backend_sched26ggml_backend_sched_deleterED1B8ne190102Ev, symObjAddr: 0x21AC, symBinAddr: 0x1F0B0, symSize: 0x34 }
  - { offset: 0x11AAFD, size: 0x8, addend: 0x0, symName: __ZNSt3__110unique_ptrI18llama_batch_allocrNS_14default_deleteIS1_EEED1B8ne190102Ev, symObjAddr: 0x21E0, symBinAddr: 0x1F0E4, symSize: 0x3C }
  - { offset: 0x11ABBF, size: 0x8, addend: 0x0, symName: __ZNSt3__16__treeINS_12__value_typeIiNS_6vectorIfNS_9allocatorIfEEEEEENS_19__map_value_compareIiS6_NS_4lessIiEELb1EEENS3_IS6_EEE7destroyEPNS_11__tree_nodeIS6_PvEE, symObjAddr: 0xBB98, symBinAddr: 0x2893C, symSize: 0x50 }
  - { offset: 0x11AEBC, size: 0x8, addend: 0x0, symName: __ZN11llama_crossD1Ev, symObjAddr: 0x221C, symBinAddr: 0x1F120, symSize: 0x78 }
  - { offset: 0x11B26B, size: 0x8, addend: 0x0, symName: __ZNSt3__113unordered_mapIP18llama_adapter_lorafNS_4hashIS2_EENS_8equal_toIS2_EENS_9allocatorINS_4pairIKS2_fEEEEED1B8ne190102Ev, symObjAddr: 0x2294, symBinAddr: 0x1F198, symSize: 0x48 }
  - { offset: 0x11B53F, size: 0x8, addend: 0x0, symName: __ZN18llama_adapter_cvecD2Ev, symObjAddr: 0xB248, symBinAddr: 0x2809C, symSize: 0xC8 }
  - { offset: 0x11BA69, size: 0x8, addend: 0x0, symName: _llama_set_abort_callback, symObjAddr: 0x1A6C, symBinAddr: 0x1E9A4, symSize: 0xA4 }
  - { offset: 0x11BFAB, size: 0x8, addend: 0x0, symName: __ZNK13llama_context15graph_max_nodesEv, symObjAddr: 0x1CE8, symBinAddr: 0x1EC20, symSize: 0x28 }
  - { offset: 0x11C5E9, size: 0x8, addend: 0x0, symName: __ZN18llama_batch_allocrD2Ev, symObjAddr: 0xB310, symBinAddr: 0x28164, symSize: 0x174 }
  - { offset: 0x11DA90, size: 0x8, addend: 0x0, symName: __ZN16llm_graph_paramsD1Ev, symObjAddr: 0x3EA8, symBinAddr: 0x20D9C, symSize: 0x90 }
  - { offset: 0x11E3D2, size: 0x8, addend: 0x0, symName: __ZN13llama_contextC1ERK11llama_model20llama_context_params, symObjAddr: 0x22DC, symBinAddr: 0x1F1E0, symSize: 0x4 }
  - { offset: 0x11E404, size: 0x8, addend: 0x0, symName: __ZN13llama_contextC1ERK11llama_model20llama_context_params, symObjAddr: 0x22DC, symBinAddr: 0x1F1E0, symSize: 0x4 }
  - { offset: 0x11E4C3, size: 0x8, addend: 0x0, symName: __ZN13llama_contextD2Ev, symObjAddr: 0x22E0, symBinAddr: 0x1F1E4, symSize: 0x1DC }
  - { offset: 0x11F85A, size: 0x8, addend: 0x0, symName: __ZN13llama_contextD1Ev, symObjAddr: 0x24CC, symBinAddr: 0x1F3C0, symSize: 0x4 }
  - { offset: 0x11F87D, size: 0x8, addend: 0x0, symName: __ZN13llama_contextD1Ev, symObjAddr: 0x24CC, symBinAddr: 0x1F3C0, symSize: 0x4 }
  - { offset: 0x11F890, size: 0x8, addend: 0x0, symName: __ZN13llama_context11synchronizeEv, symObjAddr: 0x24D0, symBinAddr: 0x1F3C4, symSize: 0xEC }
  - { offset: 0x11F92D, size: 0x8, addend: 0x0, symName: __ZNK13llama_context9get_modelEv, symObjAddr: 0x25BC, symBinAddr: 0x1F4B0, symSize: 0x8 }
  - { offset: 0x11F94F, size: 0x8, addend: 0x0, symName: __ZNK13llama_context11get_cparamsEv, symObjAddr: 0x25C4, symBinAddr: 0x1F4B8, symSize: 0x8 }
  - { offset: 0x11F979, size: 0x8, addend: 0x0, symName: __ZNK13llama_context9get_schedEv, symObjAddr: 0x25CC, symBinAddr: 0x1F4C0, symSize: 0x8 }
  - { offset: 0x11F9A5, size: 0x8, addend: 0x0, symName: __ZNK13llama_context9get_schedEv, symObjAddr: 0x25CC, symBinAddr: 0x1F4C0, symSize: 0x8 }
  - { offset: 0x11F9C3, size: 0x8, addend: 0x0, symName: __ZNK13llama_context5n_ctxEv, symObjAddr: 0x25D4, symBinAddr: 0x1F4C8, symSize: 0x8 }
  - { offset: 0x11F9E5, size: 0x8, addend: 0x0, symName: __ZNK13llama_context9n_ctx_seqEv, symObjAddr: 0x25DC, symBinAddr: 0x1F4D0, symSize: 0x8 }
  - { offset: 0x11FA07, size: 0x8, addend: 0x0, symName: __ZNK13llama_context7n_batchEv, symObjAddr: 0x25E4, symBinAddr: 0x1F4D8, symSize: 0x8 }
  - { offset: 0x11FA29, size: 0x8, addend: 0x0, symName: __ZNK13llama_context8n_ubatchEv, symObjAddr: 0x25EC, symBinAddr: 0x1F4E0, symSize: 0x8 }
  - { offset: 0x11FA4B, size: 0x8, addend: 0x0, symName: __ZNK13llama_context9n_seq_maxEv, symObjAddr: 0x25F4, symBinAddr: 0x1F4E8, symSize: 0x8 }
  - { offset: 0x11FA6D, size: 0x8, addend: 0x0, symName: __ZNK13llama_context9n_threadsEv, symObjAddr: 0x25FC, symBinAddr: 0x1F4F0, symSize: 0x8 }
  - { offset: 0x11FA8F, size: 0x8, addend: 0x0, symName: __ZNK13llama_context15n_threads_batchEv, symObjAddr: 0x2604, symBinAddr: 0x1F4F8, symSize: 0x8 }
  - { offset: 0x11FAC7, size: 0x8, addend: 0x0, symName: __ZNK13llama_context10get_memoryEv, symObjAddr: 0x260C, symBinAddr: 0x1F500, symSize: 0x8 }
  - { offset: 0x11FAEB, size: 0x8, addend: 0x0, symName: __ZNK13llama_context10get_memoryEv, symObjAddr: 0x260C, symBinAddr: 0x1F500, symSize: 0x8 }
  - { offset: 0x11FB3A, size: 0x8, addend: 0x0, symName: __ZN13llama_context13memory_updateEb, symObjAddr: 0x2614, symBinAddr: 0x1F508, symSize: 0x20C }
  - { offset: 0x11FF23, size: 0x8, addend: 0x0, symName: __ZNK13llama_context12pooling_typeEv, symObjAddr: 0x2820, symBinAddr: 0x1F714, symSize: 0x8 }
  - { offset: 0x11FF45, size: 0x8, addend: 0x0, symName: __ZN13llama_context10get_logitsEv, symObjAddr: 0x2828, symBinAddr: 0x1F71C, symSize: 0x24 }
  - { offset: 0x11FF7C, size: 0x8, addend: 0x0, symName: __ZN13llama_context14output_reorderEv, symObjAddr: 0x284C, symBinAddr: 0x1F740, symSize: 0x66C }
  - { offset: 0x12015A, size: 0x8, addend: 0x0, symName: __ZN13llama_context14get_logits_ithEi, symObjAddr: 0x2EB8, symBinAddr: 0x1FDAC, symSize: 0x2B8 }
  - { offset: 0x120427, size: 0x8, addend: 0x0, symName: __ZN13llama_context14get_embeddingsEv, symObjAddr: 0x3170, symBinAddr: 0x20064, symSize: 0x24 }
  - { offset: 0x12045E, size: 0x8, addend: 0x0, symName: __ZN13llama_context18get_embeddings_ithEi, symObjAddr: 0x3194, symBinAddr: 0x20088, symSize: 0x2B0 }
  - { offset: 0x120871, size: 0x8, addend: 0x0, symName: __ZN13llama_context18get_embeddings_seqEi, symObjAddr: 0x3444, symBinAddr: 0x20338, symSize: 0x4C }
  - { offset: 0x1208A5, size: 0x8, addend: 0x0, symName: __ZN13llama_context18get_embeddings_seqEi, symObjAddr: 0x3444, symBinAddr: 0x20338, symSize: 0x4C }
  - { offset: 0x1208C4, size: 0x8, addend: 0x0, symName: __ZN13llama_context18get_embeddings_seqEi, symObjAddr: 0x3444, symBinAddr: 0x20338, symSize: 0x4C }
  - { offset: 0x1208EC, size: 0x8, addend: 0x0, symName: __ZN13llama_context18get_embeddings_seqEi, symObjAddr: 0x3444, symBinAddr: 0x20338, symSize: 0x4C }
  - { offset: 0x1209D7, size: 0x8, addend: 0x0, symName: __ZN13llama_context17attach_threadpoolEP15ggml_threadpoolS1_, symObjAddr: 0x3490, symBinAddr: 0x20384, symSize: 0x5C }
  - { offset: 0x120A1E, size: 0x8, addend: 0x0, symName: __ZN13llama_context17detach_threadpoolEv, symObjAddr: 0x34EC, symBinAddr: 0x203E0, symSize: 0x44 }
  - { offset: 0x120A53, size: 0x8, addend: 0x0, symName: __ZN13llama_context13set_n_threadsEii, symObjAddr: 0x3530, symBinAddr: 0x20424, symSize: 0x58 }
  - { offset: 0x120A9A, size: 0x8, addend: 0x0, symName: __ZN13llama_context18set_abort_callbackEPFbPvES0_, symObjAddr: 0x3588, symBinAddr: 0x2047C, symSize: 0xA4 }
  - { offset: 0x120BEE, size: 0x8, addend: 0x0, symName: __ZN13llama_context14set_embeddingsEb, symObjAddr: 0x362C, symBinAddr: 0x20520, symSize: 0x48 }
  - { offset: 0x120C29, size: 0x8, addend: 0x0, symName: __ZN13llama_context15set_causal_attnEb, symObjAddr: 0x3674, symBinAddr: 0x20568, symSize: 0x48 }
  - { offset: 0x120C64, size: 0x8, addend: 0x0, symName: __ZN13llama_context10set_warmupEb, symObjAddr: 0x36BC, symBinAddr: 0x205B0, symSize: 0x48 }
  - { offset: 0x120CC3, size: 0x8, addend: 0x0, symName: __ZN13llama_context16set_adapter_loraEP18llama_adapter_loraf, symObjAddr: 0x3704, symBinAddr: 0x205F8, symSize: 0x80 }
  - { offset: 0x120D58, size: 0x8, addend: 0x0, symName: __ZNSt3__112__hash_tableINS_17__hash_value_typeIP18llama_adapter_lorafEENS_22__unordered_map_hasherIS3_S4_NS_4hashIS3_EENS_8equal_toIS3_EELb1EEENS_21__unordered_map_equalIS3_S4_S9_S7_Lb1EEENS_9allocatorIS4_EEE25__emplace_unique_key_argsIS3_JRKNS_21piecewise_construct_tENS_5tupleIJRKS3_EEENSK_IJEEEEEENS_4pairINS_15__hash_iteratorIPNS_11__hash_nodeIS4_PvEEEEbEERKT_DpOT0_, symObjAddr: 0xBC4C, symBinAddr: 0x289C8, symSize: 0x364 }
  - { offset: 0x1216C1, size: 0x8, addend: 0x0, symName: __ZN13llama_context15rm_adapter_loraEP18llama_adapter_lora, symObjAddr: 0x3784, symBinAddr: 0x20678, symSize: 0x80 }
  - { offset: 0x121923, size: 0x8, addend: 0x0, symName: __ZNSt3__112__hash_tableINS_17__hash_value_typeIP18llama_adapter_lorafEENS_22__unordered_map_hasherIS3_S4_NS_4hashIS3_EENS_8equal_toIS3_EELb1EEENS_21__unordered_map_equalIS3_S4_S9_S7_Lb1EEENS_9allocatorIS4_EEE4findIS3_EENS_15__hash_iteratorIPNS_11__hash_nodeIS4_PvEEEERKT_, symObjAddr: 0xC150, symBinAddr: 0x28ECC, symSize: 0x110 }
  - { offset: 0x12197A, size: 0x8, addend: 0x0, symName: __ZNSt3__112__hash_tableINS_17__hash_value_typeIP18llama_adapter_lorafEENS_22__unordered_map_hasherIS3_S4_NS_4hashIS3_EENS_8equal_toIS3_EELb1EEENS_21__unordered_map_equalIS3_S4_S9_S7_Lb1EEENS_9allocatorIS4_EEE4findIS3_EENS_15__hash_iteratorIPNS_11__hash_nodeIS4_PvEEEERKT_, symObjAddr: 0xC150, symBinAddr: 0x28ECC, symSize: 0x110 }
  - { offset: 0x121996, size: 0x8, addend: 0x0, symName: __ZNSt3__112__hash_tableINS_17__hash_value_typeIP18llama_adapter_lorafEENS_22__unordered_map_hasherIS3_S4_NS_4hashIS3_EENS_8equal_toIS3_EELb1EEENS_21__unordered_map_equalIS3_S4_S9_S7_Lb1EEENS_9allocatorIS4_EEE4findIS3_EENS_15__hash_iteratorIPNS_11__hash_nodeIS4_PvEEEERKT_, symObjAddr: 0xC150, symBinAddr: 0x28ECC, symSize: 0x110 }
  - { offset: 0x121A90, size: 0x8, addend: 0x0, symName: __ZNSt3__112__hash_tableINS_17__hash_value_typeIP18llama_adapter_lorafEENS_22__unordered_map_hasherIS3_S4_NS_4hashIS3_EENS_8equal_toIS3_EELb1EEENS_21__unordered_map_equalIS3_S4_S9_S7_Lb1EEENS_9allocatorIS4_EEE6removeENS_21__hash_const_iteratorIPNS_11__hash_nodeIS4_PvEEEE, symObjAddr: 0xC260, symBinAddr: 0x28FDC, symSize: 0x134 }
  - { offset: 0x121B06, size: 0x8, addend: 0x0, symName: __ZNSt3__112__hash_tableINS_17__hash_value_typeIP18llama_adapter_lorafEENS_22__unordered_map_hasherIS3_S4_NS_4hashIS3_EENS_8equal_toIS3_EELb1EEENS_21__unordered_map_equalIS3_S4_S9_S7_Lb1EEENS_9allocatorIS4_EEE6removeENS_21__hash_const_iteratorIPNS_11__hash_nodeIS4_PvEEEE, symObjAddr: 0xC260, symBinAddr: 0x28FDC, symSize: 0x134 }
  - { offset: 0x121B22, size: 0x8, addend: 0x0, symName: __ZNSt3__112__hash_tableINS_17__hash_value_typeIP18llama_adapter_lorafEENS_22__unordered_map_hasherIS3_S4_NS_4hashIS3_EENS_8equal_toIS3_EELb1EEENS_21__unordered_map_equalIS3_S4_S9_S7_Lb1EEENS_9allocatorIS4_EEE6removeENS_21__hash_const_iteratorIPNS_11__hash_nodeIS4_PvEEEE, symObjAddr: 0xC260, symBinAddr: 0x28FDC, symSize: 0x134 }
  - { offset: 0x121E15, size: 0x8, addend: 0x0, symName: __ZN13llama_context18clear_adapter_loraEv, symObjAddr: 0x3804, symBinAddr: 0x206F8, symSize: 0x88 }
  - { offset: 0x12204C, size: 0x8, addend: 0x0, symName: __ZN13llama_context18apply_adapter_cvecEPKfmiii, symObjAddr: 0x388C, symBinAddr: 0x20780, symSize: 0x84 }
  - { offset: 0x1220C9, size: 0x8, addend: 0x0, symName: __ZN13llama_context14process_ubatchERK12llama_ubatch14llm_graph_typeP22llama_memory_context_iR11ggml_status, symObjAddr: 0x3910, symBinAddr: 0x20804, symSize: 0x394 }
  - { offset: 0x122740, size: 0x8, addend: 0x0, symName: __ZN13llama_context13graph_computeEP11ggml_cgraphb, symObjAddr: 0x3DC8, symBinAddr: 0x20CBC, symSize: 0xE0 }
  - { offset: 0x1228F9, size: 0x8, addend: 0x0, symName: __ZNK13llama_context12graph_paramsEP16llm_graph_resultRK12llama_ubatchPK22llama_memory_context_i14llm_graph_type, symObjAddr: 0x3CA4, symBinAddr: 0x20B98, symSize: 0x124 }
  - { offset: 0x12345E, size: 0x8, addend: 0x0, symName: __ZN13llama_context6encodeERK11llama_batch, symObjAddr: 0x3F38, symBinAddr: 0x20E2C, symSize: 0xAF8 }
  - { offset: 0x125372, size: 0x8, addend: 0x0, symName: __ZN13llama_context6decodeERK11llama_batch, symObjAddr: 0x4A8C, symBinAddr: 0x21924, symSize: 0xFC8 }
  - { offset: 0x126BFC, size: 0x8, addend: 0x0, symName: __ZNSt3__16vectorIN13llama_context9swap_infoENS_9allocatorIS2_EEE9push_backB8ne190102EOS2_, symObjAddr: 0x5A54, symBinAddr: 0x228EC, symSize: 0xF0 }
  - { offset: 0x12700B, size: 0x8, addend: 0x0, symName: __ZNK13llama_context18get_gf_res_reserveEv, symObjAddr: 0x5B44, symBinAddr: 0x229DC, symSize: 0x8 }
  - { offset: 0x1272A4, size: 0x8, addend: 0x0, symName: __ZNKSt3__16vectorIN13llama_context9swap_infoENS_9allocatorIS2_EEE20__throw_length_errorB8ne190102Ev, symObjAddr: 0xC8B8, symBinAddr: 0x29110, symSize: 0x14 }
  - { offset: 0x1272D9, size: 0x8, addend: 0x0, symName: __ZNK13llama_context18get_gf_res_reserveEv, symObjAddr: 0x5B44, symBinAddr: 0x229DC, symSize: 0x8 }
  - { offset: 0x127305, size: 0x8, addend: 0x0, symName: __ZNK13llama_context18get_gf_res_reserveEv, symObjAddr: 0x5B44, symBinAddr: 0x229DC, symSize: 0x8 }
  - { offset: 0x127419, size: 0x8, addend: 0x0, symName: __ZN13llama_context14state_get_sizeEv, symObjAddr: 0x5B60, symBinAddr: 0x229F8, symSize: 0xA0 }
  - { offset: 0x1274DB, size: 0x8, addend: 0x0, symName: __ZN13llama_context16state_write_dataER16llama_io_write_i, symObjAddr: 0x5C00, symBinAddr: 0x22A98, symSize: 0x354 }
  - { offset: 0x127F25, size: 0x8, addend: 0x0, symName: __ZN20llama_io_write_dummyD1Ev, symObjAddr: 0x5F54, symBinAddr: 0x22DEC, symSize: 0x4 }
  - { offset: 0x12809B, size: 0x8, addend: 0x0, symName: __ZN13llama_context14state_get_dataEPhm, symObjAddr: 0x5F58, symBinAddr: 0x22DF0, symSize: 0xA4 }
  - { offset: 0x128199, size: 0x8, addend: 0x0, symName: __ZN21llama_io_write_bufferD1Ev, symObjAddr: 0x5FFC, symBinAddr: 0x22E94, symSize: 0x4 }
  - { offset: 0x128309, size: 0x8, addend: 0x0, symName: __ZN13llama_context14state_set_dataEPKhm, symObjAddr: 0x6000, symBinAddr: 0x22E98, symSize: 0xA4 }
  - { offset: 0x128407, size: 0x8, addend: 0x0, symName: __ZN13llama_context15state_read_dataER15llama_io_read_i, symObjAddr: 0x60A4, symBinAddr: 0x22F3C, symSize: 0x570 }
  - { offset: 0x1297B0, size: 0x8, addend: 0x0, symName: __ZN20llama_io_read_bufferD1Ev, symObjAddr: 0x6614, symBinAddr: 0x234AC, symSize: 0x4 }
  - { offset: 0x129819, size: 0x8, addend: 0x0, symName: __ZN13llama_context18state_seq_get_sizeEij, symObjAddr: 0x6618, symBinAddr: 0x234B0, symSize: 0xC8 }
  - { offset: 0x12994E, size: 0x8, addend: 0x0, symName: __ZN13llama_context20state_seq_write_dataER16llama_io_write_iij, symObjAddr: 0x66E0, symBinAddr: 0x23578, symSize: 0x40 }
  - { offset: 0x1299CA, size: 0x8, addend: 0x0, symName: __ZN13llama_context18state_seq_get_dataEiPhmj, symObjAddr: 0x6720, symBinAddr: 0x235B8, symSize: 0xD4 }
  - { offset: 0x129B78, size: 0x8, addend: 0x0, symName: __ZN13llama_context18state_seq_set_dataEiPKhmj, symObjAddr: 0x67F4, symBinAddr: 0x2368C, symSize: 0xD4 }
  - { offset: 0x129CE9, size: 0x8, addend: 0x0, symName: __ZN13llama_context19state_seq_read_dataER15llama_io_read_iij, symObjAddr: 0x68C8, symBinAddr: 0x23760, symSize: 0x40 }
  - { offset: 0x12A0FE, size: 0x8, addend: 0x0, symName: __ZN13llama_context15state_load_fileEPKcPimPm, symObjAddr: 0x6908, symBinAddr: 0x237A0, symSize: 0x1D0 }
  - { offset: 0x12A5D6, size: 0x8, addend: 0x0, symName: __ZN18llama_io_read_fileD1Ev, symObjAddr: 0x6AD8, symBinAddr: 0x23970, symSize: 0x44 }
  - { offset: 0x12A5FA, size: 0x8, addend: 0x0, symName: __ZN18llama_io_read_fileD1Ev, symObjAddr: 0x6AD8, symBinAddr: 0x23970, symSize: 0x44 }
  - { offset: 0x12A8CA, size: 0x8, addend: 0x0, symName: __ZN13llama_context15state_save_fileEPKcPKim, symObjAddr: 0x6B1C, symBinAddr: 0x239B4, symSize: 0x104 }
  - { offset: 0x12ACE4, size: 0x8, addend: 0x0, symName: __ZN19llama_io_write_fileD1Ev, symObjAddr: 0x6C20, symBinAddr: 0x23AB8, symSize: 0x44 }
  - { offset: 0x12AD08, size: 0x8, addend: 0x0, symName: __ZN19llama_io_write_fileD1Ev, symObjAddr: 0x6C20, symBinAddr: 0x23AB8, symSize: 0x44 }
  - { offset: 0x12AE71, size: 0x8, addend: 0x0, symName: __ZN13llama_context19state_seq_load_fileEiPKcPimPm, symObjAddr: 0x6C64, symBinAddr: 0x23AFC, symSize: 0x278 }
  - { offset: 0x12B3D8, size: 0x8, addend: 0x0, symName: __ZN13llama_context19state_seq_save_fileEiPKcPKim, symObjAddr: 0x6EDC, symBinAddr: 0x23D74, symSize: 0x198 }
  - { offset: 0x12B8B1, size: 0x8, addend: 0x0, symName: __ZN19llama_io_write_file7n_bytesEv, symObjAddr: 0x7074, symBinAddr: 0x23F0C, symSize: 0x8 }
  - { offset: 0x12B8D3, size: 0x8, addend: 0x0, symName: __ZNK13llama_context13perf_get_dataEv, symObjAddr: 0x707C, symBinAddr: 0x23F14, symSize: 0x50 }
  - { offset: 0x12B9B7, size: 0x8, addend: 0x0, symName: __ZN13llama_context10perf_resetEv, symObjAddr: 0x70CC, symBinAddr: 0x23F64, symSize: 0x34 }
  - { offset: 0x12C494, size: 0x8, addend: 0x0, symName: __ZNK13llama_context16memory_breakdownEv, symObjAddr: 0x7100, symBinAddr: 0x23F98, symSize: 0x408 }
  - { offset: 0x12D4EC, size: 0x8, addend: 0x0, symName: __ZNSt3__16__treeINS_12__value_typeIP24ggml_backend_buffer_typemEENS_19__map_value_compareIS3_S4_NS_4lessIS3_EELb1EEENS_9allocatorIS4_EEE7destroyEPNS_11__tree_nodeIS4_PvEE, symObjAddr: 0xCC60, symBinAddr: 0x29380, symSize: 0x44 }
  - { offset: 0x12D63F, size: 0x8, addend: 0x0, symName: __ZNSt3__16__treeINS_12__value_typeIP24ggml_backend_buffer_type27llama_memory_breakdown_dataEENS_19__map_value_compareIS3_S5_NS_4lessIS3_EELb1EEENS_9allocatorIS5_EEE7destroyEPNS_11__tree_nodeIS5_PvEE, symObjAddr: 0xCC1C, symBinAddr: 0x2933C, symSize: 0x44 }
  - { offset: 0x12D814, size: 0x8, addend: 0x0, symName: __ZN13llama_context8opt_initEP11llama_model16llama_opt_params, symObjAddr: 0x7508, symBinAddr: 0x243A0, symSize: 0x5F8 }
  - { offset: 0x12E14E, size: 0x8, addend: 0x0, symName: __ZN13llama_context14opt_epoch_iterEP16ggml_opt_datasetP15ggml_opt_resultRKNSt3__16vectorIiNS4_9allocatorIiEEEESA_R11llama_batchPFvbP16ggml_opt_contextS1_S3_xxxEbxxx, symObjAddr: 0x7B00, symBinAddr: 0x24998, symSize: 0x72C }
  - { offset: 0x12E281, size: 0x8, addend: 0x0, symName: __ZN13llama_context14opt_epoch_iterEP16ggml_opt_datasetP15ggml_opt_resultRKNSt3__16vectorIiNS4_9allocatorIiEEEESA_R11llama_batchPFvbP16ggml_opt_contextS1_S3_xxxEbxxx, symObjAddr: 0x7B00, symBinAddr: 0x24998, symSize: 0x72C }
  - { offset: 0x12F1CD, size: 0x8, addend: 0x0, symName: __ZN13llama_context9opt_epochEP16ggml_opt_datasetP15ggml_opt_resultS3_xPFvbP16ggml_opt_contextS1_S3_xxxES7_, symObjAddr: 0x822C, symBinAddr: 0x250C4, symSize: 0x2F8 }
  - { offset: 0x12FDB9, size: 0x8, addend: 0x0, symName: _llama_context_default_params, symObjAddr: 0x8524, symBinAddr: 0x253BC, symSize: 0x34 }
  - { offset: 0x12FE17, size: 0x8, addend: 0x0, symName: _llama_init_from_model, symObjAddr: 0x8558, symBinAddr: 0x253F0, symSize: 0x2D0 }
  - { offset: 0x12FFDB, size: 0x8, addend: 0x0, symName: _llama_new_context_with_model, symObjAddr: 0x8828, symBinAddr: 0x256C0, symSize: 0x48 }
  - { offset: 0x13004F, size: 0x8, addend: 0x0, symName: _llama_free, symObjAddr: 0x8870, symBinAddr: 0x25708, symSize: 0x1C }
  - { offset: 0x1300A0, size: 0x8, addend: 0x0, symName: _llama_n_ctx, symObjAddr: 0x888C, symBinAddr: 0x25724, symSize: 0x8 }
  - { offset: 0x1300CE, size: 0x8, addend: 0x0, symName: _llama_n_ctx, symObjAddr: 0x888C, symBinAddr: 0x25724, symSize: 0x8 }
  - { offset: 0x130102, size: 0x8, addend: 0x0, symName: _llama_n_ctx_seq, symObjAddr: 0x8894, symBinAddr: 0x2572C, symSize: 0x8 }
  - { offset: 0x130130, size: 0x8, addend: 0x0, symName: _llama_n_ctx_seq, symObjAddr: 0x8894, symBinAddr: 0x2572C, symSize: 0x8 }
  - { offset: 0x13014B, size: 0x8, addend: 0x0, symName: _llama_n_batch, symObjAddr: 0x889C, symBinAddr: 0x25734, symSize: 0x8 }
  - { offset: 0x130179, size: 0x8, addend: 0x0, symName: _llama_n_batch, symObjAddr: 0x889C, symBinAddr: 0x25734, symSize: 0x8 }
  - { offset: 0x1301AD, size: 0x8, addend: 0x0, symName: _llama_n_ubatch, symObjAddr: 0x88A4, symBinAddr: 0x2573C, symSize: 0x8 }
  - { offset: 0x1301DB, size: 0x8, addend: 0x0, symName: _llama_n_ubatch, symObjAddr: 0x88A4, symBinAddr: 0x2573C, symSize: 0x8 }
  - { offset: 0x1301F6, size: 0x8, addend: 0x0, symName: _llama_n_seq_max, symObjAddr: 0x88AC, symBinAddr: 0x25744, symSize: 0x8 }
  - { offset: 0x130224, size: 0x8, addend: 0x0, symName: _llama_n_seq_max, symObjAddr: 0x88AC, symBinAddr: 0x25744, symSize: 0x8 }
  - { offset: 0x130258, size: 0x8, addend: 0x0, symName: _llama_get_model, symObjAddr: 0x88B4, symBinAddr: 0x2574C, symSize: 0x8 }
  - { offset: 0x130286, size: 0x8, addend: 0x0, symName: _llama_get_model, symObjAddr: 0x88B4, symBinAddr: 0x2574C, symSize: 0x8 }
  - { offset: 0x1302BA, size: 0x8, addend: 0x0, symName: _llama_pooling_type, symObjAddr: 0x88BC, symBinAddr: 0x25754, symSize: 0x8 }
  - { offset: 0x1302E8, size: 0x8, addend: 0x0, symName: _llama_pooling_type, symObjAddr: 0x88BC, symBinAddr: 0x25754, symSize: 0x8 }
  - { offset: 0x130334, size: 0x8, addend: 0x0, symName: _llama_attach_threadpool, symObjAddr: 0x88C4, symBinAddr: 0x2575C, symSize: 0x5C }
  - { offset: 0x1303D3, size: 0x8, addend: 0x0, symName: _llama_detach_threadpool, symObjAddr: 0x8920, symBinAddr: 0x257B8, symSize: 0x44 }
  - { offset: 0x13045C, size: 0x8, addend: 0x0, symName: _llama_set_n_threads, symObjAddr: 0x8964, symBinAddr: 0x257FC, symSize: 0x58 }
  - { offset: 0x1304FB, size: 0x8, addend: 0x0, symName: _llama_n_threads, symObjAddr: 0x89BC, symBinAddr: 0x25854, symSize: 0x8 }
  - { offset: 0x130529, size: 0x8, addend: 0x0, symName: _llama_n_threads, symObjAddr: 0x89BC, symBinAddr: 0x25854, symSize: 0x8 }
  - { offset: 0x13055D, size: 0x8, addend: 0x0, symName: _llama_n_threads_batch, symObjAddr: 0x89C4, symBinAddr: 0x2585C, symSize: 0x8 }
  - { offset: 0x13058B, size: 0x8, addend: 0x0, symName: _llama_n_threads_batch, symObjAddr: 0x89C4, symBinAddr: 0x2585C, symSize: 0x8 }
  - { offset: 0x1305CB, size: 0x8, addend: 0x0, symName: _llama_set_embeddings, symObjAddr: 0x89CC, symBinAddr: 0x25864, symSize: 0x48 }
  - { offset: 0x130658, size: 0x8, addend: 0x0, symName: _llama_set_causal_attn, symObjAddr: 0x8A14, symBinAddr: 0x258AC, symSize: 0x48 }
  - { offset: 0x1306E5, size: 0x8, addend: 0x0, symName: _llama_set_warmup, symObjAddr: 0x8A5C, symBinAddr: 0x258F4, symSize: 0x48 }
  - { offset: 0x13074D, size: 0x8, addend: 0x0, symName: _llama_synchronize, symObjAddr: 0x8AA4, symBinAddr: 0x2593C, symSize: 0x4 }
  - { offset: 0x130776, size: 0x8, addend: 0x0, symName: _llama_synchronize, symObjAddr: 0x8AA4, symBinAddr: 0x2593C, symSize: 0x4 }
  - { offset: 0x1307A2, size: 0x8, addend: 0x0, symName: _llama_get_logits, symObjAddr: 0x8AA8, symBinAddr: 0x25940, symSize: 0x2C }
  - { offset: 0x130814, size: 0x8, addend: 0x0, symName: _llama_get_logits_ith, symObjAddr: 0x8AD4, symBinAddr: 0x2596C, symSize: 0x2C }
  - { offset: 0x13088C, size: 0x8, addend: 0x0, symName: _llama_get_embeddings, symObjAddr: 0x8B00, symBinAddr: 0x25998, symSize: 0x2C }
  - { offset: 0x1308FE, size: 0x8, addend: 0x0, symName: _llama_get_embeddings_ith, symObjAddr: 0x8B2C, symBinAddr: 0x259C4, symSize: 0x2C }
  - { offset: 0x13098E, size: 0x8, addend: 0x0, symName: _llama_get_embeddings_seq, symObjAddr: 0x8B58, symBinAddr: 0x259F0, symSize: 0x74 }
  - { offset: 0x130B64, size: 0x8, addend: 0x0, symName: _llama_set_adapter_lora, symObjAddr: 0x8BCC, symBinAddr: 0x25A64, symSize: 0x84 }
  - { offset: 0x130C60, size: 0x8, addend: 0x0, symName: _llama_rm_adapter_lora, symObjAddr: 0x8C50, symBinAddr: 0x25AE8, symSize: 0x80 }
  - { offset: 0x130EE1, size: 0x8, addend: 0x0, symName: _llama_clear_adapter_lora, symObjAddr: 0x8CD0, symBinAddr: 0x25B68, symSize: 0x88 }
  - { offset: 0x131190, size: 0x8, addend: 0x0, symName: _llama_apply_adapter_cvec, symObjAddr: 0x8D58, symBinAddr: 0x25BF0, symSize: 0x8C }
  - { offset: 0x131290, size: 0x8, addend: 0x0, symName: _llama_get_memory, symObjAddr: 0x8DE4, symBinAddr: 0x25C7C, symSize: 0x8 }
  - { offset: 0x1312BE, size: 0x8, addend: 0x0, symName: _llama_get_memory, symObjAddr: 0x8DE4, symBinAddr: 0x25C7C, symSize: 0x8 }
  - { offset: 0x1312DA, size: 0x8, addend: 0x0, symName: _llama_get_memory, symObjAddr: 0x8DE4, symBinAddr: 0x25C7C, symSize: 0x8 }
  - { offset: 0x1312F9, size: 0x8, addend: 0x0, symName: _llama_memory_clear, symObjAddr: 0x8DEC, symBinAddr: 0x25C84, symSize: 0x14 }
  - { offset: 0x13133E, size: 0x8, addend: 0x0, symName: _llama_memory_seq_rm, symObjAddr: 0x8E00, symBinAddr: 0x25C98, symSize: 0x18 }
  - { offset: 0x1313A0, size: 0x8, addend: 0x0, symName: _llama_memory_seq_cp, symObjAddr: 0x8E18, symBinAddr: 0x25CB0, symSize: 0x14 }
  - { offset: 0x13140A, size: 0x8, addend: 0x0, symName: _llama_memory_seq_keep, symObjAddr: 0x8E2C, symBinAddr: 0x25CC4, symSize: 0x14 }
  - { offset: 0x13144A, size: 0x8, addend: 0x0, symName: _llama_memory_seq_add, symObjAddr: 0x8E40, symBinAddr: 0x25CD8, symSize: 0x14 }
  - { offset: 0x1314B4, size: 0x8, addend: 0x0, symName: _llama_memory_seq_div, symObjAddr: 0x8E54, symBinAddr: 0x25CEC, symSize: 0x14 }
  - { offset: 0x13151E, size: 0x8, addend: 0x0, symName: _llama_memory_seq_pos_min, symObjAddr: 0x8E68, symBinAddr: 0x25D00, symSize: 0x18 }
  - { offset: 0x131564, size: 0x8, addend: 0x0, symName: _llama_memory_seq_pos_max, symObjAddr: 0x8E80, symBinAddr: 0x25D18, symSize: 0x18 }
  - { offset: 0x1315AA, size: 0x8, addend: 0x0, symName: _llama_memory_can_shift, symObjAddr: 0x8E98, symBinAddr: 0x25D30, symSize: 0x14 }
  - { offset: 0x1315FB, size: 0x8, addend: 0x0, symName: _llama_get_state_size, symObjAddr: 0x8EAC, symBinAddr: 0x25D44, symSize: 0x4 }
  - { offset: 0x131627, size: 0x8, addend: 0x0, symName: _llama_get_state_size, symObjAddr: 0x8EAC, symBinAddr: 0x25D44, symSize: 0x4 }
  - { offset: 0x131645, size: 0x8, addend: 0x0, symName: _llama_get_state_size, symObjAddr: 0x8EAC, symBinAddr: 0x25D44, symSize: 0x4 }
  - { offset: 0x131658, size: 0x8, addend: 0x0, symName: _llama_state_get_size, symObjAddr: 0x8EB0, symBinAddr: 0x25D48, symSize: 0x4 }
  - { offset: 0x131677, size: 0x8, addend: 0x0, symName: _llama_state_get_size, symObjAddr: 0x8EB0, symBinAddr: 0x25D48, symSize: 0x4 }
  - { offset: 0x1316BD, size: 0x8, addend: 0x0, symName: _llama_copy_state_data, symObjAddr: 0x8EB4, symBinAddr: 0x25D4C, symSize: 0x30 }
  - { offset: 0x131754, size: 0x8, addend: 0x0, symName: _llama_state_get_data, symObjAddr: 0x8EE4, symBinAddr: 0x25D7C, symSize: 0x3C }
  - { offset: 0x1317DA, size: 0x8, addend: 0x0, symName: _llama_set_state_data, symObjAddr: 0x8F20, symBinAddr: 0x25DB8, symSize: 0x30 }
  - { offset: 0x131871, size: 0x8, addend: 0x0, symName: _llama_state_set_data, symObjAddr: 0x8F50, symBinAddr: 0x25DE8, symSize: 0x3C }
  - { offset: 0x1318C4, size: 0x8, addend: 0x0, symName: _llama_load_session_file, symObjAddr: 0x8F8C, symBinAddr: 0x25E24, symSize: 0x4 }
  - { offset: 0x131929, size: 0x8, addend: 0x0, symName: _llama_load_session_file, symObjAddr: 0x8F8C, symBinAddr: 0x25E24, symSize: 0x4 }
  - { offset: 0x131958, size: 0x8, addend: 0x0, symName: _llama_state_load_file, symObjAddr: 0x8F90, symBinAddr: 0x25E28, symSize: 0xD0 }
  - { offset: 0x131A34, size: 0x8, addend: 0x0, symName: _llama_save_session_file, symObjAddr: 0x9060, symBinAddr: 0x25EF8, symSize: 0x4 }
  - { offset: 0x131A8B, size: 0x8, addend: 0x0, symName: _llama_save_session_file, symObjAddr: 0x9060, symBinAddr: 0x25EF8, symSize: 0x4 }
  - { offset: 0x131AB3, size: 0x8, addend: 0x0, symName: _llama_state_save_file, symObjAddr: 0x9064, symBinAddr: 0x25EFC, symSize: 0xC0 }
  - { offset: 0x131BAC, size: 0x8, addend: 0x0, symName: _llama_state_seq_get_size, symObjAddr: 0x9124, symBinAddr: 0x25FBC, symSize: 0x8 }
  - { offset: 0x131BE6, size: 0x8, addend: 0x0, symName: _llama_state_seq_get_size, symObjAddr: 0x9124, symBinAddr: 0x25FBC, symSize: 0x8 }
  - { offset: 0x131C31, size: 0x8, addend: 0x0, symName: _llama_state_seq_get_size_ext, symObjAddr: 0x912C, symBinAddr: 0x25FC4, symSize: 0x4 }
  - { offset: 0x131C5E, size: 0x8, addend: 0x0, symName: _llama_state_seq_get_size_ext, symObjAddr: 0x912C, symBinAddr: 0x25FC4, symSize: 0x4 }
  - { offset: 0x131CCA, size: 0x8, addend: 0x0, symName: _llama_state_seq_get_data, symObjAddr: 0x9130, symBinAddr: 0x25FC8, symSize: 0x48 }
  - { offset: 0x131D90, size: 0x8, addend: 0x0, symName: _llama_state_seq_get_data_ext, symObjAddr: 0x9178, symBinAddr: 0x26010, symSize: 0x54 }
  - { offset: 0x131E40, size: 0x8, addend: 0x0, symName: _llama_state_seq_set_data, symObjAddr: 0x91CC, symBinAddr: 0x26064, symSize: 0x48 }
  - { offset: 0x131F06, size: 0x8, addend: 0x0, symName: _llama_state_seq_set_data_ext, symObjAddr: 0x9214, symBinAddr: 0x260AC, symSize: 0x54 }
  - { offset: 0x131F6B, size: 0x8, addend: 0x0, symName: _llama_state_seq_save_file, symObjAddr: 0x9268, symBinAddr: 0x26100, symSize: 0xD0 }
  - { offset: 0x132047, size: 0x8, addend: 0x0, symName: _llama_state_seq_load_file, symObjAddr: 0x9338, symBinAddr: 0x261D0, symSize: 0xD8 }
  - { offset: 0x132139, size: 0x8, addend: 0x0, symName: _llama_encode, symObjAddr: 0x9410, symBinAddr: 0x262A8, symSize: 0x4C }
  - { offset: 0x1321B4, size: 0x8, addend: 0x0, symName: _llama_decode, symObjAddr: 0x945C, symBinAddr: 0x262F4, symSize: 0x50 }
  - { offset: 0x132254, size: 0x8, addend: 0x0, symName: _llama_perf_context, symObjAddr: 0x94AC, symBinAddr: 0x26344, symSize: 0x5C }
  - { offset: 0x132379, size: 0x8, addend: 0x0, symName: _llama_perf_context_print, symObjAddr: 0x9508, symBinAddr: 0x263A0, symSize: 0x198 }
  - { offset: 0x13254F, size: 0x8, addend: 0x0, symName: _llama_perf_context_reset, symObjAddr: 0x96A0, symBinAddr: 0x26538, symSize: 0x34 }
  - { offset: 0x1336C3, size: 0x8, addend: 0x0, symName: _llama_memory_breakdown_print, symObjAddr: 0x96D4, symBinAddr: 0x2656C, symSize: 0x1A2C }
  - { offset: 0x13A499, size: 0x8, addend: 0x0, symName: __ZNSt3__16vectorINS_12basic_stringIcNS_11char_traitsIcEENS_9allocatorIcEEEENS4_IS6_EEEC2B8ne190102ESt16initializer_listIS6_E, symObjAddr: 0xCF18, symBinAddr: 0x295AC, symSize: 0x12C }
  - { offset: 0x13A4AA, size: 0x8, addend: 0x0, symName: __ZNSt3__16vectorINS_5arrayINS_12basic_stringIcNS_11char_traitsIcEENS_9allocatorIcEEEELm9EEENS5_IS8_EEE21__push_back_slow_pathIS8_EEPS8_OT_, symObjAddr: 0xCCB8, symBinAddr: 0x293D8, symSize: 0x1D4 }
  - { offset: 0x13A886, size: 0x8, addend: 0x0, symName: __ZNSt3__15arrayINS_12basic_stringIcNS_11char_traitsIcEENS_9allocatorIcEEEELm9EED2Ev, symObjAddr: 0xBA98, symBinAddr: 0x2883C, symSize: 0x100 }
  - { offset: 0x13A99B, size: 0x8, addend: 0x0, symName: __ZNSt3__16vectorINS_12basic_stringIcNS_11char_traitsIcEENS_9allocatorIcEEEENS4_IS6_EEEC2B8ne190102ESt16initializer_listIS6_E, symObjAddr: 0xCF18, symBinAddr: 0x295AC, symSize: 0x12C }
  - { offset: 0x13AD73, size: 0x8, addend: 0x0, symName: __ZNSt3__16__treeIP24ggml_backend_buffer_typeNS_4lessIS2_EENS_9allocatorIS2_EEE7destroyEPNS_11__tree_nodeIS2_PvEE, symObjAddr: 0xD134, symBinAddr: 0x297C8, symSize: 0x44 }
  - { offset: 0x13AED1, size: 0x8, addend: 0x0, symName: __ZNKSt3__16vectorINS_5arrayINS_12basic_stringIcNS_11char_traitsIcEENS_9allocatorIcEEEELm9EEENS5_IS8_EEE20__throw_length_errorB8ne190102Ev, symObjAddr: 0xCCA4, symBinAddr: 0x293C4, symSize: 0x14 }
  - { offset: 0x13AEFB, size: 0x8, addend: 0x0, symName: __ZNSt3__16vectorINS_5arrayINS_12basic_stringIcNS_11char_traitsIcEENS_9allocatorIcEEEELm9EEENS5_IS8_EEE21__push_back_slow_pathIS8_EEPS8_OT_, symObjAddr: 0xCCB8, symBinAddr: 0x293D8, symSize: 0x1D4 }
  - { offset: 0x13AF06, size: 0x8, addend: 0x0, symName: __ZNKSt3__16vectorI27llama_memory_breakdown_dataNS_9allocatorIS1_EEE20__throw_length_errorB8ne190102Ev, symObjAddr: 0xD178, symBinAddr: 0x2980C, symSize: 0x14 }
  - { offset: 0x13AF3B, size: 0x8, addend: 0x0, symName: __ZNSt3__16vectorINS_12basic_stringIcNS_11char_traitsIcEENS_9allocatorIcEEEENS4_IS6_EEED1B8ne190102Ev, symObjAddr: 0xB100, symBinAddr: 0x27F98, symSize: 0x70 }
  - { offset: 0x13B1B5, size: 0x8, addend: 0x0, symName: __ZNSt3__16vectorINS_5arrayINS_12basic_stringIcNS_11char_traitsIcEENS_9allocatorIcEEEELm9EEENS5_IS8_EEED1B8ne190102Ev, symObjAddr: 0xB170, symBinAddr: 0x28008, symSize: 0x58 }
  - { offset: 0x13B357, size: 0x8, addend: 0x0, symName: _llama_opt_param_filter_all, symObjAddr: 0xB1C8, symBinAddr: 0x28060, symSize: 0x8 }
  - { offset: 0x13B391, size: 0x8, addend: 0x0, symName: _llama_opt_init, symObjAddr: 0xB1D0, symBinAddr: 0x28068, symSize: 0x30 }
  - { offset: 0x13B3FB, size: 0x8, addend: 0x0, symName: _llama_opt_epoch, symObjAddr: 0xB200, symBinAddr: 0x28098, symSize: 0x4 }
  - { offset: 0x13B478, size: 0x8, addend: 0x0, symName: _llama_opt_epoch, symObjAddr: 0xB200, symBinAddr: 0x28098, symSize: 0x4 }
  - { offset: 0x13C053, size: 0x8, addend: 0x0, symName: __ZN20llama_io_write_dummyD0Ev, symObjAddr: 0xB484, symBinAddr: 0x282D8, symSize: 0x4 }
  - { offset: 0x13C07F, size: 0x8, addend: 0x0, symName: __ZN20llama_io_write_dummy5writeEPKvm, symObjAddr: 0xB488, symBinAddr: 0x282DC, symSize: 0x10 }
  - { offset: 0x13C0BD, size: 0x8, addend: 0x0, symName: __ZN20llama_io_write_dummy12write_tensorEPK11ggml_tensormm, symObjAddr: 0xB498, symBinAddr: 0x282EC, symSize: 0x10 }
  - { offset: 0x13C106, size: 0x8, addend: 0x0, symName: __ZN20llama_io_write_dummy7n_bytesEv, symObjAddr: 0xB4A8, symBinAddr: 0x282FC, symSize: 0x8 }
  - { offset: 0x13C12D, size: 0x8, addend: 0x0, symName: __ZN21llama_io_write_bufferD0Ev, symObjAddr: 0xB4B0, symBinAddr: 0x28304, symSize: 0x4 }
  - { offset: 0x13C159, size: 0x8, addend: 0x0, symName: __ZN21llama_io_write_buffer5writeEPKvm, symObjAddr: 0xB4B4, symBinAddr: 0x28308, symSize: 0x94 }
  - { offset: 0x13C1A0, size: 0x8, addend: 0x0, symName: __ZN21llama_io_write_buffer12write_tensorEPK11ggml_tensormm, symObjAddr: 0xB548, symBinAddr: 0x2839C, symSize: 0x9C }
  - { offset: 0x13C221, size: 0x8, addend: 0x0, symName: __ZN21llama_io_write_buffer7n_bytesEv, symObjAddr: 0xB5E4, symBinAddr: 0x28438, symSize: 0x8 }
  - { offset: 0x13C248, size: 0x8, addend: 0x0, symName: __ZN20llama_io_read_bufferD0Ev, symObjAddr: 0xB5EC, symBinAddr: 0x28440, symSize: 0x4 }
  - { offset: 0x13C274, size: 0x8, addend: 0x0, symName: __ZN20llama_io_read_buffer4readEm, symObjAddr: 0xB5F0, symBinAddr: 0x28444, symSize: 0x84 }
  - { offset: 0x13C2BB, size: 0x8, addend: 0x0, symName: __ZN20llama_io_read_buffer7read_toEPvm, symObjAddr: 0xB674, symBinAddr: 0x284C8, symSize: 0x3C }
  - { offset: 0x13C31D, size: 0x8, addend: 0x0, symName: __ZN20llama_io_read_buffer7n_bytesEv, symObjAddr: 0xB6B0, symBinAddr: 0x28504, symSize: 0x8 }
  - { offset: 0x13C344, size: 0x8, addend: 0x0, symName: __ZN18llama_io_read_fileD0Ev, symObjAddr: 0xB6B8, symBinAddr: 0x2850C, symSize: 0x44 }
  - { offset: 0x13C374, size: 0x8, addend: 0x0, symName: __ZN18llama_io_read_fileD0Ev, symObjAddr: 0xB6B8, symBinAddr: 0x2850C, symSize: 0x44 }
  - { offset: 0x13C392, size: 0x8, addend: 0x0, symName: __ZN18llama_io_read_fileD0Ev, symObjAddr: 0xB6B8, symBinAddr: 0x2850C, symSize: 0x44 }
  - { offset: 0x13C932, size: 0x8, addend: 0x0, symName: __ZN18llama_io_read_file4readEm, symObjAddr: 0xB6FC, symBinAddr: 0x28550, symSize: 0x108 }
  - { offset: 0x13CE1E, size: 0x8, addend: 0x0, symName: __ZN18llama_io_read_file7read_toEPvm, symObjAddr: 0xB804, symBinAddr: 0x28658, symSize: 0x34 }
  - { offset: 0x13CE4C, size: 0x8, addend: 0x0, symName: __ZN18llama_io_read_file7read_toEPvm, symObjAddr: 0xB804, symBinAddr: 0x28658, symSize: 0x34 }
  - { offset: 0x13CE93, size: 0x8, addend: 0x0, symName: __ZN18llama_io_read_file7n_bytesEv, symObjAddr: 0xB838, symBinAddr: 0x2868C, symSize: 0x8 }
  - { offset: 0x13CF1E, size: 0x8, addend: 0x0, symName: __ZN19llama_io_write_fileD0Ev, symObjAddr: 0xB8F0, symBinAddr: 0x28694, symSize: 0x44 }
  - { offset: 0x13CF4E, size: 0x8, addend: 0x0, symName: __ZN19llama_io_write_fileD0Ev, symObjAddr: 0xB8F0, symBinAddr: 0x28694, symSize: 0x44 }
  - { offset: 0x13CF6C, size: 0x8, addend: 0x0, symName: __ZN19llama_io_write_fileD0Ev, symObjAddr: 0xB8F0, symBinAddr: 0x28694, symSize: 0x44 }
  - { offset: 0x13D0D6, size: 0x8, addend: 0x0, symName: __ZN19llama_io_write_file5writeEPKvm, symObjAddr: 0xB934, symBinAddr: 0x286D8, symSize: 0x34 }
  - { offset: 0x13D11D, size: 0x8, addend: 0x0, symName: __ZN19llama_io_write_file12write_tensorEPK11ggml_tensormm, symObjAddr: 0xB968, symBinAddr: 0x2870C, symSize: 0x130 }
  - { offset: 0x13D657, size: 0x8, addend: 0x0, symName: __ZNSt3__15arrayINS_12basic_stringIcNS_11char_traitsIcEENS_9allocatorIcEEEELm9EED2Ev, symObjAddr: 0xBA98, symBinAddr: 0x2883C, symSize: 0x100 }
  - { offset: 0x13DCE1, size: 0x8, addend: 0x0, symName: __ZNSt3__112__hash_tableINS_17__hash_value_typeIP18llama_adapter_lorafEENS_22__unordered_map_hasherIS3_S4_NS_4hashIS3_EENS_8equal_toIS3_EELb1EEENS_21__unordered_map_equalIS3_S4_S9_S7_Lb1EEENS_9allocatorIS4_EEE11__do_rehashILb1EEEvm, symObjAddr: 0xBFB0, symBinAddr: 0x28D2C, symSize: 0x1A0 }
  - { offset: 0x13E13F, size: 0x8, addend: 0x0, symName: __ZNSt3__112__hash_tableINS_17__hash_value_typeIP18llama_adapter_lorafEENS_22__unordered_map_hasherIS3_S4_NS_4hashIS3_EENS_8equal_toIS3_EELb1EEENS_21__unordered_map_equalIS3_S4_S9_S7_Lb1EEENS_9allocatorIS4_EEE4findIS3_EENS_15__hash_iteratorIPNS_11__hash_nodeIS4_PvEEEERKT_, symObjAddr: 0xC150, symBinAddr: 0x28ECC, symSize: 0x110 }
  - { offset: 0x13EB81, size: 0x8, addend: 0x0, symName: __ZNKSt3__16vectorIN13llama_context9swap_infoENS_9allocatorIS2_EEE20__throw_length_errorB8ne190102Ev, symObjAddr: 0xC8B8, symBinAddr: 0x29110, symSize: 0x14 }
  - { offset: 0x13ED1F, size: 0x8, addend: 0x0, symName: '__ZNSt3__110__function6__funcIZNK13llama_context12graph_get_cbEvE3$_0NS_9allocatorIS3_EEFvRK12llama_ubatchP11ggml_tensorPKciEED1Ev', symObjAddr: 0xCA04, symBinAddr: 0x29124, symSize: 0x4 }
  - { offset: 0x13ED2A, size: 0x8, addend: 0x0, symName: '__ZNSt3__110__function6__funcIZNK13llama_context12graph_get_cbEvE3$_0NS_9allocatorIS3_EEFvRK12llama_ubatchP11ggml_tensorPKciEED1Ev', symObjAddr: 0xCA04, symBinAddr: 0x29124, symSize: 0x4 }
  - { offset: 0x13ED55, size: 0x8, addend: 0x0, symName: '__ZNSt3__110__function6__funcIZNK13llama_context12graph_get_cbEvE3$_0NS_9allocatorIS3_EEFvRK12llama_ubatchP11ggml_tensorPKciEED0Ev', symObjAddr: 0xCA08, symBinAddr: 0x29128, symSize: 0x4 }
  - { offset: 0x13EE0A, size: 0x8, addend: 0x0, symName: '__ZNKSt3__110__function6__funcIZNK13llama_context12graph_get_cbEvE3$_0NS_9allocatorIS3_EEFvRK12llama_ubatchP11ggml_tensorPKciEE7__cloneEv', symObjAddr: 0xCA0C, symBinAddr: 0x2912C, symSize: 0x34 }
  - { offset: 0x13EF56, size: 0x8, addend: 0x0, symName: '__ZNKSt3__110__function6__funcIZNK13llama_context12graph_get_cbEvE3$_0NS_9allocatorIS3_EEFvRK12llama_ubatchP11ggml_tensorPKciEE7__cloneEPNS0_6__baseISD_EE', symObjAddr: 0xCA40, symBinAddr: 0x29160, symSize: 0x14 }
  - { offset: 0x13EFC3, size: 0x8, addend: 0x0, symName: '__ZNSt3__110__function6__funcIZNK13llama_context12graph_get_cbEvE3$_0NS_9allocatorIS3_EEFvRK12llama_ubatchP11ggml_tensorPKciEE7destroyEv', symObjAddr: 0xCA54, symBinAddr: 0x29174, symSize: 0x4 }
  - { offset: 0x13F012, size: 0x8, addend: 0x0, symName: '__ZNSt3__110__function6__funcIZNK13llama_context12graph_get_cbEvE3$_0NS_9allocatorIS3_EEFvRK12llama_ubatchP11ggml_tensorPKciEE18destroy_deallocateEv', symObjAddr: 0xCA58, symBinAddr: 0x29178, symSize: 0x4 }
  - { offset: 0x13F047, size: 0x8, addend: 0x0, symName: '__ZNSt3__110__function6__funcIZNK13llama_context12graph_get_cbEvE3$_0NS_9allocatorIS3_EEFvRK12llama_ubatchP11ggml_tensorPKciEE18destroy_deallocateEv', symObjAddr: 0xCA58, symBinAddr: 0x29178, symSize: 0x4 }
  - { offset: 0x13F06A, size: 0x8, addend: 0x0, symName: '__ZNSt3__110__function6__funcIZNK13llama_context12graph_get_cbEvE3$_0NS_9allocatorIS3_EEFvRK12llama_ubatchP11ggml_tensorPKciEE18destroy_deallocateEv', symObjAddr: 0xCA58, symBinAddr: 0x29178, symSize: 0x4 }
  - { offset: 0x13F096, size: 0x8, addend: 0x0, symName: '__ZNSt3__110__function6__funcIZNK13llama_context12graph_get_cbEvE3$_0NS_9allocatorIS3_EEFvRK12llama_ubatchP11ggml_tensorPKciEE18destroy_deallocateEv', symObjAddr: 0xCA58, symBinAddr: 0x29178, symSize: 0x4 }
  - { offset: 0x13F0BC, size: 0x8, addend: 0x0, symName: '__ZNSt3__110__function6__funcIZNK13llama_context12graph_get_cbEvE3$_0NS_9allocatorIS3_EEFvRK12llama_ubatchP11ggml_tensorPKciEE18destroy_deallocateEv', symObjAddr: 0xCA58, symBinAddr: 0x29178, symSize: 0x4 }
  - { offset: 0x13F227, size: 0x8, addend: 0x0, symName: '__ZNSt3__110__function6__funcIZNK13llama_context12graph_get_cbEvE3$_0NS_9allocatorIS3_EEFvRK12llama_ubatchP11ggml_tensorPKciEEclES8_OSA_OSC_Oi', symObjAddr: 0xCA5C, symBinAddr: 0x2917C, symSize: 0x150 }
  - { offset: 0x13F552, size: 0x8, addend: 0x0, symName: '__ZNKSt3__110__function6__funcIZNK13llama_context12graph_get_cbEvE3$_0NS_9allocatorIS3_EEFvRK12llama_ubatchP11ggml_tensorPKciEE6targetERKSt9type_info', symObjAddr: 0xCBAC, symBinAddr: 0x292CC, symSize: 0x64 }
  - { offset: 0x13F606, size: 0x8, addend: 0x0, symName: '__ZNKSt3__110__function6__funcIZNK13llama_context12graph_get_cbEvE3$_0NS_9allocatorIS3_EEFvRK12llama_ubatchP11ggml_tensorPKciEE11target_typeEv', symObjAddr: 0xCC10, symBinAddr: 0x29330, symSize: 0xC }
  - { offset: 0x13F975, size: 0x8, addend: 0x0, symName: __ZNKSt3__16vectorINS_12basic_stringIcNS_11char_traitsIcEENS_9allocatorIcEEEENS4_IS6_EEE20__throw_length_errorB8ne190102Ev, symObjAddr: 0xD0C4, symBinAddr: 0x29758, symSize: 0x14 }
  - { offset: 0x13F99F, size: 0x8, addend: 0x0, symName: __ZNSt3__128__exception_guard_exceptionsINS_29_AllocatorDestroyRangeReverseINS_9allocatorINS_12basic_stringIcNS_11char_traitsIcEENS2_IcEEEEEEPS7_EEED1B8ne190102Ev, symObjAddr: 0xD0D8, symBinAddr: 0x2976C, symSize: 0x5C }
  - { offset: 0x13F9AA, size: 0x8, addend: 0x0, symName: __ZNSt3__128__exception_guard_exceptionsINS_6vectorINS_12basic_stringIcNS_11char_traitsIcEENS_9allocatorIcEEEENS5_IS7_EEE16__destroy_vectorEED1B8ne190102Ev, symObjAddr: 0xD044, symBinAddr: 0x296D8, symSize: 0x80 }
  - { offset: 0x13FC32, size: 0x8, addend: 0x0, symName: __ZNSt3__128__exception_guard_exceptionsINS_29_AllocatorDestroyRangeReverseINS_9allocatorINS_12basic_stringIcNS_11char_traitsIcEENS2_IcEEEEEEPS7_EEED1B8ne190102Ev, symObjAddr: 0xD0D8, symBinAddr: 0x2976C, symSize: 0x5C }
  - { offset: 0x141FCA, size: 0x8, addend: 0x0, symName: _llama_max_parallel_sequences, symObjAddr: 0x0, symBinAddr: 0x29820, symSize: 0x8 }
  - { offset: 0x141FD8, size: 0x8, addend: 0x0, symName: _llama_max_parallel_sequences, symObjAddr: 0x0, symBinAddr: 0x29820, symSize: 0x8 }
  - { offset: 0x14212E, size: 0x8, addend: 0x0, symName: __ZN20llama_grammar_parser13get_symbol_idEPKcm, symObjAddr: 0x0, symBinAddr: 0x29828, symSize: 0x108 }
  - { offset: 0x169AA2, size: 0x8, addend: 0x0, symName: __ZNSt3__135__uninitialized_allocator_copy_implB8ne190102INS_9allocatorINS_6vectorI21llama_grammar_elementNS1_IS3_EEEEEEPS5_S7_S7_EET2_RT_T0_T1_S8_, symObjAddr: 0x12408, symBinAddr: 0x3B778, symSize: 0xFC }
  - { offset: 0x16A00F, size: 0x8, addend: 0x0, symName: __ZNSt3__135__uninitialized_allocator_copy_implB8ne190102INS_9allocatorINS_6vectorIPK21llama_grammar_elementNS1_IS5_EEEEEEPS7_S9_S9_EET2_RT_T0_T1_SA_, symObjAddr: 0x125F4, symBinAddr: 0x3B964, symSize: 0xFC }
  - { offset: 0x16B81A, size: 0x8, addend: 0x0, symName: __ZNSt3__134__uninitialized_allocator_relocateB8ne190102INS_9allocatorI29llama_grammar_trigger_patternEES2_EEvRT_PT0_S7_S7_, symObjAddr: 0x9700, symBinAddr: 0x32B94, symSize: 0xFC }
  - { offset: 0x16B875, size: 0x8, addend: 0x0, symName: __ZNSt3__134__uninitialized_allocator_relocateB8ne190102INS_9allocatorI29llama_grammar_trigger_patternEES2_EEvRT_PT0_S7_S7_, symObjAddr: 0x9700, symBinAddr: 0x32B94, symSize: 0xFC }
  - { offset: 0x16BD2F, size: 0x8, addend: 0x0, symName: __ZNSt3__119__throw_regex_errorB8ne190102ILNS_15regex_constants10error_typeE17EEEvv, symObjAddr: 0x9B88, symBinAddr: 0x3301C, symSize: 0x4C }
  - { offset: 0x16CA70, size: 0x8, addend: 0x0, symName: __ZNSt3__119__throw_regex_errorB8ne190102ILNS_15regex_constants10error_typeE14EEEvv, symObjAddr: 0xA4A0, symBinAddr: 0x33934, symSize: 0x4C }
  - { offset: 0x16CD53, size: 0x8, addend: 0x0, symName: __ZNSt3__119__throw_regex_errorB8ne190102ILNS_15regex_constants10error_typeE15EEEvv, symObjAddr: 0x117AC, symBinAddr: 0x3ABA8, symSize: 0x4C }
  - { offset: 0x16D0F4, size: 0x8, addend: 0x0, symName: __ZNSt3__119__throw_regex_errorB8ne190102ILNS_15regex_constants10error_typeE6EEEvv, symObjAddr: 0xB134, symBinAddr: 0x345C8, symSize: 0x4C }
  - { offset: 0x16D2A0, size: 0x8, addend: 0x0, symName: __ZNSt3__119__throw_regex_errorB8ne190102ILNS_15regex_constants10error_typeE11EEEvv, symObjAddr: 0xC9BC, symBinAddr: 0x35E50, symSize: 0x4C }
  - { offset: 0x16D2E4, size: 0x8, addend: 0x0, symName: __ZNSt3__119__throw_regex_errorB8ne190102ILNS_15regex_constants10error_typeE8EEEvv, symObjAddr: 0x1119C, symBinAddr: 0x3A598, symSize: 0x4C }
  - { offset: 0x16D30A, size: 0x8, addend: 0x0, symName: __ZNSt3__119__throw_regex_errorB8ne190102ILNS_15regex_constants10error_typeE7EEEvv, symObjAddr: 0x111E8, symBinAddr: 0x3A5E4, symSize: 0x4C }
  - { offset: 0x16D43A, size: 0x8, addend: 0x0, symName: __ZNSt3__119__throw_regex_errorB8ne190102ILNS_15regex_constants10error_typeE12EEEvv, symObjAddr: 0xBE9C, symBinAddr: 0x35330, symSize: 0x4C }
  - { offset: 0x16D460, size: 0x8, addend: 0x0, symName: __ZNSt3__119__throw_regex_errorB8ne190102ILNS_15regex_constants10error_typeE16EEEvv, symObjAddr: 0xBEE8, symBinAddr: 0x3537C, symSize: 0x4C }
  - { offset: 0x16DCD2, size: 0x8, addend: 0x0, symName: __ZNSt3__119__throw_regex_errorB8ne190102ILNS_15regex_constants10error_typeE4EEEvv, symObjAddr: 0xD284, symBinAddr: 0x36718, symSize: 0x4C }
  - { offset: 0x16DCF8, size: 0x8, addend: 0x0, symName: __ZNSt3__119__throw_regex_errorB8ne190102ILNS_15regex_constants10error_typeE3EEEvv, symObjAddr: 0xCB14, symBinAddr: 0x35FA8, symSize: 0x4C }
  - { offset: 0x16DD1E, size: 0x8, addend: 0x0, symName: __ZNSt3__119__throw_regex_errorB8ne190102ILNS_15regex_constants10error_typeE5EEEvv, symObjAddr: 0xEE98, symBinAddr: 0x382A8, symSize: 0x4C }
  - { offset: 0x16E822, size: 0x8, addend: 0x0, symName: __ZNSt3__119__throw_regex_errorB8ne190102ILNS_15regex_constants10error_typeE1EEEvv, symObjAddr: 0x103FC, symBinAddr: 0x3980C, symSize: 0x4C }
  - { offset: 0x16E848, size: 0x8, addend: 0x0, symName: __ZNSt3__119__throw_regex_errorB8ne190102ILNS_15regex_constants10error_typeE2EEEvv, symObjAddr: 0x109FC, symBinAddr: 0x39DF8, symSize: 0x4C }
  - { offset: 0x16E99B, size: 0x8, addend: 0x0, symName: __ZNSt3__119__throw_regex_errorB8ne190102ILNS_15regex_constants10error_typeE9EEEvv, symObjAddr: 0x10E68, symBinAddr: 0x3A264, symSize: 0x4C }
  - { offset: 0x171519, size: 0x8, addend: 0x0, symName: __ZL11decode_utf8RKNSt3__112basic_stringIcNS_11char_traitsIcEENS_9allocatorIcEEEE18llama_partial_utf8, symObjAddr: 0x7488, symBinAddr: 0x30C08, symSize: 0x4F4 }
  - { offset: 0x171543, size: 0x8, addend: 0x0, symName: __ZZL11decode_utf8RKNSt3__112basic_stringIcNS_11char_traitsIcEENS_9allocatorIcEEEE18llama_partial_utf8E6lookup, symObjAddr: 0x16538, symBinAddr: 0x238150, symSize: 0x0 }
  - { offset: 0x175C12, size: 0x8, addend: 0x0, symName: __ZN20llama_grammar_parser13get_symbol_idEPKcm, symObjAddr: 0x0, symBinAddr: 0x29828, symSize: 0x108 }
  - { offset: 0x176155, size: 0x8, addend: 0x0, symName: __ZNSt3__16__treeINS_12__value_typeINS_12basic_stringIcNS_11char_traitsIcEENS_9allocatorIcEEEEjEENS_19__map_value_compareIS7_S8_NS_4lessIS7_EELb1EEENS5_IS8_EEE25__emplace_unique_key_argsIS7_JS7_RjEEENS_4pairINS_15__tree_iteratorIS8_PNS_11__tree_nodeIS8_PvEElEEbEERKT_DpOT0_, symObjAddr: 0x8B74, symBinAddr: 0x321D0, symSize: 0x184 }
  - { offset: 0x176723, size: 0x8, addend: 0x0, symName: __ZNSt3__16__treeINS_12__value_typeINS_12basic_stringIcNS_11char_traitsIcEENS_9allocatorIcEEEEjEENS_19__map_value_compareIS7_S8_NS_4lessIS7_EELb1EEENS5_IS8_EEE25__emplace_unique_key_argsIS7_JS7_RjEEENS_4pairINS_15__tree_iteratorIS8_PNS_11__tree_nodeIS8_PvEElEEbEERKT_DpOT0_, symObjAddr: 0x8B74, symBinAddr: 0x321D0, symSize: 0x184 }
  - { offset: 0x1768DB, size: 0x8, addend: 0x0, symName: __ZN20llama_grammar_parser18generate_symbol_idERKNSt3__112basic_stringIcNS0_11char_traitsIcEENS0_9allocatorIcEEEE, symObjAddr: 0x108, symBinAddr: 0x29930, symSize: 0x204 }
  - { offset: 0x177428, size: 0x8, addend: 0x0, symName: __ZNSt3__16__treeINS_12__value_typeINS_12basic_stringIcNS_11char_traitsIcEENS_9allocatorIcEEEEjEENS_19__map_value_compareIS7_S8_NS_4lessIS7_EELb1EEENS5_IS8_EEE25__emplace_unique_key_argsIS7_JRKNS_21piecewise_construct_tENS_5tupleIJOS7_EEENSJ_IJEEEEEENS_4pairINS_15__tree_iteratorIS8_PNS_11__tree_nodeIS8_PvEElEEbEERKT_DpOT0_, symObjAddr: 0x8EAC, symBinAddr: 0x32354, symSize: 0x178 }
  - { offset: 0x177C5F, size: 0x8, addend: 0x0, symName: __ZN20llama_grammar_parser8add_ruleEjRKNSt3__16vectorI21llama_grammar_elementNS0_9allocatorIS2_EEEE, symObjAddr: 0x30C, symBinAddr: 0x29B34, symSize: 0xE4 }
  - { offset: 0x177F7F, size: 0x8, addend: 0x0, symName: __ZNSt3__16vectorINS0_I21llama_grammar_elementNS_9allocatorIS1_EEEENS2_IS4_EEE8__appendEm, symObjAddr: 0x9024, symBinAddr: 0x324CC, symSize: 0x184 }
  - { offset: 0x1783E1, size: 0x8, addend: 0x0, symName: __ZNKSt3__16vectorINS0_I21llama_grammar_elementNS_9allocatorIS1_EEEENS2_IS4_EEE20__throw_length_errorB8ne190102Ev, symObjAddr: 0x91A8, symBinAddr: 0x32650, symSize: 0x14 }
  - { offset: 0x1783EC, size: 0x8, addend: 0x0, symName: __ZNSt3__16vectorI21llama_grammar_elementNS_9allocatorIS1_EEE18__assign_with_sizeB8ne190102IPS1_S6_EEvT_T0_l, symObjAddr: 0x91BC, symBinAddr: 0x32664, symSize: 0x14C }
  - { offset: 0x178E2C, size: 0x8, addend: 0x0, symName: __ZNSt3__16__treeINS_12__value_typeIjNS_12basic_stringIcNS_11char_traitsIcEENS_9allocatorIcEEEEEENS_19__map_value_compareIjS8_NS_4lessIjEELb1EEENS5_IS8_EEE7destroyEPNS_11__tree_nodeIS8_PvEE, symObjAddr: 0x9308, symBinAddr: 0x327B0, symSize: 0x60 }
  - { offset: 0x1791C1, size: 0x8, addend: 0x0, symName: __ZN20llama_grammar_parser16parse_alternatesEPKcRKNSt3__112basic_stringIcNS2_11char_traitsIcEENS2_9allocatorIcEEEEjb, symObjAddr: 0x3F0, symBinAddr: 0x29C18, symSize: 0x354 }
  - { offset: 0x17A061, size: 0x8, addend: 0x0, symName: __ZN20llama_grammar_parser14parse_sequenceEPKcRKNSt3__112basic_stringIcNS2_11char_traitsIcEENS2_9allocatorIcEEEERNS2_6vectorI21llama_grammar_elementNS6_ISC_EEEEb, symObjAddr: 0x744, symBinAddr: 0x29F6C, symSize: 0x1670 }
  - { offset: 0x17C9C6, size: 0x8, addend: 0x0, symName: __ZNKSt3__16vectorI21llama_grammar_elementNS_9allocatorIS1_EEE20__throw_length_errorB8ne190102Ev, symObjAddr: 0x81F0, symBinAddr: 0x31970, symSize: 0x14 }
  - { offset: 0x17CA35, size: 0x8, addend: 0x0, symName: __ZL10parse_namePKc, symObjAddr: 0x203C, symBinAddr: 0x2B864, symSize: 0x13C }
  - { offset: 0x17CD19, size: 0x8, addend: 0x0, symName: __ZL10parse_charPKc, symObjAddr: 0x1DB4, symBinAddr: 0x2B5DC, symSize: 0x288 }
  - { offset: 0x17D051, size: 0x8, addend: 0x0, symName: __ZL9parse_intPKc, symObjAddr: 0x2934, symBinAddr: 0x2C0B4, symSize: 0x124 }
  - { offset: 0x17D34E, size: 0x8, addend: 0x0, symName: '__ZZN20llama_grammar_parser14parse_sequenceEPKcRKNSt3__112basic_stringIcNS2_11char_traitsIcEENS2_9allocatorIcEEEERNS2_6vectorI21llama_grammar_elementNS6_ISC_EEEEbENK3$_0clEii', symObjAddr: 0x2220, symBinAddr: 0x2B9A0, symSize: 0x714 }
  - { offset: 0x17F635, size: 0x8, addend: 0x0, symName: '__ZZN20llama_grammar_parser14parse_sequenceEPKcRKNSt3__112basic_stringIcNS2_11char_traitsIcEENS2_9allocatorIcEEEERNS2_6vectorI21llama_grammar_elementNS6_ISC_EEEEbENK3$_0clEii', symObjAddr: 0x2220, symBinAddr: 0x2B9A0, symSize: 0x714 }
  - { offset: 0x17F6CA, size: 0x8, addend: 0x0, symName: __ZL9parse_hexPKci, symObjAddr: 0x7FB0, symBinAddr: 0x31730, symSize: 0x240 }
  - { offset: 0x180186, size: 0x8, addend: 0x0, symName: __ZNSt3__16vectorI21llama_grammar_elementNS_9allocatorIS1_EEE18__insert_with_sizeB8ne190102INS_11__wrap_iterIPS1_EES8_EES8_NS6_IPKS1_EET_T0_l, symObjAddr: 0x83C4, symBinAddr: 0x31AA8, symSize: 0x2D0 }
  - { offset: 0x180B95, size: 0x8, addend: 0x0, symName: __ZNSt3__16vectorI21llama_grammar_elementNS_9allocatorIS1_EEE8__appendEm, symObjAddr: 0x82A0, symBinAddr: 0x31984, symSize: 0x124 }
  - { offset: 0x180F92, size: 0x8, addend: 0x0, symName: __ZNSt3__16vectorI21llama_grammar_elementNS_9allocatorIS1_EEE18__insert_with_sizeB8ne190102INS_11__wrap_iterIPS1_EES8_EES8_NS6_IPKS1_EET_T0_l, symObjAddr: 0x83C4, symBinAddr: 0x31AA8, symSize: 0x2D0 }
  - { offset: 0x180F9D, size: 0x8, addend: 0x0, symName: __ZN20llama_grammar_parser10parse_ruleEPKc, symObjAddr: 0x2A58, symBinAddr: 0x2C1D8, symSize: 0x44C }
  - { offset: 0x181BDC, size: 0x8, addend: 0x0, symName: __ZN20llama_grammar_parser5parseEPKc, symObjAddr: 0x2EA4, symBinAddr: 0x2C624, symSize: 0x350 }
  - { offset: 0x182C21, size: 0x8, addend: 0x0, symName: __ZN20llama_grammar_parser5printEP7__sFILE, symObjAddr: 0x31F4, symBinAddr: 0x2C974, symSize: 0x9A0 }
  - { offset: 0x18471C, size: 0x8, addend: 0x0, symName: __ZNSt3__16__treeINS_12__value_typeIjNS_12basic_stringIcNS_11char_traitsIcEENS_9allocatorIcEEEEEENS_19__map_value_compareIjS8_NS_4lessIjEELb1EEENS5_IS8_EEE7destroyEPNS_11__tree_nodeIS8_PvEE, symObjAddr: 0x9308, symBinAddr: 0x327B0, symSize: 0x60 }
  - { offset: 0x184DFD, size: 0x8, addend: 0x0, symName: __ZNK20llama_grammar_parser7c_rulesEv, symObjAddr: 0x3B94, symBinAddr: 0x2D314, symSize: 0x190 }
  - { offset: 0x18557F, size: 0x8, addend: 0x0, symName: __ZNKSt3__16vectorIPK21llama_grammar_elementNS_9allocatorIS3_EEE20__throw_length_errorB8ne190102Ev, symObjAddr: 0x8884, symBinAddr: 0x31EF4, symSize: 0x14 }
  - { offset: 0x1855A9, size: 0x8, addend: 0x0, symName: __ZNSt3__114__split_bufferINS_6vectorIPK21llama_grammar_elementNS_9allocatorIS4_EEEERNS5_IS7_EEED1Ev, symObjAddr: 0x8898, symBinAddr: 0x31F08, symSize: 0x6C }
  - { offset: 0x1855B4, size: 0x8, addend: 0x0, symName: __Z23llama_grammar_get_rulesPK13llama_grammar, symObjAddr: 0x3D24, symBinAddr: 0x2D4A4, symSize: 0x8 }
  - { offset: 0x1855E4, size: 0x8, addend: 0x0, symName: __Z24llama_grammar_get_stacksP13llama_grammar, symObjAddr: 0x3D2C, symBinAddr: 0x2D4AC, symSize: 0x8 }
  - { offset: 0x185D12, size: 0x8, addend: 0x0, symName: __Z20llama_grammar_acceptP13llama_grammarj, symObjAddr: 0x3D34, symBinAddr: 0x2D4B4, symSize: 0x3BC }
  - { offset: 0x186C0E, size: 0x8, addend: 0x0, symName: __ZL27llama_grammar_advance_stackRKNSt3__16vectorINS0_I21llama_grammar_elementNS_9allocatorIS1_EEEENS2_IS4_EEEERKNS0_IPKS1_NS2_ISA_EEEERNS0_ISC_NS2_ISC_EEEE, symObjAddr: 0x40F0, symBinAddr: 0x2D870, symSize: 0x42C }
  - { offset: 0x18824D, size: 0x8, addend: 0x0, symName: __ZNKSt3__16vectorINS0_IPK21llama_grammar_elementNS_9allocatorIS3_EEEENS4_IS6_EEE20__throw_length_errorB8ne190102Ev, symObjAddr: 0x8904, symBinAddr: 0x31F74, symSize: 0x14 }
  - { offset: 0x188277, size: 0x8, addend: 0x0, symName: __ZNSt3__110shared_ptrINS_13__empty_stateIcEEED1B8ne190102Ev, symObjAddr: 0x8918, symBinAddr: 0x31F88, symSize: 0x5C }
  - { offset: 0x188282, size: 0x8, addend: 0x0, symName: __ZNSt3__16vectorINS0_IPK21llama_grammar_elementNS_9allocatorIS3_EEEENS4_IS6_EEED1B8ne190102Ev, symObjAddr: 0x451C, symBinAddr: 0x2DC9C, symSize: 0x74 }
  - { offset: 0x1888BC, size: 0x8, addend: 0x0, symName: __ZNSt3__16vectorINS0_IPK21llama_grammar_elementNS_9allocatorIS3_EEEENS4_IS6_EEE24__emplace_back_slow_pathIJRKS6_EEEPS6_DpOT_, symObjAddr: 0x8708, symBinAddr: 0x31D78, symSize: 0x17C }
  - { offset: 0x18978D, size: 0x8, addend: 0x0, symName: __Z41llama_grammar_reject_candidates_for_stackRKNSt3__16vectorINS0_I21llama_grammar_elementNS_9allocatorIS1_EEEENS2_IS4_EEEERKNS0_IPKS1_NS2_ISA_EEEERKNS0_I23llama_grammar_candidateNS2_ISF_EEEE, symObjAddr: 0x4590, symBinAddr: 0x2DD10, symSize: 0xC74 }
  - { offset: 0x18C082, size: 0x8, addend: 0x0, symName: __ZL31llama_grammar_reject_candidatesRKNSt3__16vectorINS0_I21llama_grammar_elementNS_9allocatorIS1_EEEENS2_IS4_EEEERKNS0_INS0_IPKS1_NS2_ISA_EEEENS2_ISC_EEEERKNS0_I23llama_grammar_candidateNS2_ISH_EEEE, symObjAddr: 0x5204, symBinAddr: 0x2E984, symSize: 0x120 }
  - { offset: 0x18C466, size: 0x8, addend: 0x0, symName: __ZNKSt3__16vectorI23llama_grammar_candidateNS_9allocatorIS1_EEE20__throw_length_errorB8ne190102Ev, symObjAddr: 0x9368, symBinAddr: 0x32810, symSize: 0x14 }
  - { offset: 0x18C490, size: 0x8, addend: 0x0, symName: __ZNSt3__128__exception_guard_exceptionsINS_6vectorINS1_I21llama_grammar_elementNS_9allocatorIS2_EEEENS3_IS5_EEE16__destroy_vectorEED1B8ne190102Ev, symObjAddr: 0x937C, symBinAddr: 0x32824, symSize: 0x84 }
  - { offset: 0x18CC27, size: 0x8, addend: 0x0, symName: __Z23llama_grammar_init_implPK11llama_vocabPPK21llama_grammar_elementmm, symObjAddr: 0x5324, symBinAddr: 0x2EAA4, symSize: 0x6A0 }
  - { offset: 0x18EE38, size: 0x8, addend: 0x0, symName: __ZL35llama_grammar_detect_left_recursionRKNSt3__16vectorINS0_I21llama_grammar_elementNS_9allocatorIS1_EEEENS2_IS4_EEEEmPNS0_IbNS2_IbEEEESB_SB_, symObjAddr: 0x59C4, symBinAddr: 0x2F144, symSize: 0x190 }
  - { offset: 0x18F1A8, size: 0x8, addend: 0x0, symName: __ZNKSt3__16vectorINS0_I21llama_grammar_elementNS_9allocatorIS1_EEEENS2_IS4_EEE20__throw_length_errorB8ne190102Ev, symObjAddr: 0x91A8, symBinAddr: 0x32650, symSize: 0x14 }
  - { offset: 0x18F1D2, size: 0x8, addend: 0x0, symName: __ZNSt3__16vectorI21llama_grammar_elementNS_9allocatorIS1_EEE18__assign_with_sizeB8ne190102IPS1_S6_EEvT_T0_l, symObjAddr: 0x91BC, symBinAddr: 0x32664, symSize: 0x14C }
  - { offset: 0x18F1DD, size: 0x8, addend: 0x0, symName: __ZNSt3__16vectorINS0_I21llama_grammar_elementNS_9allocatorIS1_EEEENS2_IS4_EEED1B8ne190102Ev, symObjAddr: 0x5B54, symBinAddr: 0x2F2D4, symSize: 0x74 }
  - { offset: 0x18F478, size: 0x8, addend: 0x0, symName: __ZNSt3__128__exception_guard_exceptionsINS_6vectorINS1_I21llama_grammar_elementNS_9allocatorIS2_EEEENS3_IS5_EEE16__destroy_vectorEED1B8ne190102Ev, symObjAddr: 0x937C, symBinAddr: 0x32824, symSize: 0x84 }
  - { offset: 0x190553, size: 0x8, addend: 0x0, symName: __Z23llama_grammar_init_implPK11llama_vocabPKcS3_bPS3_mPKim, symObjAddr: 0x5BC8, symBinAddr: 0x2F348, symSize: 0xD68 }
  - { offset: 0x1949EC, size: 0x8, addend: 0x0, symName: __ZNSt3__16__treeINS_12__value_typeINS_12basic_stringIcNS_11char_traitsIcEENS_9allocatorIcEEEEjEENS_19__map_value_compareIS7_S8_NS_4lessIS7_EELb1EEENS5_IS8_EEE7destroyEPNS_11__tree_nodeIS8_PvEE, symObjAddr: 0x8974, symBinAddr: 0x31FE4, symSize: 0x60 }
  - { offset: 0x194C66, size: 0x8, addend: 0x0, symName: __ZNSt3__16vectorI29llama_grammar_trigger_patternNS_9allocatorIS1_EEE24__emplace_back_slow_pathIJEEEPS1_DpOT_, symObjAddr: 0x9414, symBinAddr: 0x328A8, symSize: 0x1B4 }
  - { offset: 0x19528A, size: 0x8, addend: 0x0, symName: __ZNSt3__111basic_regexIcNS_12regex_traitsIcEEEC2B8ne190102INS_11char_traitsIcEENS_9allocatorIcEEEERKNS_12basic_stringIcT_T0_EENS_15regex_constants18syntax_option_typeE, symObjAddr: 0x98B4, symBinAddr: 0x32D48, symSize: 0xD4 }
  - { offset: 0x19546A, size: 0x8, addend: 0x0, symName: __ZNSt3__16vectorI29llama_grammar_trigger_patternNS_9allocatorIS1_EEE24__emplace_back_slow_pathIJEEEPS1_DpOT_, symObjAddr: 0x9414, symBinAddr: 0x328A8, symSize: 0x1B4 }
  - { offset: 0x195475, size: 0x8, addend: 0x0, symName: __ZN20llama_grammar_parserD1Ev, symObjAddr: 0x6A4C, symBinAddr: 0x301CC, symSize: 0x80 }
  - { offset: 0x1957F0, size: 0x8, addend: 0x0, symName: __ZNSt3__16vectorI29llama_grammar_trigger_patternNS_9allocatorIS1_EEED1B8ne190102Ev, symObjAddr: 0x698C, symBinAddr: 0x3010C, symSize: 0xC0 }
  - { offset: 0x195B99, size: 0x8, addend: 0x0, symName: __ZNSt3__111basic_regexIcNS_12regex_traitsIcEEED1Ev, symObjAddr: 0x6930, symBinAddr: 0x300B0, symSize: 0x5C }
  - { offset: 0x196504, size: 0x8, addend: 0x0, symName: __Z23llama_grammar_free_implP13llama_grammar, symObjAddr: 0x6ACC, symBinAddr: 0x3024C, symSize: 0x1C }
  - { offset: 0x196559, size: 0x8, addend: 0x0, symName: __ZN13llama_grammarD2Ev, symObjAddr: 0x89D4, symBinAddr: 0x32044, symSize: 0x178 }
  - { offset: 0x19776B, size: 0x8, addend: 0x0, symName: __Z24llama_grammar_clone_implRK13llama_grammar, symObjAddr: 0x6AE8, symBinAddr: 0x30268, symSize: 0x444 }
  - { offset: 0x1986E5, size: 0x8, addend: 0x0, symName: __ZNSt3__135__uninitialized_allocator_copy_implB8ne190102INS_9allocatorINS_6vectorI21llama_grammar_elementNS1_IS3_EEEEEEPS5_S7_S7_EET2_RT_T0_T1_S8_, symObjAddr: 0x12408, symBinAddr: 0x3B778, symSize: 0xFC }
  - { offset: 0x1986F6, size: 0x8, addend: 0x0, symName: __ZNSt3__16vectorI29llama_grammar_trigger_patternNS_9allocatorIS1_EEE18__construct_at_endIPS1_S6_EEvT_T0_m, symObjAddr: 0x1275C, symBinAddr: 0x3BACC, symSize: 0x10C }
  - { offset: 0x198AE7, size: 0x8, addend: 0x0, symName: __ZNKSt3__16vectorI29llama_grammar_trigger_patternNS_9allocatorIS1_EEE20__throw_length_errorB8ne190102Ev, symObjAddr: 0x96EC, symBinAddr: 0x32B80, symSize: 0x14 }
  - { offset: 0x198B11, size: 0x8, addend: 0x0, symName: __ZNSt3__134__uninitialized_allocator_relocateB8ne190102INS_9allocatorI29llama_grammar_trigger_patternEES2_EEvRT_PT0_S7_S7_, symObjAddr: 0x9700, symBinAddr: 0x32B94, symSize: 0xFC }
  - { offset: 0x198B1C, size: 0x8, addend: 0x0, symName: __ZNSt3__128__exception_guard_exceptionsINS_6vectorINS1_IPK21llama_grammar_elementNS_9allocatorIS4_EEEENS5_IS7_EEE16__destroy_vectorEED1B8ne190102Ev, symObjAddr: 0x12570, symBinAddr: 0x3B8E0, symSize: 0x84 }
  - { offset: 0x198DC5, size: 0x8, addend: 0x0, symName: __ZNSt3__128__exception_guard_exceptionsINS_6vectorI29llama_grammar_trigger_patternNS_9allocatorIS2_EEE16__destroy_vectorEED1B8ne190102Ev, symObjAddr: 0x12868, symBinAddr: 0x3BBD8, symSize: 0xD0 }
  - { offset: 0x198DF2, size: 0x8, addend: 0x0, symName: __ZNSt3__128__exception_guard_exceptionsINS_6vectorI29llama_grammar_trigger_patternNS_9allocatorIS2_EEE16__destroy_vectorEED1B8ne190102Ev, symObjAddr: 0x12868, symBinAddr: 0x3BBD8, symSize: 0xD0 }
  - { offset: 0x19987F, size: 0x8, addend: 0x0, symName: __Z24llama_grammar_apply_implRK13llama_grammarP22llama_token_data_array, symObjAddr: 0x6F2C, symBinAddr: 0x306AC, symSize: 0x55C }
  - { offset: 0x19AF56, size: 0x8, addend: 0x0, symName: __ZNKSt3__16vectorINS_4pairINS0_IjNS_9allocatorIjEEEE18llama_partial_utf8EENS2_IS6_EEE20__throw_length_errorB8ne190102Ev, symObjAddr: 0x12938, symBinAddr: 0x3BCA8, symSize: 0x14 }
  - { offset: 0x19AF80, size: 0x8, addend: 0x0, symName: __ZNKSt3__111basic_regexIcNS_12regex_traitsIcEEE8__searchINS_9allocatorINS_9sub_matchIPKcEEEEEEbS8_S8_RNS_13match_resultsIS8_T_EENS_15regex_constants15match_flag_typeE, symObjAddr: 0x1294C, symBinAddr: 0x3BCBC, symSize: 0x308 }
  - { offset: 0x19AF8B, size: 0x8, addend: 0x0, symName: __ZNSt3__16vectorINS_4pairINS0_IjNS_9allocatorIjEEEE18llama_partial_utf8EENS2_IS6_EEED1B8ne190102Ev, symObjAddr: 0x797C, symBinAddr: 0x310FC, symSize: 0x74 }
  - { offset: 0x19B787, size: 0x8, addend: 0x0, symName: __ZNKSt3__16vectorIjNS_9allocatorIjEEE20__throw_length_errorB8ne190102Ev, symObjAddr: 0x8B4C, symBinAddr: 0x321BC, symSize: 0x14 }
  - { offset: 0x19BE59, size: 0x8, addend: 0x0, symName: __Z25llama_grammar_accept_implR13llama_grammari, symObjAddr: 0x79F0, symBinAddr: 0x31170, symSize: 0x478 }
  - { offset: 0x19D593, size: 0x8, addend: 0x0, symName: __Z24llama_grammar_accept_strR13llama_grammarRKNSt3__112basic_stringIcNS1_11char_traitsIcEENS1_9allocatorIcEEEE, symObjAddr: 0x7E68, symBinAddr: 0x315E8, symSize: 0x148 }
  - { offset: 0x19DAA9, size: 0x8, addend: 0x0, symName: __ZNKSt3__111basic_regexIcNS_12regex_traitsIcEEE8__searchINS_9allocatorINS_9sub_matchIPKcEEEEEEbS8_S8_RNS_13match_resultsIS8_T_EENS_15regex_constants15match_flag_typeE, symObjAddr: 0x1294C, symBinAddr: 0x3BCBC, symSize: 0x308 }
  - { offset: 0x19E020, size: 0x8, addend: 0x0, symName: __ZNSt3__113match_resultsINS_11__wrap_iterIPKcEENS_9allocatorINS_9sub_matchIS4_EEEEE8__assignB8ne190102IS3_NS5_INS6_IS3_EEEEEEvS4_S4_RKNS0_IT_T0_EEb, symObjAddr: 0x12C54, symBinAddr: 0x3BFC4, symSize: 0x1AC }
  - { offset: 0x19E39F, size: 0x8, addend: 0x0, symName: __ZNSt3__14pairINS_12basic_stringIcNS_11char_traitsIcEENS_9allocatorIcEEEES6_ED1Ev, symObjAddr: 0xE7C8, symBinAddr: 0x37BD8, symSize: 0x58 }
  - { offset: 0x19E9B8, size: 0x8, addend: 0x0, symName: __ZNSt3__114__split_bufferINS_6vectorIPK21llama_grammar_elementNS_9allocatorIS4_EEEERNS5_IS7_EEED1Ev, symObjAddr: 0x8898, symBinAddr: 0x31F08, symSize: 0x6C }
  - { offset: 0x19EC85, size: 0x8, addend: 0x0, symName: __ZNSt3__110shared_ptrINS_13__empty_stateIcEEED1B8ne190102Ev, symObjAddr: 0x8918, symBinAddr: 0x31F88, symSize: 0x5C }
  - { offset: 0x19F72D, size: 0x8, addend: 0x0, symName: __ZNSt3__114__split_bufferI29llama_grammar_trigger_patternRNS_9allocatorIS1_EEED1Ev, symObjAddr: 0x9634, symBinAddr: 0x32AC8, symSize: 0xB8 }
  - { offset: 0x19FAB9, size: 0x8, addend: 0x0, symName: __ZNSt3__111basic_regexIcNS_12regex_traitsIcEEEC1B8ne190102Ev, symObjAddr: 0x95C8, symBinAddr: 0x32A5C, symSize: 0x6C }
  - { offset: 0x19FD68, size: 0x8, addend: 0x0, symName: __ZNSt3__128__exception_guard_exceptionsINS_29_AllocatorDestroyRangeReverseINS_9allocatorI29llama_grammar_trigger_patternEEPS3_EEED1B8ne190102Ev, symObjAddr: 0x97FC, symBinAddr: 0x32C90, symSize: 0xB8 }
  - { offset: 0x1A00A1, size: 0x8, addend: 0x0, symName: __ZNSt3__111basic_regexIcNS_12regex_traitsIcEEE7__parseINS_11__wrap_iterIPKcEEEET_S9_S9_, symObjAddr: 0x9988, symBinAddr: 0x32E1C, symSize: 0x200 }
  - { offset: 0x1A0B56, size: 0x8, addend: 0x0, symName: __ZNSt3__111basic_regexIcNS_12regex_traitsIcEEE13__parse_egrepINS_11__wrap_iterIPKcEEEET_S9_S9_, symObjAddr: 0xA2E8, symBinAddr: 0x3377C, symSize: 0x1B8 }
  - { offset: 0x1A10E9, size: 0x8, addend: 0x0, symName: __ZNSt3__111basic_regexIcNS_12regex_traitsIcEEE24__parse_extended_reg_expINS_11__wrap_iterIPKcEEEET_S9_S9_, symObjAddr: 0x9FC4, symBinAddr: 0x33458, symSize: 0x16C }
  - { offset: 0x1A141E, size: 0x8, addend: 0x0, symName: __ZNSt3__111basic_regexIcNS_12regex_traitsIcEEE12__parse_grepINS_11__wrap_iterIPKcEEEET_S9_S9_, symObjAddr: 0xA130, symBinAddr: 0x335C4, symSize: 0x1B8 }
  - { offset: 0x1A1432, size: 0x8, addend: 0x0, symName: __ZNSt3__111basic_regexIcNS_12regex_traitsIcEEE21__parse_basic_reg_expINS_11__wrap_iterIPKcEEEET_S9_S9_, symObjAddr: 0x9E34, symBinAddr: 0x332C8, symSize: 0x190 }
  - { offset: 0x1A1753, size: 0x8, addend: 0x0, symName: __ZNSt3__111basic_regexIcNS_12regex_traitsIcEEE24__parse_extended_reg_expINS_11__wrap_iterIPKcEEEET_S9_S9_, symObjAddr: 0x9FC4, symBinAddr: 0x33458, symSize: 0x16C }
  - { offset: 0x1A1767, size: 0x8, addend: 0x0, symName: __ZNSt3__111basic_regexIcNS_12regex_traitsIcEEE12__parse_grepINS_11__wrap_iterIPKcEEEET_S9_S9_, symObjAddr: 0xA130, symBinAddr: 0x335C4, symSize: 0x1B8 }
  - { offset: 0x1A1CFA, size: 0x8, addend: 0x0, symName: __ZNSt3__111basic_regexIcNS_12regex_traitsIcEEE16__parse_ecma_expINS_11__wrap_iterIPKcEEEET_S9_S9_, symObjAddr: 0x9BD4, symBinAddr: 0x33068, symSize: 0x260 }
  - { offset: 0x1A24B7, size: 0x8, addend: 0x0, symName: __ZNSt3__111basic_regexIcNS_12regex_traitsIcEEE17__parse_assertionINS_11__wrap_iterIPKcEEEET_S9_S9_, symObjAddr: 0xA6E4, symBinAddr: 0x33B78, symSize: 0x334 }
  - { offset: 0x1A29CF, size: 0x8, addend: 0x0, symName: __ZNSt3__111basic_regexIcNS_12regex_traitsIcEEE12__parse_atomINS_11__wrap_iterIPKcEEEET_S9_S9_, symObjAddr: 0xAA18, symBinAddr: 0x33EAC, symSize: 0x280 }
  - { offset: 0x1A2D3C, size: 0x8, addend: 0x0, symName: __ZNSt3__111basic_regexIcNS_12regex_traitsIcEEE23__parse_ERE_dupl_symbolINS_11__wrap_iterIPKcEEEET_S9_S9_PNS_16__owns_one_stateIcEEjj, symObjAddr: 0xAC98, symBinAddr: 0x3412C, symSize: 0x378 }
  - { offset: 0x1A2D50, size: 0x8, addend: 0x0, symName: __ZNSt3__111basic_regexIcNS_12regex_traitsIcEEE23__parse_ERE_dupl_symbolINS_11__wrap_iterIPKcEEEET_S9_S9_PNS_16__owns_one_stateIcEEjj, symObjAddr: 0xAC98, symBinAddr: 0x3412C, symSize: 0x378 }
  - { offset: 0x1A336C, size: 0x8, addend: 0x0, symName: __ZNSt3__111basic_regexIcNS_12regex_traitsIcEEE20__push_word_boundaryEb, symObjAddr: 0xB010, symBinAddr: 0x344A4, symSize: 0x74 }
  - { offset: 0x1A3567, size: 0x8, addend: 0x0, symName: __ZNSt3__111basic_regexIcNS_12regex_traitsIcEEE18__parse_nondupl_REINS_11__wrap_iterIPKcEEEET_S9_S9_, symObjAddr: 0x117F8, symBinAddr: 0x3ABF4, symSize: 0x21C }
  - { offset: 0x1A3A23, size: 0x8, addend: 0x0, symName: __ZNSt3__111basic_regexIcNS_12regex_traitsIcEEE22__parse_RE_dupl_symbolINS_11__wrap_iterIPKcEEEET_S9_S9_PNS_16__owns_one_stateIcEEjj, symObjAddr: 0x11A14, symBinAddr: 0x3AE10, symSize: 0x274 }
  - { offset: 0x1A3A37, size: 0x8, addend: 0x0, symName: __ZNSt3__111basic_regexIcNS_12regex_traitsIcEEE22__parse_RE_dupl_symbolINS_11__wrap_iterIPKcEEEET_S9_S9_PNS_16__owns_one_stateIcEEjj, symObjAddr: 0x11A14, symBinAddr: 0x3AE10, symSize: 0x274 }
  - { offset: 0x1A3F2B, size: 0x8, addend: 0x0, symName: __ZNSt3__111basic_regexIcNS_12regex_traitsIcEEE32__parse_one_char_or_coll_elem_REINS_11__wrap_iterIPKcEEEET_S9_S9_, symObjAddr: 0x11C88, symBinAddr: 0x3B084, symSize: 0x194 }
  - { offset: 0x1A3F82, size: 0x8, addend: 0x0, symName: __ZNSt3__111basic_regexIcNS_12regex_traitsIcEEE22__parse_ERE_expressionINS_11__wrap_iterIPKcEEEET_S9_S9_, symObjAddr: 0x11F4C, symBinAddr: 0x3B348, symSize: 0x208 }
  - { offset: 0x1A432B, size: 0x8, addend: 0x0, symName: __ZNSt3__111basic_regexIcNS_12regex_traitsIcEEE33__parse_one_char_or_coll_elem_EREINS_11__wrap_iterIPKcEEEET_S9_S9_, symObjAddr: 0x12154, symBinAddr: 0x3B550, symSize: 0x160 }
  - { offset: 0x1A435B, size: 0x8, addend: 0x0, symName: __ZNSt3__111__end_stateIcED1Ev, symObjAddr: 0xA4EC, symBinAddr: 0x33980, symSize: 0x4 }
  - { offset: 0x1A4387, size: 0x8, addend: 0x0, symName: __ZNSt3__111__end_stateIcED0Ev, symObjAddr: 0xA4F0, symBinAddr: 0x33984, symSize: 0x4 }
  - { offset: 0x1A43A7, size: 0x8, addend: 0x0, symName: __ZNKSt3__111__end_stateIcE6__execERNS_7__stateIcEE, symObjAddr: 0xA4F4, symBinAddr: 0x33988, symSize: 0xC }
  - { offset: 0x1A43DA, size: 0x8, addend: 0x0, symName: __ZNKSt3__16__nodeIcE12__exec_splitEbRNS_7__stateIcEE, symObjAddr: 0xA500, symBinAddr: 0x33994, symSize: 0x4 }
  - { offset: 0x1A441A, size: 0x8, addend: 0x0, symName: __ZNKSt3__16__nodeIcE6__execERNS_7__stateIcEE, symObjAddr: 0xA504, symBinAddr: 0x33998, symSize: 0x4 }
  - { offset: 0x1A4466, size: 0x8, addend: 0x0, symName: __ZNSt3__120__shared_ptr_pointerIPNS_13__empty_stateIcEENS_10shared_ptrIS2_E27__shared_ptr_default_deleteIS2_S2_EENS_9allocatorIS2_EEED1Ev, symObjAddr: 0xA508, symBinAddr: 0x3399C, symSize: 0x4 }
  - { offset: 0x1A4488, size: 0x8, addend: 0x0, symName: __ZNSt3__120__shared_ptr_pointerIPNS_13__empty_stateIcEENS_10shared_ptrIS2_E27__shared_ptr_default_deleteIS2_S2_EENS_9allocatorIS2_EEED1Ev, symObjAddr: 0xA508, symBinAddr: 0x3399C, symSize: 0x4 }
  - { offset: 0x1A44BE, size: 0x8, addend: 0x0, symName: __ZNSt3__120__shared_ptr_pointerIPNS_13__empty_stateIcEENS_10shared_ptrIS2_E27__shared_ptr_default_deleteIS2_S2_EENS_9allocatorIS2_EEED0Ev, symObjAddr: 0xA50C, symBinAddr: 0x339A0, symSize: 0x14 }
  - { offset: 0x1A4521, size: 0x8, addend: 0x0, symName: __ZNSt3__120__shared_ptr_pointerIPNS_13__empty_stateIcEENS_10shared_ptrIS2_E27__shared_ptr_default_deleteIS2_S2_EENS_9allocatorIS2_EEE16__on_zero_sharedEv, symObjAddr: 0xA520, symBinAddr: 0x339B4, symSize: 0x18 }
  - { offset: 0x1A45C8, size: 0x8, addend: 0x0, symName: __ZNKSt3__120__shared_ptr_pointerIPNS_13__empty_stateIcEENS_10shared_ptrIS2_E27__shared_ptr_default_deleteIS2_S2_EENS_9allocatorIS2_EEE13__get_deleterERKSt9type_info, symObjAddr: 0xA538, symBinAddr: 0x339CC, symSize: 0x74 }
  - { offset: 0x1A46DF, size: 0x8, addend: 0x0, symName: __ZNSt3__120__shared_ptr_pointerIPNS_13__empty_stateIcEENS_10shared_ptrIS2_E27__shared_ptr_default_deleteIS2_S2_EENS_9allocatorIS2_EEE21__on_zero_shared_weakEv, symObjAddr: 0xA5AC, symBinAddr: 0x33A40, symSize: 0x4 }
  - { offset: 0x1A4713, size: 0x8, addend: 0x0, symName: __ZNSt3__120__shared_ptr_pointerIPNS_13__empty_stateIcEENS_10shared_ptrIS2_E27__shared_ptr_default_deleteIS2_S2_EENS_9allocatorIS2_EEE21__on_zero_shared_weakEv, symObjAddr: 0xA5AC, symBinAddr: 0x33A40, symSize: 0x4 }
  - { offset: 0x1A4735, size: 0x8, addend: 0x0, symName: __ZNSt3__120__shared_ptr_pointerIPNS_13__empty_stateIcEENS_10shared_ptrIS2_E27__shared_ptr_default_deleteIS2_S2_EENS_9allocatorIS2_EEE21__on_zero_shared_weakEv, symObjAddr: 0xA5AC, symBinAddr: 0x33A40, symSize: 0x4 }
  - { offset: 0x1A4761, size: 0x8, addend: 0x0, symName: __ZNSt3__120__shared_ptr_pointerIPNS_13__empty_stateIcEENS_10shared_ptrIS2_E27__shared_ptr_default_deleteIS2_S2_EENS_9allocatorIS2_EEE21__on_zero_shared_weakEv, symObjAddr: 0xA5AC, symBinAddr: 0x33A40, symSize: 0x4 }
  - { offset: 0x1A4787, size: 0x8, addend: 0x0, symName: __ZNSt3__120__shared_ptr_pointerIPNS_13__empty_stateIcEENS_10shared_ptrIS2_E27__shared_ptr_default_deleteIS2_S2_EENS_9allocatorIS2_EEE21__on_zero_shared_weakEv, symObjAddr: 0xA5AC, symBinAddr: 0x33A40, symSize: 0x4 }
  - { offset: 0x1A47B0, size: 0x8, addend: 0x0, symName: __ZNSt3__113__empty_stateIcED1Ev, symObjAddr: 0xA5B0, symBinAddr: 0x33A44, symSize: 0x48 }
  - { offset: 0x1A47D4, size: 0x8, addend: 0x0, symName: __ZNSt3__113__empty_stateIcED1Ev, symObjAddr: 0xA5B0, symBinAddr: 0x33A44, symSize: 0x48 }
  - { offset: 0x1A47F2, size: 0x8, addend: 0x0, symName: __ZNSt3__113__empty_stateIcED1Ev, symObjAddr: 0xA5B0, symBinAddr: 0x33A44, symSize: 0x48 }
  - { offset: 0x1A481C, size: 0x8, addend: 0x0, symName: __ZNSt3__113__empty_stateIcED0Ev, symObjAddr: 0xA5F8, symBinAddr: 0x33A8C, symSize: 0x48 }
  - { offset: 0x1A4840, size: 0x8, addend: 0x0, symName: __ZNSt3__113__empty_stateIcED0Ev, symObjAddr: 0xA5F8, symBinAddr: 0x33A8C, symSize: 0x48 }
  - { offset: 0x1A485E, size: 0x8, addend: 0x0, symName: __ZNSt3__113__empty_stateIcED0Ev, symObjAddr: 0xA5F8, symBinAddr: 0x33A8C, symSize: 0x48 }
  - { offset: 0x1A487C, size: 0x8, addend: 0x0, symName: __ZNSt3__113__empty_stateIcED0Ev, symObjAddr: 0xA5F8, symBinAddr: 0x33A8C, symSize: 0x48 }
  - { offset: 0x1A48C2, size: 0x8, addend: 0x0, symName: __ZNKSt3__113__empty_stateIcE6__execERNS_7__stateIcEE, symObjAddr: 0xA640, symBinAddr: 0x33AD4, symSize: 0x14 }
  - { offset: 0x1A4914, size: 0x8, addend: 0x0, symName: __ZNSt3__116__owns_one_stateIcED1Ev, symObjAddr: 0xA654, symBinAddr: 0x33AE8, symSize: 0x48 }
  - { offset: 0x1A4938, size: 0x8, addend: 0x0, symName: __ZNSt3__116__owns_one_stateIcED1Ev, symObjAddr: 0xA654, symBinAddr: 0x33AE8, symSize: 0x48 }
  - { offset: 0x1A497D, size: 0x8, addend: 0x0, symName: __ZNSt3__116__owns_one_stateIcED0Ev, symObjAddr: 0xA69C, symBinAddr: 0x33B30, symSize: 0x48 }
  - { offset: 0x1A49AC, size: 0x8, addend: 0x0, symName: __ZNSt3__116__owns_one_stateIcED0Ev, symObjAddr: 0xA69C, symBinAddr: 0x33B30, symSize: 0x48 }
  - { offset: 0x1A49CA, size: 0x8, addend: 0x0, symName: __ZNSt3__116__owns_one_stateIcED0Ev, symObjAddr: 0xA69C, symBinAddr: 0x33B30, symSize: 0x48 }
  - { offset: 0x1A4AF1, size: 0x8, addend: 0x0, symName: __ZNSt3__111basic_regexIcNS_12regex_traitsIcEEE16__push_lookaheadERKS3_bj, symObjAddr: 0xB084, symBinAddr: 0x34518, symSize: 0xB0 }
  - { offset: 0x1A4D09, size: 0x8, addend: 0x0, symName: __ZNSt3__111basic_regexIcNS_12regex_traitsIcEEE20__push_word_boundaryEb, symObjAddr: 0xB010, symBinAddr: 0x344A4, symSize: 0x74 }
  - { offset: 0x1A4FCF, size: 0x8, addend: 0x0, symName: __ZNSt3__111basic_regexIcNS_12regex_traitsIcEEE26__parse_bracket_expressionINS_11__wrap_iterIPKcEEEET_S9_S9_, symObjAddr: 0xC864, symBinAddr: 0x35CF8, symSize: 0x158 }
  - { offset: 0x1A51F7, size: 0x8, addend: 0x0, symName: __ZNSt3__111basic_regexIcNS_12regex_traitsIcEEE19__parse_atom_escapeINS_11__wrap_iterIPKcEEEET_S9_S9_, symObjAddr: 0xC718, symBinAddr: 0x35BAC, symSize: 0x14C }
  - { offset: 0x1A5363, size: 0x8, addend: 0x0, symName: __ZNSt3__111basic_regexIcNS_12regex_traitsIcEEE26__parse_bracket_expressionINS_11__wrap_iterIPKcEEEET_S9_S9_, symObjAddr: 0xC864, symBinAddr: 0x35CF8, symSize: 0x158 }
  - { offset: 0x1A5377, size: 0x8, addend: 0x0, symName: __ZNSt3__111basic_regexIcNS_12regex_traitsIcEEE25__parse_pattern_characterINS_11__wrap_iterIPKcEEEET_S9_S9_, symObjAddr: 0xCA08, symBinAddr: 0x35E9C, symSize: 0x7C }
  - { offset: 0x1A554A, size: 0x8, addend: 0x0, symName: __ZNSt3__111basic_regexIcNS_12regex_traitsIcEEE11__push_loopEmmPNS_16__owns_one_stateIcEEmmb, symObjAddr: 0x11064, symBinAddr: 0x3A460, symSize: 0x138 }
  - { offset: 0x1A5AF7, size: 0x8, addend: 0x0, symName: __ZNSt3__120__l_anchor_multilineIcED1Ev, symObjAddr: 0xB180, symBinAddr: 0x34614, symSize: 0x48 }
  - { offset: 0x1A5B1B, size: 0x8, addend: 0x0, symName: __ZNSt3__120__l_anchor_multilineIcED1Ev, symObjAddr: 0xB180, symBinAddr: 0x34614, symSize: 0x48 }
  - { offset: 0x1A5B39, size: 0x8, addend: 0x0, symName: __ZNSt3__120__l_anchor_multilineIcED1Ev, symObjAddr: 0xB180, symBinAddr: 0x34614, symSize: 0x48 }
  - { offset: 0x1A5B80, size: 0x8, addend: 0x0, symName: __ZNSt3__120__l_anchor_multilineIcED0Ev, symObjAddr: 0xB1C8, symBinAddr: 0x3465C, symSize: 0x48 }
  - { offset: 0x1A5BB0, size: 0x8, addend: 0x0, symName: __ZNSt3__120__l_anchor_multilineIcED0Ev, symObjAddr: 0xB1C8, symBinAddr: 0x3465C, symSize: 0x48 }
  - { offset: 0x1A5BCE, size: 0x8, addend: 0x0, symName: __ZNSt3__120__l_anchor_multilineIcED0Ev, symObjAddr: 0xB1C8, symBinAddr: 0x3465C, symSize: 0x48 }
  - { offset: 0x1A5BEC, size: 0x8, addend: 0x0, symName: __ZNSt3__120__l_anchor_multilineIcED0Ev, symObjAddr: 0xB1C8, symBinAddr: 0x3465C, symSize: 0x48 }
  - { offset: 0x1A5C17, size: 0x8, addend: 0x0, symName: __ZNKSt3__120__l_anchor_multilineIcE6__execERNS_7__stateIcEE, symObjAddr: 0xB210, symBinAddr: 0x346A4, symSize: 0x68 }
  - { offset: 0x1A5C7B, size: 0x8, addend: 0x0, symName: __ZNSt3__120__r_anchor_multilineIcED1Ev, symObjAddr: 0xB278, symBinAddr: 0x3470C, symSize: 0x48 }
  - { offset: 0x1A5C9F, size: 0x8, addend: 0x0, symName: __ZNSt3__120__r_anchor_multilineIcED1Ev, symObjAddr: 0xB278, symBinAddr: 0x3470C, symSize: 0x48 }
  - { offset: 0x1A5CBD, size: 0x8, addend: 0x0, symName: __ZNSt3__120__r_anchor_multilineIcED1Ev, symObjAddr: 0xB278, symBinAddr: 0x3470C, symSize: 0x48 }
  - { offset: 0x1A5D04, size: 0x8, addend: 0x0, symName: __ZNSt3__120__r_anchor_multilineIcED0Ev, symObjAddr: 0xB2C0, symBinAddr: 0x34754, symSize: 0x48 }
  - { offset: 0x1A5D34, size: 0x8, addend: 0x0, symName: __ZNSt3__120__r_anchor_multilineIcED0Ev, symObjAddr: 0xB2C0, symBinAddr: 0x34754, symSize: 0x48 }
  - { offset: 0x1A5D52, size: 0x8, addend: 0x0, symName: __ZNSt3__120__r_anchor_multilineIcED0Ev, symObjAddr: 0xB2C0, symBinAddr: 0x34754, symSize: 0x48 }
  - { offset: 0x1A5D70, size: 0x8, addend: 0x0, symName: __ZNSt3__120__r_anchor_multilineIcED0Ev, symObjAddr: 0xB2C0, symBinAddr: 0x34754, symSize: 0x48 }
  - { offset: 0x1A5D9B, size: 0x8, addend: 0x0, symName: __ZNKSt3__120__r_anchor_multilineIcE6__execERNS_7__stateIcEE, symObjAddr: 0xB308, symBinAddr: 0x3479C, symSize: 0x54 }
  - { offset: 0x1A5DFF, size: 0x8, addend: 0x0, symName: __ZNSt3__115__word_boundaryIcNS_12regex_traitsIcEEED1Ev, symObjAddr: 0xB35C, symBinAddr: 0x347F0, symSize: 0x58 }
  - { offset: 0x1A5EAF, size: 0x8, addend: 0x0, symName: __ZNSt3__115__word_boundaryIcNS_12regex_traitsIcEEED0Ev, symObjAddr: 0xB3B4, symBinAddr: 0x34848, symSize: 0x58 }
  - { offset: 0x1A5FC9, size: 0x8, addend: 0x0, symName: __ZNKSt3__115__word_boundaryIcNS_12regex_traitsIcEEE6__execERNS_7__stateIcEE, symObjAddr: 0xB40C, symBinAddr: 0x348A0, symSize: 0x154 }
  - { offset: 0x1A6187, size: 0x8, addend: 0x0, symName: __ZNSt3__111__lookaheadIcNS_12regex_traitsIcEEED1Ev, symObjAddr: 0xB560, symBinAddr: 0x349F4, symSize: 0x8C }
  - { offset: 0x1A62E7, size: 0x8, addend: 0x0, symName: __ZNSt3__111__lookaheadIcNS_12regex_traitsIcEEED0Ev, symObjAddr: 0xB5EC, symBinAddr: 0x34A80, symSize: 0x8C }
  - { offset: 0x1A6518, size: 0x8, addend: 0x0, symName: __ZNKSt3__111__lookaheadIcNS_12regex_traitsIcEEE6__execERNS_7__stateIcEE, symObjAddr: 0xB678, symBinAddr: 0x34B0C, symSize: 0x174 }
  - { offset: 0x1A6A79, size: 0x8, addend: 0x0, symName: __ZNSt3__16vectorINS_9sub_matchIPKcEENS_9allocatorIS4_EEE6assignEmRKS4_, symObjAddr: 0xBC70, symBinAddr: 0x35104, symSize: 0x1D8 }
  - { offset: 0x1A7008, size: 0x8, addend: 0x0, symName: __ZNKSt3__16vectorINS_9sub_matchIPKcEENS_9allocatorIS4_EEE20__throw_length_errorB8ne190102Ev, symObjAddr: 0xBE48, symBinAddr: 0x352DC, symSize: 0x14 }
  - { offset: 0x1A701A, size: 0x8, addend: 0x0, symName: __ZNKSt3__111basic_regexIcNS_12regex_traitsIcEEE21__match_at_start_ecmaINS_9allocatorINS_9sub_matchIPKcEEEEEEbS8_S8_RNS_13match_resultsIS8_T_EENS_15regex_constants15match_flag_typeEb, symObjAddr: 0xB7EC, symBinAddr: 0x34C80, symSize: 0x484 }
  - { offset: 0x1A88F2, size: 0x8, addend: 0x0, symName: __ZNSt3__16vectorINS_7__stateIcEENS_9allocatorIS2_EEE21__push_back_slow_pathIS2_EEPS2_OT_, symObjAddr: 0xBFB4, symBinAddr: 0x35448, symSize: 0x180 }
  - { offset: 0x1A9045, size: 0x8, addend: 0x0, symName: __ZNSt3__16vectorINS_9sub_matchIPKcEENS_9allocatorIS4_EEE8__appendEmRKS4_, symObjAddr: 0xC2E0, symBinAddr: 0x35774, symSize: 0x18C }
  - { offset: 0x1A94AD, size: 0x8, addend: 0x0, symName: __ZNSt3__16vectorINS_4pairImPKcEENS_9allocatorIS4_EEE8__appendEm, symObjAddr: 0xC46C, symBinAddr: 0x35900, symSize: 0x124 }
  - { offset: 0x1A94B8, size: 0x8, addend: 0x0, symName: __ZNSt3__16vectorINS_4pairImPKcEENS_9allocatorIS4_EEE8__appendEm, symObjAddr: 0xC46C, symBinAddr: 0x35900, symSize: 0x124 }
  - { offset: 0x1A990B, size: 0x8, addend: 0x0, symName: __ZNKSt3__16vectorINS_4pairImPKcEENS_9allocatorIS4_EEE20__throw_length_errorB8ne190102Ev, symObjAddr: 0xC590, symBinAddr: 0x35A24, symSize: 0x14 }
  - { offset: 0x1A9916, size: 0x8, addend: 0x0, symName: __ZNSt3__17__stateIcEC2ERKS1_, symObjAddr: 0xC5A4, symBinAddr: 0x35A38, symSize: 0x174 }
  - { offset: 0x1A9F72, size: 0x8, addend: 0x0, symName: __ZNSt3__16vectorINS_7__stateIcEENS_9allocatorIS2_EEED1B8ne190102Ev, symObjAddr: 0xBF34, symBinAddr: 0x353C8, symSize: 0x80 }
  - { offset: 0x1AA39D, size: 0x8, addend: 0x0, symName: __ZNSt3__17__stateIcED1Ev, symObjAddr: 0xBE5C, symBinAddr: 0x352F0, symSize: 0x40 }
  - { offset: 0x1AA8DA, size: 0x8, addend: 0x0, symName: __ZNKSt3__16vectorINS_9sub_matchIPKcEENS_9allocatorIS4_EEE20__throw_length_errorB8ne190102Ev, symObjAddr: 0xBE48, symBinAddr: 0x352DC, symSize: 0x14 }
  - { offset: 0x1AA904, size: 0x8, addend: 0x0, symName: __ZNSt3__17__stateIcED1Ev, symObjAddr: 0xBE5C, symBinAddr: 0x352F0, symSize: 0x40 }
  - { offset: 0x1AAB6F, size: 0x8, addend: 0x0, symName: __ZNSt3__16vectorINS_7__stateIcEENS_9allocatorIS2_EEE26__swap_out_circular_bufferERNS_14__split_bufferIS2_RS4_EE, symObjAddr: 0xC134, symBinAddr: 0x355C8, symSize: 0x124 }
  - { offset: 0x1AB11E, size: 0x8, addend: 0x0, symName: __ZNKSt3__16vectorINS_7__stateIcEENS_9allocatorIS2_EEE20__throw_length_errorB8ne190102Ev, symObjAddr: 0xC2CC, symBinAddr: 0x35760, symSize: 0x14 }
  - { offset: 0x1AB148, size: 0x8, addend: 0x0, symName: __ZNSt3__16vectorINS_9sub_matchIPKcEENS_9allocatorIS4_EEE8__appendEmRKS4_, symObjAddr: 0xC2E0, symBinAddr: 0x35774, symSize: 0x18C }
  - { offset: 0x1AB153, size: 0x8, addend: 0x0, symName: __ZNSt3__114__split_bufferINS_7__stateIcEERNS_9allocatorIS2_EEED1Ev, symObjAddr: 0xC258, symBinAddr: 0x356EC, symSize: 0x74 }
  - { offset: 0x1AB9FA, size: 0x8, addend: 0x0, symName: __ZNKSt3__16vectorINS_4pairImPKcEENS_9allocatorIS4_EEE20__throw_length_errorB8ne190102Ev, symObjAddr: 0xC590, symBinAddr: 0x35A24, symSize: 0x14 }
  - { offset: 0x1ABA24, size: 0x8, addend: 0x0, symName: __ZNSt3__17__stateIcEC2ERKS1_, symObjAddr: 0xC5A4, symBinAddr: 0x35A38, symSize: 0x174 }
  - { offset: 0x1ABE57, size: 0x8, addend: 0x0, symName: __ZNSt3__111basic_regexIcNS_12regex_traitsIcEEE11__push_charEc, symObjAddr: 0xD148, symBinAddr: 0x365DC, symSize: 0x13C }
  - { offset: 0x1AC1C2, size: 0x8, addend: 0x0, symName: __ZNSt3__111basic_regexIcNS_12regex_traitsIcEEE15__push_back_refEi, symObjAddr: 0xD2D0, symBinAddr: 0x36764, symSize: 0xCC }
  - { offset: 0x1AC376, size: 0x8, addend: 0x0, symName: __ZNSt3__111basic_regexIcNS_12regex_traitsIcEEE30__parse_character_class_escapeINS_11__wrap_iterIPKcEEEET_S9_S9_, symObjAddr: 0xCB60, symBinAddr: 0x35FF4, symSize: 0x25C }
  - { offset: 0x1AC7E5, size: 0x8, addend: 0x0, symName: __ZNSt3__111basic_regexIcNS_12regex_traitsIcEEE24__parse_character_escapeINS_11__wrap_iterIPKcEEEET_S9_S9_PNS_12basic_stringIcNS_11char_traitsIcEENS_9allocatorIcEEEE, symObjAddr: 0xCDBC, symBinAddr: 0x36250, symSize: 0x38C }
  - { offset: 0x1ACBAF, size: 0x8, addend: 0x0, symName: __ZNSt3__111basic_regexIcNS_12regex_traitsIcEEE11__push_charEc, symObjAddr: 0xD148, symBinAddr: 0x365DC, symSize: 0x13C }
  - { offset: 0x1ACC9A, size: 0x8, addend: 0x0, symName: __ZNSt3__120__bracket_expressionIcNS_12regex_traitsIcEEEC2B8ne190102ERKS2_PNS_6__nodeIcEEbbb, symObjAddr: 0xDC78, symBinAddr: 0x3710C, symSize: 0x19C }
  - { offset: 0x1AD36A, size: 0x8, addend: 0x0, symName: __ZNSt3__120__bracket_expressionIcNS_12regex_traitsIcEEE10__add_charB8ne190102Ec, symObjAddr: 0xDAE8, symBinAddr: 0x36F7C, symSize: 0x190 }
  - { offset: 0x1AD5F4, size: 0x8, addend: 0x0, symName: __ZNSt3__120__bracket_expressionIcNS_12regex_traitsIcEEEC2B8ne190102ERKS2_PNS_6__nodeIcEEbbb, symObjAddr: 0xDC78, symBinAddr: 0x3710C, symSize: 0x19C }
  - { offset: 0x1AD606, size: 0x8, addend: 0x0, symName: __ZNSt3__111basic_regexIcNS_12regex_traitsIcEEE23__parse_expression_termINS_11__wrap_iterIPKcEEEET_S9_S9_PNS_20__bracket_expressionIcS2_EE, symObjAddr: 0xEEE4, symBinAddr: 0x382F4, symSize: 0x454 }
  - { offset: 0x1AE436, size: 0x8, addend: 0x0, symName: __ZNSt3__123__match_any_but_newlineIcED1Ev, symObjAddr: 0xCA84, symBinAddr: 0x35F18, symSize: 0x48 }
  - { offset: 0x1AE45A, size: 0x8, addend: 0x0, symName: __ZNSt3__123__match_any_but_newlineIcED1Ev, symObjAddr: 0xCA84, symBinAddr: 0x35F18, symSize: 0x48 }
  - { offset: 0x1AE478, size: 0x8, addend: 0x0, symName: __ZNSt3__123__match_any_but_newlineIcED1Ev, symObjAddr: 0xCA84, symBinAddr: 0x35F18, symSize: 0x48 }
  - { offset: 0x1AE4BF, size: 0x8, addend: 0x0, symName: __ZNSt3__123__match_any_but_newlineIcED0Ev, symObjAddr: 0xCACC, symBinAddr: 0x35F60, symSize: 0x48 }
  - { offset: 0x1AE4EF, size: 0x8, addend: 0x0, symName: __ZNSt3__123__match_any_but_newlineIcED0Ev, symObjAddr: 0xCACC, symBinAddr: 0x35F60, symSize: 0x48 }
  - { offset: 0x1AE50D, size: 0x8, addend: 0x0, symName: __ZNSt3__123__match_any_but_newlineIcED0Ev, symObjAddr: 0xCACC, symBinAddr: 0x35F60, symSize: 0x48 }
  - { offset: 0x1AE52B, size: 0x8, addend: 0x0, symName: __ZNSt3__123__match_any_but_newlineIcED0Ev, symObjAddr: 0xCACC, symBinAddr: 0x35F60, symSize: 0x48 }
  - { offset: 0x1AE95D, size: 0x8, addend: 0x0, symName: __ZNSt3__118__match_char_icaseIcNS_12regex_traitsIcEEED1Ev, symObjAddr: 0xD39C, symBinAddr: 0x36830, symSize: 0x58 }
  - { offset: 0x1AEA0D, size: 0x8, addend: 0x0, symName: __ZNSt3__118__match_char_icaseIcNS_12regex_traitsIcEEED0Ev, symObjAddr: 0xD3F4, symBinAddr: 0x36888, symSize: 0x58 }
  - { offset: 0x1AEAC9, size: 0x8, addend: 0x0, symName: __ZNKSt3__118__match_char_icaseIcNS_12regex_traitsIcEEE6__execERNS_7__stateIcEE, symObjAddr: 0xD44C, symBinAddr: 0x368E0, symSize: 0x84 }
  - { offset: 0x1AEB82, size: 0x8, addend: 0x0, symName: __ZNSt3__120__match_char_collateIcNS_12regex_traitsIcEEED1Ev, symObjAddr: 0xD4D0, symBinAddr: 0x36964, symSize: 0x58 }
  - { offset: 0x1AEC32, size: 0x8, addend: 0x0, symName: __ZNSt3__120__match_char_collateIcNS_12regex_traitsIcEEED0Ev, symObjAddr: 0xD528, symBinAddr: 0x369BC, symSize: 0x58 }
  - { offset: 0x1AECEE, size: 0x8, addend: 0x0, symName: __ZNKSt3__120__match_char_collateIcNS_12regex_traitsIcEEE6__execERNS_7__stateIcEE, symObjAddr: 0xD580, symBinAddr: 0x36A14, symSize: 0x48 }
  - { offset: 0x1AED5B, size: 0x8, addend: 0x0, symName: __ZNSt3__112__match_charIcED1Ev, symObjAddr: 0xD5C8, symBinAddr: 0x36A5C, symSize: 0x48 }
  - { offset: 0x1AED7F, size: 0x8, addend: 0x0, symName: __ZNSt3__112__match_charIcED1Ev, symObjAddr: 0xD5C8, symBinAddr: 0x36A5C, symSize: 0x48 }
  - { offset: 0x1AED9D, size: 0x8, addend: 0x0, symName: __ZNSt3__112__match_charIcED1Ev, symObjAddr: 0xD5C8, symBinAddr: 0x36A5C, symSize: 0x48 }
  - { offset: 0x1AEDE4, size: 0x8, addend: 0x0, symName: __ZNSt3__112__match_charIcED0Ev, symObjAddr: 0xD610, symBinAddr: 0x36AA4, symSize: 0x48 }
  - { offset: 0x1AEE14, size: 0x8, addend: 0x0, symName: __ZNSt3__112__match_charIcED0Ev, symObjAddr: 0xD610, symBinAddr: 0x36AA4, symSize: 0x48 }
  - { offset: 0x1AEE32, size: 0x8, addend: 0x0, symName: __ZNSt3__112__match_charIcED0Ev, symObjAddr: 0xD610, symBinAddr: 0x36AA4, symSize: 0x48 }
  - { offset: 0x1AEE50, size: 0x8, addend: 0x0, symName: __ZNSt3__112__match_charIcED0Ev, symObjAddr: 0xD610, symBinAddr: 0x36AA4, symSize: 0x48 }
  - { offset: 0x1AEE7B, size: 0x8, addend: 0x0, symName: __ZNKSt3__112__match_charIcE6__execERNS_7__stateIcEE, symObjAddr: 0xD658, symBinAddr: 0x36AEC, symSize: 0x48 }
  - { offset: 0x1AEEE8, size: 0x8, addend: 0x0, symName: __ZNSt3__116__back_ref_icaseIcNS_12regex_traitsIcEEED1Ev, symObjAddr: 0xD6A0, symBinAddr: 0x36B34, symSize: 0x58 }
  - { offset: 0x1AEF98, size: 0x8, addend: 0x0, symName: __ZNSt3__116__back_ref_icaseIcNS_12regex_traitsIcEEED0Ev, symObjAddr: 0xD6F8, symBinAddr: 0x36B8C, symSize: 0x58 }
  - { offset: 0x1AF054, size: 0x8, addend: 0x0, symName: __ZNKSt3__116__back_ref_icaseIcNS_12regex_traitsIcEEE6__execERNS_7__stateIcEE, symObjAddr: 0xD750, symBinAddr: 0x36BE4, symSize: 0xFC }
  - { offset: 0x1AF1BB, size: 0x8, addend: 0x0, symName: __ZNSt3__118__back_ref_collateIcNS_12regex_traitsIcEEED1Ev, symObjAddr: 0xD84C, symBinAddr: 0x36CE0, symSize: 0x58 }
  - { offset: 0x1AF26B, size: 0x8, addend: 0x0, symName: __ZNSt3__118__back_ref_collateIcNS_12regex_traitsIcEEED0Ev, symObjAddr: 0xD8A4, symBinAddr: 0x36D38, symSize: 0x58 }
  - { offset: 0x1AF327, size: 0x8, addend: 0x0, symName: __ZNKSt3__118__back_ref_collateIcNS_12regex_traitsIcEEE6__execERNS_7__stateIcEE, symObjAddr: 0xD8FC, symBinAddr: 0x36D90, symSize: 0x8C }
  - { offset: 0x1AF3F8, size: 0x8, addend: 0x0, symName: __ZNSt3__110__back_refIcED1Ev, symObjAddr: 0xD988, symBinAddr: 0x36E1C, symSize: 0x48 }
  - { offset: 0x1AF41C, size: 0x8, addend: 0x0, symName: __ZNSt3__110__back_refIcED1Ev, symObjAddr: 0xD988, symBinAddr: 0x36E1C, symSize: 0x48 }
  - { offset: 0x1AF43A, size: 0x8, addend: 0x0, symName: __ZNSt3__110__back_refIcED1Ev, symObjAddr: 0xD988, symBinAddr: 0x36E1C, symSize: 0x48 }
  - { offset: 0x1AF481, size: 0x8, addend: 0x0, symName: __ZNSt3__110__back_refIcED0Ev, symObjAddr: 0xD9D0, symBinAddr: 0x36E64, symSize: 0x48 }
  - { offset: 0x1AF4B1, size: 0x8, addend: 0x0, symName: __ZNSt3__110__back_refIcED0Ev, symObjAddr: 0xD9D0, symBinAddr: 0x36E64, symSize: 0x48 }
  - { offset: 0x1AF4CF, size: 0x8, addend: 0x0, symName: __ZNSt3__110__back_refIcED0Ev, symObjAddr: 0xD9D0, symBinAddr: 0x36E64, symSize: 0x48 }
  - { offset: 0x1AF4ED, size: 0x8, addend: 0x0, symName: __ZNSt3__110__back_refIcED0Ev, symObjAddr: 0xD9D0, symBinAddr: 0x36E64, symSize: 0x48 }
  - { offset: 0x1AF518, size: 0x8, addend: 0x0, symName: __ZNKSt3__110__back_refIcE6__execERNS_7__stateIcEE, symObjAddr: 0xDA18, symBinAddr: 0x36EAC, symSize: 0xD0 }
  - { offset: 0x1AF690, size: 0x8, addend: 0x0, symName: __ZNSt3__120__bracket_expressionIcNS_12regex_traitsIcEEE10__add_charB8ne190102Ec, symObjAddr: 0xDAE8, symBinAddr: 0x36F7C, symSize: 0x190 }
  - { offset: 0x1AF8F0, size: 0x8, addend: 0x0, symName: __ZNKSt3__16vectorIcNS_9allocatorIcEEE20__throw_length_errorB8ne190102Ev, symObjAddr: 0xEE84, symBinAddr: 0x38294, symSize: 0x14 }
  - { offset: 0x1AF91A, size: 0x8, addend: 0x0, symName: __ZNSt3__119__throw_regex_errorB8ne190102ILNS_15regex_constants10error_typeE5EEEvv, symObjAddr: 0xEE98, symBinAddr: 0x382A8, symSize: 0x4C }
  - { offset: 0x1AFCEA, size: 0x8, addend: 0x0, symName: __ZNSt3__16vectorINS_4pairINS_12basic_stringIcNS_11char_traitsIcEENS_9allocatorIcEEEES7_EENS5_IS8_EEED1B8ne190102Ev, symObjAddr: 0xDE84, symBinAddr: 0x372A8, symSize: 0x94 }
  - { offset: 0x1B032A, size: 0x8, addend: 0x0, symName: __ZNSt3__120__bracket_expressionIcNS_12regex_traitsIcEEED1Ev, symObjAddr: 0xDF18, symBinAddr: 0x3733C, symSize: 0x4 }
  - { offset: 0x1B034D, size: 0x8, addend: 0x0, symName: __ZNSt3__120__bracket_expressionIcNS_12regex_traitsIcEEED1Ev, symObjAddr: 0xDF18, symBinAddr: 0x3733C, symSize: 0x4 }
  - { offset: 0x1B0360, size: 0x8, addend: 0x0, symName: __ZNSt3__120__bracket_expressionIcNS_12regex_traitsIcEEED2Ev, symObjAddr: 0xE820, symBinAddr: 0x37C30, symSize: 0x148 }
  - { offset: 0x1B0E11, size: 0x8, addend: 0x0, symName: __ZNSt3__120__bracket_expressionIcNS_12regex_traitsIcEEED0Ev, symObjAddr: 0xDF1C, symBinAddr: 0x37340, symSize: 0x14 }
  - { offset: 0x1B125B, size: 0x8, addend: 0x0, symName: __ZNKSt3__120__bracket_expressionIcNS_12regex_traitsIcEEE6__execERNS_7__stateIcEE, symObjAddr: 0xDF30, symBinAddr: 0x37354, symSize: 0x884 }
  - { offset: 0x1B2B56, size: 0x8, addend: 0x0, symName: __ZNKSt3__112regex_traitsIcE20__lookup_collatenameIPcEENS_12basic_stringIcNS_11char_traitsIcEENS_9allocatorIcEEEET_SA_c, symObjAddr: 0xEAA0, symBinAddr: 0x37EB0, symSize: 0x240 }
  - { offset: 0x1B3720, size: 0x8, addend: 0x0, symName: __ZNKSt3__112regex_traitsIcE9transformIPcEENS_12basic_stringIcNS_11char_traitsIcEENS_9allocatorIcEEEET_SA_, symObjAddr: 0xE968, symBinAddr: 0x37D78, symSize: 0x138 }
  - { offset: 0x1B3D19, size: 0x8, addend: 0x0, symName: __ZNKSt3__112regex_traitsIcE19__transform_primaryIPcEENS_12basic_stringIcNS_11char_traitsIcEENS_9allocatorIcEEEET_SA_c, symObjAddr: 0xECE0, symBinAddr: 0x380F0, symSize: 0x1A4 }
  - { offset: 0x1B4495, size: 0x8, addend: 0x0, symName: __ZNSt3__14pairINS_12basic_stringIcNS_11char_traitsIcEENS_9allocatorIcEEEES6_ED1Ev, symObjAddr: 0xE7C8, symBinAddr: 0x37BD8, symSize: 0x58 }
  - { offset: 0x1B47D0, size: 0x8, addend: 0x0, symName: __ZNSt3__111basic_regexIcNS_12regex_traitsIcEEE25__parse_equivalence_classINS_11__wrap_iterIPKcEEEET_S9_S9_PNS_20__bracket_expressionIcS2_EE, symObjAddr: 0xF338, symBinAddr: 0x38748, symSize: 0x28C }
  - { offset: 0x1B5263, size: 0x8, addend: 0x0, symName: __ZNSt3__111basic_regexIcNS_12regex_traitsIcEEE18__parse_awk_escapeINS_11__wrap_iterIPKcEEEET_S9_S9_PNS_12basic_stringIcNS_11char_traitsIcEENS_9allocatorIcEEEE, symObjAddr: 0xF8D8, symBinAddr: 0x38CE8, symSize: 0x2F8 }
  - { offset: 0x1B5440, size: 0x8, addend: 0x0, symName: __ZNSt3__120__bracket_expressionIcNS_12regex_traitsIcEEE11__add_rangeB8ne190102ENS_12basic_stringIcNS_11char_traitsIcEENS_9allocatorIcEEEES9_, symObjAddr: 0xFBD0, symBinAddr: 0x38FE0, symSize: 0x608 }
  - { offset: 0x1B5454, size: 0x8, addend: 0x0, symName: __ZNSt3__111basic_regexIcNS_12regex_traitsIcEEE24__parse_collating_symbolINS_11__wrap_iterIPKcEEEET_S9_S9_RNS_12basic_stringIcNS_11char_traitsIcEENS_9allocatorIcEEEE, symObjAddr: 0xF670, symBinAddr: 0x38A80, symSize: 0xE0 }
  - { offset: 0x1B57BD, size: 0x8, addend: 0x0, symName: __ZNSt3__111basic_regexIcNS_12regex_traitsIcEEE20__parse_class_escapeINS_11__wrap_iterIPKcEEEET_S9_S9_RNS_12basic_stringIcNS_11char_traitsIcEENS_9allocatorIcEEEEPNS_20__bracket_expressionIcS2_EE, symObjAddr: 0xF750, symBinAddr: 0x38B60, symSize: 0x188 }
  - { offset: 0x1B57D1, size: 0x8, addend: 0x0, symName: __ZNSt3__111basic_regexIcNS_12regex_traitsIcEEE23__parse_character_classINS_11__wrap_iterIPKcEEEET_S9_S9_PNS_20__bracket_expressionIcS2_EE, symObjAddr: 0xF5C4, symBinAddr: 0x389D4, symSize: 0xAC }
  - { offset: 0x1B5A27, size: 0x8, addend: 0x0, symName: __ZNSt3__111basic_regexIcNS_12regex_traitsIcEEE24__parse_collating_symbolINS_11__wrap_iterIPKcEEEET_S9_S9_RNS_12basic_stringIcNS_11char_traitsIcEENS_9allocatorIcEEEE, symObjAddr: 0xF670, symBinAddr: 0x38A80, symSize: 0xE0 }
  - { offset: 0x1B5A47, size: 0x8, addend: 0x0, symName: __ZNSt3__120__bracket_expressionIcNS_12regex_traitsIcEEE13__add_digraphB8ne190102Ecc, symObjAddr: 0x101D8, symBinAddr: 0x395E8, symSize: 0x224 }
  - { offset: 0x1B637F, size: 0x8, addend: 0x0, symName: __ZNSt3__119__throw_regex_errorB8ne190102ILNS_15regex_constants10error_typeE1EEEvv, symObjAddr: 0x103FC, symBinAddr: 0x3980C, symSize: 0x4C }
  - { offset: 0x1B638A, size: 0x8, addend: 0x0, symName: __ZNSt3__111basic_regexIcNS_12regex_traitsIcEEE20__parse_class_escapeINS_11__wrap_iterIPKcEEEET_S9_S9_RNS_12basic_stringIcNS_11char_traitsIcEENS_9allocatorIcEEEEPNS_20__bracket_expressionIcS2_EE, symObjAddr: 0xF750, symBinAddr: 0x38B60, symSize: 0x188 }
  - { offset: 0x1B655E, size: 0x8, addend: 0x0, symName: __ZNSt3__111basic_regexIcNS_12regex_traitsIcEEE18__parse_awk_escapeINS_11__wrap_iterIPKcEEEET_S9_S9_PNS_12basic_stringIcNS_11char_traitsIcEENS_9allocatorIcEEEE, symObjAddr: 0xF8D8, symBinAddr: 0x38CE8, symSize: 0x2F8 }
  - { offset: 0x1B6572, size: 0x8, addend: 0x0, symName: __ZNSt3__120__bracket_expressionIcNS_12regex_traitsIcEEE11__add_rangeB8ne190102ENS_12basic_stringIcNS_11char_traitsIcEENS_9allocatorIcEEEES9_, symObjAddr: 0xFBD0, symBinAddr: 0x38FE0, symSize: 0x608 }
  - { offset: 0x1B8136, size: 0x8, addend: 0x0, symName: __ZNKSt3__112regex_traitsIcE20__lookup_collatenameINS_11__wrap_iterIPKcEEEENS_12basic_stringIcNS_11char_traitsIcEENS_9allocatorIcEEEET_SD_c, symObjAddr: 0x10448, symBinAddr: 0x39858, symSize: 0x240 }
  - { offset: 0x1B8D15, size: 0x8, addend: 0x0, symName: __ZNKSt3__112regex_traitsIcE19__transform_primaryINS_11__wrap_iterIPcEEEENS_12basic_stringIcNS_11char_traitsIcEENS_9allocatorIcEEEET_SC_c, symObjAddr: 0x10688, symBinAddr: 0x39A98, symSize: 0x1A4 }
  - { offset: 0x1B94A6, size: 0x8, addend: 0x0, symName: __ZNSt3__16vectorINS_12basic_stringIcNS_11char_traitsIcEENS_9allocatorIcEEEENS4_IS6_EEE21__push_back_slow_pathIRKS6_EEPS6_OT_, symObjAddr: 0x1082C, symBinAddr: 0x39C3C, symSize: 0x158 }
  - { offset: 0x1B9982, size: 0x8, addend: 0x0, symName: __ZNKSt3__112regex_traitsIcE18__lookup_classnameINS_11__wrap_iterIPKcEEEEjT_S7_bc, symObjAddr: 0x10A48, symBinAddr: 0x39E44, symSize: 0x158 }
  - { offset: 0x1BA08D, size: 0x8, addend: 0x0, symName: __ZNSt3__120__bracket_expressionIcNS_12regex_traitsIcEEE14__add_neg_charB8ne190102Ec, symObjAddr: 0x10BA0, symBinAddr: 0x39F9C, symSize: 0x190 }
  - { offset: 0x1BA317, size: 0x8, addend: 0x0, symName: __ZNKSt3__112regex_traitsIcE9transformINS_11__wrap_iterIPcEEEENS_12basic_stringIcNS_11char_traitsIcEENS_9allocatorIcEEEET_SC_, symObjAddr: 0x10D30, symBinAddr: 0x3A12C, symSize: 0x138 }
  - { offset: 0x1BA6F2, size: 0x8, addend: 0x0, symName: __ZNKSt3__112regex_traitsIcE9transformINS_11__wrap_iterIPcEEEENS_12basic_stringIcNS_11char_traitsIcEENS_9allocatorIcEEEET_SC_, symObjAddr: 0x10D30, symBinAddr: 0x3A12C, symSize: 0x138 }
  - { offset: 0x1BAD24, size: 0x8, addend: 0x0, symName: __ZNKSt3__16vectorINS_4pairINS_12basic_stringIcNS_11char_traitsIcEENS_9allocatorIcEEEES7_EENS5_IS8_EEE20__throw_length_errorB8ne190102Ev, symObjAddr: 0x10EB4, symBinAddr: 0x3A2B0, symSize: 0x14 }
  - { offset: 0x1BAD4E, size: 0x8, addend: 0x0, symName: __ZNKSt3__16vectorINS_4pairIccEENS_9allocatorIS2_EEE20__throw_length_errorB8ne190102Ev, symObjAddr: 0x10EC8, symBinAddr: 0x3A2C4, symSize: 0x14 }
  - { offset: 0x1BB02C, size: 0x8, addend: 0x0, symName: __ZNKSt3__16vectorINS_4pairIccEENS_9allocatorIS2_EEE20__throw_length_errorB8ne190102Ev, symObjAddr: 0x10EC8, symBinAddr: 0x3A2C4, symSize: 0x14 }
  - { offset: 0x1BB056, size: 0x8, addend: 0x0, symName: __ZNSt3__128__begin_marked_subexpressionIcED1Ev, symObjAddr: 0x10EDC, symBinAddr: 0x3A2D8, symSize: 0x48 }
  - { offset: 0x1BB5B8, size: 0x8, addend: 0x0, symName: __ZNSt3__119__throw_regex_errorB8ne190102ILNS_15regex_constants10error_typeE2EEEvv, symObjAddr: 0x109FC, symBinAddr: 0x39DF8, symSize: 0x4C }
  - { offset: 0x1BB5C3, size: 0x8, addend: 0x0, symName: __ZNSt3__114__split_bufferINS_12basic_stringIcNS_11char_traitsIcEENS_9allocatorIcEEEERNS4_IS6_EEED1Ev, symObjAddr: 0x10984, symBinAddr: 0x39D94, symSize: 0x64 }
  - { offset: 0x1BB8B4, size: 0x8, addend: 0x0, symName: __ZNSt3__128__begin_marked_subexpressionIcED1Ev, symObjAddr: 0x10EDC, symBinAddr: 0x3A2D8, symSize: 0x48 }
  - { offset: 0x1BB8D8, size: 0x8, addend: 0x0, symName: __ZNSt3__128__begin_marked_subexpressionIcED1Ev, symObjAddr: 0x10EDC, symBinAddr: 0x3A2D8, symSize: 0x48 }
  - { offset: 0x1BB8F6, size: 0x8, addend: 0x0, symName: __ZNSt3__128__begin_marked_subexpressionIcED1Ev, symObjAddr: 0x10EDC, symBinAddr: 0x3A2D8, symSize: 0x48 }
  - { offset: 0x1BB93D, size: 0x8, addend: 0x0, symName: __ZNSt3__128__begin_marked_subexpressionIcED0Ev, symObjAddr: 0x10F24, symBinAddr: 0x3A320, symSize: 0x48 }
  - { offset: 0x1BB96D, size: 0x8, addend: 0x0, symName: __ZNSt3__128__begin_marked_subexpressionIcED0Ev, symObjAddr: 0x10F24, symBinAddr: 0x3A320, symSize: 0x48 }
  - { offset: 0x1BB98B, size: 0x8, addend: 0x0, symName: __ZNSt3__128__begin_marked_subexpressionIcED0Ev, symObjAddr: 0x10F24, symBinAddr: 0x3A320, symSize: 0x48 }
  - { offset: 0x1BB9A9, size: 0x8, addend: 0x0, symName: __ZNSt3__128__begin_marked_subexpressionIcED0Ev, symObjAddr: 0x10F24, symBinAddr: 0x3A320, symSize: 0x48 }
  - { offset: 0x1BB9D4, size: 0x8, addend: 0x0, symName: __ZNKSt3__128__begin_marked_subexpressionIcE6__execERNS_7__stateIcEE, symObjAddr: 0x10F6C, symBinAddr: 0x3A368, symSize: 0x30 }
  - { offset: 0x1BBA60, size: 0x8, addend: 0x0, symName: __ZNSt3__126__end_marked_subexpressionIcED1Ev, symObjAddr: 0x10F9C, symBinAddr: 0x3A398, symSize: 0x48 }
  - { offset: 0x1BBA84, size: 0x8, addend: 0x0, symName: __ZNSt3__126__end_marked_subexpressionIcED1Ev, symObjAddr: 0x10F9C, symBinAddr: 0x3A398, symSize: 0x48 }
  - { offset: 0x1BBAA2, size: 0x8, addend: 0x0, symName: __ZNSt3__126__end_marked_subexpressionIcED1Ev, symObjAddr: 0x10F9C, symBinAddr: 0x3A398, symSize: 0x48 }
  - { offset: 0x1BBAE9, size: 0x8, addend: 0x0, symName: __ZNSt3__126__end_marked_subexpressionIcED0Ev, symObjAddr: 0x10FE4, symBinAddr: 0x3A3E0, symSize: 0x48 }
  - { offset: 0x1BBB19, size: 0x8, addend: 0x0, symName: __ZNSt3__126__end_marked_subexpressionIcED0Ev, symObjAddr: 0x10FE4, symBinAddr: 0x3A3E0, symSize: 0x48 }
  - { offset: 0x1BBB37, size: 0x8, addend: 0x0, symName: __ZNSt3__126__end_marked_subexpressionIcED0Ev, symObjAddr: 0x10FE4, symBinAddr: 0x3A3E0, symSize: 0x48 }
  - { offset: 0x1BBB55, size: 0x8, addend: 0x0, symName: __ZNSt3__126__end_marked_subexpressionIcED0Ev, symObjAddr: 0x10FE4, symBinAddr: 0x3A3E0, symSize: 0x48 }
  - { offset: 0x1BBB80, size: 0x8, addend: 0x0, symName: __ZNKSt3__126__end_marked_subexpressionIcE6__execERNS_7__stateIcEE, symObjAddr: 0x1102C, symBinAddr: 0x3A428, symSize: 0x38 }
  - { offset: 0x1BBE85, size: 0x8, addend: 0x0, symName: __ZNSt3__16__loopIcED0Ev, symObjAddr: 0x1129C, symBinAddr: 0x3A698, symSize: 0x68 }
  - { offset: 0x1BBF76, size: 0x8, addend: 0x0, symName: __ZNSt3__16__loopIcED1Ev, symObjAddr: 0x11234, symBinAddr: 0x3A630, symSize: 0x68 }
  - { offset: 0x1BC098, size: 0x8, addend: 0x0, symName: __ZNKSt3__16__loopIcE6__execERNS_7__stateIcEE, symObjAddr: 0x11304, symBinAddr: 0x3A700, symSize: 0x1D8 }
  - { offset: 0x1BC1CB, size: 0x8, addend: 0x0, symName: __ZNKSt3__16__loopIcE12__exec_splitEbRNS_7__stateIcEE, symObjAddr: 0x114DC, symBinAddr: 0x3A8D8, symSize: 0xC8 }
  - { offset: 0x1BC29C, size: 0x8, addend: 0x0, symName: __ZNSt3__117__owns_two_statesIcED1Ev, symObjAddr: 0x115A4, symBinAddr: 0x3A9A0, symSize: 0x68 }
  - { offset: 0x1BC32A, size: 0x8, addend: 0x0, symName: __ZNSt3__117__owns_two_statesIcED0Ev, symObjAddr: 0x1160C, symBinAddr: 0x3AA08, symSize: 0x68 }
  - { offset: 0x1BC3C4, size: 0x8, addend: 0x0, symName: __ZNSt3__117__repeat_one_loopIcED1Ev, symObjAddr: 0x11674, symBinAddr: 0x3AA70, symSize: 0x4 }
  - { offset: 0x1BC3F0, size: 0x8, addend: 0x0, symName: __ZNSt3__117__repeat_one_loopIcED0Ev, symObjAddr: 0x11678, symBinAddr: 0x3AA74, symSize: 0x4 }
  - { offset: 0x1BC41C, size: 0x8, addend: 0x0, symName: __ZNKSt3__117__repeat_one_loopIcE6__execERNS_7__stateIcEE, symObjAddr: 0x1167C, symBinAddr: 0x3AA78, symSize: 0x14 }
  - { offset: 0x1BC489, size: 0x8, addend: 0x0, symName: __ZNSt3__111__alternateIcED1Ev, symObjAddr: 0x11690, symBinAddr: 0x3AA8C, symSize: 0x68 }
  - { offset: 0x1BC537, size: 0x8, addend: 0x0, symName: __ZNSt3__111__alternateIcED0Ev, symObjAddr: 0x116F8, symBinAddr: 0x3AAF4, symSize: 0x68 }
  - { offset: 0x1BC5F1, size: 0x8, addend: 0x0, symName: __ZNKSt3__111__alternateIcE6__execERNS_7__stateIcEE, symObjAddr: 0x11760, symBinAddr: 0x3AB5C, symSize: 0xC }
  - { offset: 0x1BC624, size: 0x8, addend: 0x0, symName: __ZNKSt3__111__alternateIcE12__exec_splitEbRNS_7__stateIcEE, symObjAddr: 0x1176C, symBinAddr: 0x3AB68, symSize: 0x24 }
  - { offset: 0x1BC66A, size: 0x8, addend: 0x0, symName: __ZNSt3__121__empty_non_own_stateIcED1Ev, symObjAddr: 0x11790, symBinAddr: 0x3AB8C, symSize: 0x4 }
  - { offset: 0x1BC696, size: 0x8, addend: 0x0, symName: __ZNSt3__121__empty_non_own_stateIcED0Ev, symObjAddr: 0x11794, symBinAddr: 0x3AB90, symSize: 0x4 }
  - { offset: 0x1BC6C2, size: 0x8, addend: 0x0, symName: __ZNKSt3__121__empty_non_own_stateIcE6__execERNS_7__stateIcEE, symObjAddr: 0x11798, symBinAddr: 0x3AB94, symSize: 0x14 }
  - { offset: 0x1BC811, size: 0x8, addend: 0x0, symName: __ZNSt3__111basic_regexIcNS_12regex_traitsIcEEE32__parse_one_char_or_coll_elem_REINS_11__wrap_iterIPKcEEEET_S9_S9_, symObjAddr: 0x11C88, symBinAddr: 0x3B084, symSize: 0x194 }
  - { offset: 0x1BCB9C, size: 0x8, addend: 0x0, symName: __ZNSt3__111__match_anyIcED1Ev, symObjAddr: 0x11E1C, symBinAddr: 0x3B218, symSize: 0x48 }
  - { offset: 0x1BCBC0, size: 0x8, addend: 0x0, symName: __ZNSt3__111__match_anyIcED1Ev, symObjAddr: 0x11E1C, symBinAddr: 0x3B218, symSize: 0x48 }
  - { offset: 0x1BCBDE, size: 0x8, addend: 0x0, symName: __ZNSt3__111__match_anyIcED1Ev, symObjAddr: 0x11E1C, symBinAddr: 0x3B218, symSize: 0x48 }
  - { offset: 0x1BCC25, size: 0x8, addend: 0x0, symName: __ZNSt3__111__match_anyIcED0Ev, symObjAddr: 0x11E64, symBinAddr: 0x3B260, symSize: 0x48 }
  - { offset: 0x1BCC55, size: 0x8, addend: 0x0, symName: __ZNSt3__111__match_anyIcED0Ev, symObjAddr: 0x11E64, symBinAddr: 0x3B260, symSize: 0x48 }
  - { offset: 0x1BCC73, size: 0x8, addend: 0x0, symName: __ZNSt3__111__match_anyIcED0Ev, symObjAddr: 0x11E64, symBinAddr: 0x3B260, symSize: 0x48 }
  - { offset: 0x1BCC91, size: 0x8, addend: 0x0, symName: __ZNSt3__111__match_anyIcED0Ev, symObjAddr: 0x11E64, symBinAddr: 0x3B260, symSize: 0x48 }
  - { offset: 0x1BCCBC, size: 0x8, addend: 0x0, symName: __ZNKSt3__111__match_anyIcE6__execERNS_7__stateIcEE, symObjAddr: 0x11EAC, symBinAddr: 0x3B2A8, symSize: 0x40 }
  - { offset: 0x1BCD0C, size: 0x8, addend: 0x0, symName: __ZNSt3__111basic_regexIcNS_12regex_traitsIcEEE15__test_back_refEc, symObjAddr: 0x11EEC, symBinAddr: 0x3B2E8, symSize: 0x60 }
  - { offset: 0x1BCE05, size: 0x8, addend: 0x0, symName: __ZNSt3__111basic_regexIcNS_12regex_traitsIcEEE22__parse_ERE_expressionINS_11__wrap_iterIPKcEEEET_S9_S9_, symObjAddr: 0x11F4C, symBinAddr: 0x3B348, symSize: 0x208 }
  - { offset: 0x1BCE10, size: 0x8, addend: 0x0, symName: __ZNSt3__111basic_regexIcNS_12regex_traitsIcEEE33__parse_one_char_or_coll_elem_EREINS_11__wrap_iterIPKcEEEET_S9_S9_, symObjAddr: 0x12154, symBinAddr: 0x3B550, symSize: 0x160 }
  - { offset: 0x1BD02C, size: 0x8, addend: 0x0, symName: __ZNSt3__111basic_regexIcNS_12regex_traitsIcEEE23__parse_QUOTED_CHAR_EREINS_11__wrap_iterIPKcEEEET_S9_S9_, symObjAddr: 0x122B4, symBinAddr: 0x3B6B0, symSize: 0xC8 }
  - { offset: 0x1BD1BC, size: 0x8, addend: 0x0, symName: __ZNSt3__128__exception_guard_exceptionsINS_29_AllocatorDestroyRangeReverseINS_9allocatorINS_6vectorI21llama_grammar_elementNS2_IS4_EEEEEEPS6_EEED1B8ne190102Ev, symObjAddr: 0x12504, symBinAddr: 0x3B874, symSize: 0x6C }
  - { offset: 0x1BD47E, size: 0x8, addend: 0x0, symName: __ZNSt3__128__exception_guard_exceptionsINS_29_AllocatorDestroyRangeReverseINS_9allocatorINS_6vectorIPK21llama_grammar_elementNS2_IS6_EEEEEEPS8_EEED1B8ne190102Ev, symObjAddr: 0x126F0, symBinAddr: 0x3BA60, symSize: 0x6C }
  - { offset: 0x1BD8B3, size: 0x8, addend: 0x0, symName: __ZNKSt3__111basic_regexIcNS_12regex_traitsIcEEE27__match_at_start_posix_subsINS_9allocatorINS_9sub_matchIPKcEEEEEEbS8_S8_RNS_13match_resultsIS8_T_EENS_15regex_constants15match_flag_typeEb, symObjAddr: 0x136F0, symBinAddr: 0x3CA60, symSize: 0x5AC }
  - { offset: 0x1BF710, size: 0x8, addend: 0x0, symName: __ZNKSt3__111basic_regexIcNS_12regex_traitsIcEEE29__match_at_start_posix_nosubsINS_9allocatorINS_9sub_matchIPKcEEEEEEbS8_S8_RNS_13match_resultsIS8_T_EENS_15regex_constants15match_flag_typeEb, symObjAddr: 0x12E00, symBinAddr: 0x3C170, symSize: 0x8F0 }
  - { offset: 0x1C1759, size: 0x8, addend: 0x0, symName: __ZNSt3__16vectorINS_9sub_matchINS_11__wrap_iterIPKcEEEENS_9allocatorIS6_EEE8__appendEm, symObjAddr: 0x150B0, symBinAddr: 0x3E420, symSize: 0x17C }
  - { offset: 0x1C1BF9, size: 0x8, addend: 0x0, symName: __ZNKSt3__16vectorINS_9sub_matchINS_11__wrap_iterIPKcEEEENS_9allocatorIS6_EEE20__throw_length_errorB8ne190102Ev, symObjAddr: 0x1522C, symBinAddr: 0x3E59C, symSize: 0x14 }
  - { offset: 0x1C2052, size: 0x8, addend: 0x0, symName: __ZNSt3__15dequeINS_7__stateIcEENS_9allocatorIS2_EEE19__add_back_capacityEv, symObjAddr: 0x13E6C, symBinAddr: 0x3D1DC, symSize: 0x558 }
  - { offset: 0x1C329E, size: 0x8, addend: 0x0, symName: __ZNSt3__15dequeINS_7__stateIcEENS_9allocatorIS2_EEE20__add_front_capacityEv, symObjAddr: 0x146D8, symBinAddr: 0x3DA48, symSize: 0x374 }
  - { offset: 0x1C4066, size: 0x8, addend: 0x0, symName: __ZNSt3__15dequeINS_7__stateIcEENS_9allocatorIS2_EEED1B8ne190102Ev, symObjAddr: 0x13DF8, symBinAddr: 0x3D168, symSize: 0x74 }
  - { offset: 0x1C4415, size: 0x8, addend: 0x0, symName: __ZNSt3__16vectorINS_9sub_matchIPKcEENS_9allocatorIS4_EEE18__assign_with_sizeB8ne190102IPS4_S9_EEvT_T0_l, symObjAddr: 0x14BDC, symBinAddr: 0x3DF4C, symSize: 0x204 }
  - { offset: 0x1C4BDC, size: 0x8, addend: 0x0, symName: __ZNSt3__16vectorINS_4pairImPKcEENS_9allocatorIS4_EEE18__assign_with_sizeB8ne190102IPS4_S9_EEvT_T0_l, symObjAddr: 0x14DE0, symBinAddr: 0x3E150, symSize: 0x2D0 }
  - { offset: 0x1C4C00, size: 0x8, addend: 0x0, symName: __ZNSt3__16vectorINS_4pairImPKcEENS_9allocatorIS4_EEE18__assign_with_sizeB8ne190102IPS4_S9_EEvT_T0_l, symObjAddr: 0x14DE0, symBinAddr: 0x3E150, symSize: 0x2D0 }
  - { offset: 0x1C538D, size: 0x8, addend: 0x0, symName: __ZNSt3__16vectorINS_9sub_matchINS_11__wrap_iterIPKcEEEENS_9allocatorIS6_EEE8__appendEm, symObjAddr: 0x150B0, symBinAddr: 0x3E420, symSize: 0x17C }
  - { offset: 0x1C53C7, size: 0x8, addend: 0x0, symName: __ZNSt3__15dequeINS_7__stateIcEENS_9allocatorIS2_EEE5clearEv, symObjAddr: 0x13C9C, symBinAddr: 0x3D00C, symSize: 0x15C }
  - { offset: 0x1C5E78, size: 0x8, addend: 0x0, symName: __ZNSt3__114__split_bufferIPNS_7__stateIcEENS_9allocatorIS3_EEE9push_backEOS3_, symObjAddr: 0x143C4, symBinAddr: 0x3D734, symSize: 0x184 }
  - { offset: 0x1C62EF, size: 0x8, addend: 0x0, symName: __ZNSt3__114__split_bufferIPNS_7__stateIcEENS_9allocatorIS3_EEE10push_frontEOS3_, symObjAddr: 0x14548, symBinAddr: 0x3D8B8, symSize: 0x190 }
  - { offset: 0x1C62FA, size: 0x8, addend: 0x0, symName: __ZNSt3__114__split_bufferIPNS_7__stateIcEENS_9allocatorIS3_EEE10push_frontEOS3_, symObjAddr: 0x14548, symBinAddr: 0x3D8B8, symSize: 0x190 }
  - { offset: 0x1C67A5, size: 0x8, addend: 0x0, symName: __ZNSt3__15dequeINS_7__stateIcEENS_9allocatorIS2_EEE20__add_front_capacityEv, symObjAddr: 0x146D8, symBinAddr: 0x3DA48, symSize: 0x374 }
  - { offset: 0x1C680F, size: 0x8, addend: 0x0, symName: __ZNSt3__114__split_bufferIPNS_7__stateIcEENS_9allocatorIS3_EEE10push_frontERKS3_, symObjAddr: 0x14A4C, symBinAddr: 0x3DDBC, symSize: 0x190 }
  - { offset: 0x1C6CBA, size: 0x8, addend: 0x0, symName: __ZNSt3__16vectorINS_9sub_matchIPKcEENS_9allocatorIS4_EEE18__assign_with_sizeB8ne190102IPS4_S9_EEvT_T0_l, symObjAddr: 0x14BDC, symBinAddr: 0x3DF4C, symSize: 0x204 }
  - { offset: 0x1C70D4, size: 0x8, addend: 0x0, symName: __ZNKSt3__16vectorINS_9sub_matchINS_11__wrap_iterIPKcEEEENS_9allocatorIS6_EEE20__throw_length_errorB8ne190102Ev, symObjAddr: 0x1522C, symBinAddr: 0x3E59C, symSize: 0x14 }
  - { offset: 0x1F2E7C, size: 0x8, addend: 0x0, symName: __ZNSt3__125__throw_bad_function_callB8ne190102Ev, symObjAddr: 0x7694, symBinAddr: 0x45AC0, symSize: 0x34 }
  - { offset: 0x1FBD3F, size: 0x8, addend: 0x0, symName: __ZN20llm_graph_input_embd9set_inputEPK12llama_ubatch, symObjAddr: 0x0, symBinAddr: 0x3E5B0, symSize: 0xA0 }
  - { offset: 0x1FBE59, size: 0x8, addend: 0x0, symName: __ZN20llm_graph_input_embd9can_reuseERK16llm_graph_params, symObjAddr: 0xA0, symBinAddr: 0x3E650, symSize: 0x50 }
  - { offset: 0x1FC0E0, size: 0x8, addend: 0x0, symName: __ZN19llm_graph_input_pos9set_inputEPK12llama_ubatch, symObjAddr: 0xF0, symBinAddr: 0x3E6A0, symSize: 0x1FC }
  - { offset: 0x1FC4C4, size: 0x8, addend: 0x0, symName: __ZN19llm_graph_input_pos9can_reuseERK16llm_graph_params, symObjAddr: 0x2EC, symBinAddr: 0x3E89C, symSize: 0x18 }
  - { offset: 0x1FC772, size: 0x8, addend: 0x0, symName: __ZN25llm_graph_input_attn_temp9set_inputEPK12llama_ubatch, symObjAddr: 0x304, symBinAddr: 0x3E8B4, symSize: 0x21C }
  - { offset: 0x1FCBF3, size: 0x8, addend: 0x0, symName: __ZN26llm_graph_input_pos_bucket9set_inputEPK12llama_ubatch, symObjAddr: 0x520, symBinAddr: 0x3EAD0, symSize: 0x3E0 }
  - { offset: 0x1FCD47, size: 0x8, addend: 0x0, symName: __Z30llama_relative_position_bucketiiyb, symObjAddr: 0x900, symBinAddr: 0x3EEB0, symSize: 0xAC }
  - { offset: 0x1FCD90, size: 0x8, addend: 0x0, symName: __Z30llama_relative_position_bucketiiyb, symObjAddr: 0x900, symBinAddr: 0x3EEB0, symSize: 0xAC }
  - { offset: 0x1FCDF5, size: 0x8, addend: 0x0, symName: __ZN29llm_graph_input_pos_bucket_kv9set_inputEPK12llama_ubatch, symObjAddr: 0x9AC, symBinAddr: 0x3EF5C, symSize: 0x18 }
  - { offset: 0x1FCE2D, size: 0x8, addend: 0x0, symName: __ZN23llm_graph_input_out_ids9set_inputEPK12llama_ubatch, symObjAddr: 0x9C4, symBinAddr: 0x3EF74, symSize: 0x160 }
  - { offset: 0x1FCEFD, size: 0x8, addend: 0x0, symName: __ZN23llm_graph_input_out_ids9can_reuseERK16llm_graph_params, symObjAddr: 0xB24, symBinAddr: 0x3F0D4, symSize: 0x14 }
  - { offset: 0x1FCF0F, size: 0x8, addend: 0x0, symName: __ZN23llm_graph_input_out_ids9can_reuseERK16llm_graph_params, symObjAddr: 0xB24, symBinAddr: 0x3F0D4, symSize: 0x14 }
  - { offset: 0x1FD1BD, size: 0x8, addend: 0x0, symName: __ZN20llm_graph_input_mean9set_inputEPK12llama_ubatch, symObjAddr: 0xB38, symBinAddr: 0x3F0E8, symSize: 0x3DC }
  - { offset: 0x1FDA4B, size: 0x8, addend: 0x0, symName: __ZN19llm_graph_input_cls9set_inputEPK12llama_ubatch, symObjAddr: 0xF14, symBinAddr: 0x3F4C4, symSize: 0x370 }
  - { offset: 0x1FE0CE, size: 0x8, addend: 0x0, symName: __ZN18llm_graph_input_rs9set_inputEPK12llama_ubatch, symObjAddr: 0x1284, symBinAddr: 0x3F834, symSize: 0xA0 }
  - { offset: 0x1FE14E, size: 0x8, addend: 0x0, symName: __ZN26llm_graph_input_cross_embd9set_inputEPK12llama_ubatch, symObjAddr: 0x1324, symBinAddr: 0x3F8D4, symSize: 0x54 }
  - { offset: 0x1FE17C, size: 0x8, addend: 0x0, symName: __ZN26llm_graph_input_cross_embd9set_inputEPK12llama_ubatch, symObjAddr: 0x1324, symBinAddr: 0x3F8D4, symSize: 0x54 }
  - { offset: 0x1FE20A, size: 0x8, addend: 0x0, symName: __ZN29llm_graph_input_attn_no_cache9set_inputEPK12llama_ubatch, symObjAddr: 0x1378, symBinAddr: 0x3F928, symSize: 0x348 }
  - { offset: 0x1FE5B5, size: 0x8, addend: 0x0, symName: __ZL10print_maskPKfxxx14llama_swa_type, symObjAddr: 0x16C0, symBinAddr: 0x3FC70, symSize: 0x20C }
  - { offset: 0x1FE6A6, size: 0x8, addend: 0x0, symName: __ZL10print_maskPKfxxx14llama_swa_type, symObjAddr: 0x16C0, symBinAddr: 0x3FC70, symSize: 0x20C }
  - { offset: 0x1FE8AD, size: 0x8, addend: 0x0, symName: __ZN23llm_graph_input_attn_kv9set_inputEPK12llama_ubatch, symObjAddr: 0x18CC, symBinAddr: 0x3FE7C, symSize: 0x54 }
  - { offset: 0x1FE8E7, size: 0x8, addend: 0x0, symName: __ZN23llm_graph_input_attn_kv9can_reuseERK16llm_graph_params, symObjAddr: 0x1920, symBinAddr: 0x3FED0, symSize: 0x78 }
  - { offset: 0x1FE941, size: 0x8, addend: 0x0, symName: __ZN28llm_graph_input_attn_kv_iswa9set_inputEPK12llama_ubatch, symObjAddr: 0x1998, symBinAddr: 0x3FF48, symSize: 0xA8 }
  - { offset: 0x1FE97B, size: 0x8, addend: 0x0, symName: __ZN28llm_graph_input_attn_kv_iswa9can_reuseERK16llm_graph_params, symObjAddr: 0x1A40, symBinAddr: 0x3FFF0, symSize: 0xE4 }
  - { offset: 0x1FEAA9, size: 0x8, addend: 0x0, symName: __ZN26llm_graph_input_attn_cross9set_inputEPK12llama_ubatch, symObjAddr: 0x1B24, symBinAddr: 0x400D4, symSize: 0x230 }
  - { offset: 0x1FED23, size: 0x8, addend: 0x0, symName: __ZN26llm_graph_input_mem_hybrid9set_inputEPK12llama_ubatch, symObjAddr: 0x1D54, symBinAddr: 0x40304, symSize: 0x40 }
  - { offset: 0x1FED6C, size: 0x8, addend: 0x0, symName: __ZN26llm_graph_input_mem_hybrid9set_inputEPK12llama_ubatch, symObjAddr: 0x1D54, symBinAddr: 0x40304, symSize: 0x40 }
  - { offset: 0x1FF062, size: 0x8, addend: 0x0, symName: __ZN16llm_graph_resultC2Ex, symObjAddr: 0x1D94, symBinAddr: 0x40344, symSize: 0x1C4 }
  - { offset: 0x1FF3AA, size: 0x8, addend: 0x0, symName: __ZN16llm_graph_result5resetEv, symObjAddr: 0x1F58, symBinAddr: 0x40508, symSize: 0x5B4 }
  - { offset: 0x1FFEE9, size: 0x8, addend: 0x0, symName: __ZNSt3__16vectorINS_10unique_ptrI17llm_graph_input_iNS_14default_deleteIS2_EEEENS_9allocatorIS5_EEED1B8ne190102Ev, symObjAddr: 0x25D0, symBinAddr: 0x40ABC, symSize: 0x74 }
  - { offset: 0x2009D7, size: 0x8, addend: 0x0, symName: __ZNKSt3__16vectorINS_10unique_ptrI17llm_graph_input_iNS_14default_deleteIS2_EEEENS_9allocatorIS5_EEE20__throw_length_errorB8ne190102Ev, symObjAddr: 0x7680, symBinAddr: 0x45AAC, symSize: 0x14 }
  - { offset: 0x200AC1, size: 0x8, addend: 0x0, symName: __ZN16llm_graph_resultC1Ex, symObjAddr: 0x2644, symBinAddr: 0x40B30, symSize: 0x4 }
  - { offset: 0x200AFE, size: 0x8, addend: 0x0, symName: __ZN16llm_graph_resultC1Ex, symObjAddr: 0x2644, symBinAddr: 0x40B30, symSize: 0x4 }
  - { offset: 0x200B18, size: 0x8, addend: 0x0, symName: __ZNK16llm_graph_result13get_max_nodesEv, symObjAddr: 0x2648, symBinAddr: 0x40B34, symSize: 0x8 }
  - { offset: 0x200B70, size: 0x8, addend: 0x0, symName: __ZN16llm_graph_result10set_inputsEPK12llama_ubatch, symObjAddr: 0x2650, symBinAddr: 0x40B3C, symSize: 0x4C }
  - { offset: 0x200C6C, size: 0x8, addend: 0x0, symName: __ZN16llm_graph_result9can_reuseERK16llm_graph_params, symObjAddr: 0x269C, symBinAddr: 0x40B88, symSize: 0x144 }
  - { offset: 0x200E01, size: 0x8, addend: 0x0, symName: __ZNK16llm_graph_params11allow_reuseERKS_, symObjAddr: 0x27E0, symBinAddr: 0x40CCC, symSize: 0x28C }
  - { offset: 0x200E44, size: 0x8, addend: 0x0, symName: __ZNK16llm_graph_params11allow_reuseERKS_, symObjAddr: 0x27E0, symBinAddr: 0x40CCC, symSize: 0x28C }
  - { offset: 0x20131F, size: 0x8, addend: 0x0, symName: __ZN16llm_graph_result9add_inputENSt3__110unique_ptrI17llm_graph_input_iNS0_14default_deleteIS2_EEEE, symObjAddr: 0x2A6C, symBinAddr: 0x40F58, symSize: 0xF8 }
  - { offset: 0x20185F, size: 0x8, addend: 0x0, symName: __ZN16llm_graph_result10set_paramsERK16llm_graph_params, symObjAddr: 0x2B64, symBinAddr: 0x41050, symSize: 0x1A8 }
  - { offset: 0x20186A, size: 0x8, addend: 0x0, symName: __ZNKSt3__16vectorINS_10unique_ptrI17llm_graph_input_iNS_14default_deleteIS2_EEEENS_9allocatorIS5_EEE20__throw_length_errorB8ne190102Ev, symObjAddr: 0x7680, symBinAddr: 0x45AAC, symSize: 0x14 }
  - { offset: 0x201894, size: 0x8, addend: 0x0, symName: __ZNSt3__125__throw_bad_function_callB8ne190102Ev, symObjAddr: 0x7694, symBinAddr: 0x45AC0, symSize: 0x34 }
  - { offset: 0x201A58, size: 0x8, addend: 0x0, symName: __ZN16llm_graph_result10set_paramsERK16llm_graph_params, symObjAddr: 0x2B64, symBinAddr: 0x41050, symSize: 0x1A8 }
  - { offset: 0x201E07, size: 0x8, addend: 0x0, symName: __ZNSt3__110__function12__value_funcIFvRK12llama_ubatchP11ggml_tensorPKciEE4swapB8ne190102ERSA_, symObjAddr: 0x7430, symBinAddr: 0x4590C, symSize: 0x1A0 }
  - { offset: 0x202803, size: 0x8, addend: 0x0, symName: __ZN17llm_graph_contextC2ERK16llm_graph_params, symObjAddr: 0x2D0C, symBinAddr: 0x411F8, symSize: 0x180 }
  - { offset: 0x2028A7, size: 0x8, addend: 0x0, symName: __ZN17llm_graph_contextC1ERK16llm_graph_params, symObjAddr: 0x2E8C, symBinAddr: 0x41378, symSize: 0x4 }
  - { offset: 0x2028E4, size: 0x8, addend: 0x0, symName: __ZN17llm_graph_contextC1ERK16llm_graph_params, symObjAddr: 0x2E8C, symBinAddr: 0x41378, symSize: 0x4 }
  - { offset: 0x2029C2, size: 0x8, addend: 0x0, symName: __ZNK17llm_graph_context2cbEP11ggml_tensorPKci, symObjAddr: 0x2E90, symBinAddr: 0x4137C, symSize: 0x54 }
  - { offset: 0x202AC9, size: 0x8, addend: 0x0, symName: __ZNK17llm_graph_context10build_cvecEP11ggml_tensori, symObjAddr: 0x2EE4, symBinAddr: 0x413D0, symSize: 0x18 }
  - { offset: 0x202B5A, size: 0x8, addend: 0x0, symName: __ZNK17llm_graph_context13build_lora_mmEP11ggml_tensorS1_, symObjAddr: 0x2EFC, symBinAddr: 0x413E8, symSize: 0xEC }
  - { offset: 0x202D41, size: 0x8, addend: 0x0, symName: __ZNK17llm_graph_context16build_lora_mm_idEP11ggml_tensorS1_S1_, symObjAddr: 0x2FE8, symBinAddr: 0x414D4, symSize: 0x100 }
  - { offset: 0x202F30, size: 0x8, addend: 0x0, symName: __ZNK17llm_graph_context10build_normEP11ggml_tensorS1_S1_13llm_norm_typei, symObjAddr: 0x30E8, symBinAddr: 0x415D4, symSize: 0x180 }
  - { offset: 0x2032DF, size: 0x8, addend: 0x0, symName: __ZNK17llm_graph_context9build_ffnEP11ggml_tensorS1_S1_S1_S1_S1_S1_S1_S1_S1_S1_15llm_ffn_op_type17llm_ffn_gate_typei, symObjAddr: 0x3268, symBinAddr: 0x41754, symSize: 0x6F4 }
  - { offset: 0x20445A, size: 0x8, addend: 0x0, symName: __ZNK17llm_graph_context13build_moe_ffnEP11ggml_tensorS1_S1_S1_S1_S1_xx15llm_ffn_op_typebbf29llama_expert_gating_func_typeiS1_, symObjAddr: 0x395C, symBinAddr: 0x41E48, symSize: 0x6C }
  - { offset: 0x2045AF, size: 0x8, addend: 0x0, symName: __ZNK17llm_graph_context13build_moe_ffnEP11ggml_tensorS1_S1_S1_S1_S1_xx15llm_ffn_op_typebbf29llama_expert_gating_func_typeiS1_, symObjAddr: 0x395C, symBinAddr: 0x41E48, symSize: 0x6C }
  - { offset: 0x20470D, size: 0x8, addend: 0x0, symName: __ZNK17llm_graph_context13build_moe_ffnEP11ggml_tensorS1_S1_S1_S1_S1_S1_S1_S1_S1_xx15llm_ffn_op_typebbf29llama_expert_gating_func_typeiS1_, symObjAddr: 0x39C8, symBinAddr: 0x41EB4, symSize: 0xD98 }
  - { offset: 0x206A28, size: 0x8, addend: 0x0, symName: __ZNK17llm_graph_context14build_inp_embdEP11ggml_tensor, symObjAddr: 0x4760, symBinAddr: 0x42C4C, symSize: 0x25C }
  - { offset: 0x206DB6, size: 0x8, addend: 0x0, symName: __ZNK17llm_graph_context14build_inp_embdEP11ggml_tensor, symObjAddr: 0x4760, symBinAddr: 0x42C4C, symSize: 0x25C }
  - { offset: 0x2074C3, size: 0x8, addend: 0x0, symName: __ZNK17llm_graph_context13build_inp_posEv, symObjAddr: 0x49BC, symBinAddr: 0x42EA8, symSize: 0xF0 }
  - { offset: 0x207941, size: 0x8, addend: 0x0, symName: __ZNK17llm_graph_context20build_inp_attn_scaleEv, symObjAddr: 0x4AAC, symBinAddr: 0x42F98, symSize: 0xF0 }
  - { offset: 0x207E2E, size: 0x8, addend: 0x0, symName: __ZNK17llm_graph_context17build_inp_out_idsEv, symObjAddr: 0x4B9C, symBinAddr: 0x43088, symSize: 0x114 }
  - { offset: 0x2082A4, size: 0x8, addend: 0x0, symName: __ZNK17llm_graph_context14build_inp_meanEv, symObjAddr: 0x4CB0, symBinAddr: 0x4319C, symSize: 0xFC }
  - { offset: 0x208709, size: 0x8, addend: 0x0, symName: __ZNK17llm_graph_context13build_inp_clsEv, symObjAddr: 0x4DAC, symBinAddr: 0x43298, symSize: 0x100 }
  - { offset: 0x208B6D, size: 0x8, addend: 0x0, symName: __ZNK17llm_graph_context20build_inp_cross_embdEv, symObjAddr: 0x4EAC, symBinAddr: 0x43398, symSize: 0xE8 }
  - { offset: 0x209007, size: 0x8, addend: 0x0, symName: __ZNK17llm_graph_context24build_inp_pos_bucket_encEv, symObjAddr: 0x4F94, symBinAddr: 0x43480, symSize: 0xE4 }
  - { offset: 0x20947D, size: 0x8, addend: 0x0, symName: __ZNK17llm_graph_context24build_inp_pos_bucket_decEv, symObjAddr: 0x5078, symBinAddr: 0x43564, symSize: 0x108 }
  - { offset: 0x209786, size: 0x8, addend: 0x0, symName: __ZNK17llm_graph_context14build_pos_biasEP11ggml_tensorS1_, symObjAddr: 0x5180, symBinAddr: 0x4366C, symSize: 0x118 }
  - { offset: 0x209A90, size: 0x8, addend: 0x0, symName: __ZNK17llm_graph_context14build_attn_mhaEP11ggml_tensorS1_S1_S1_S1_S1_S1_fi, symObjAddr: 0x5298, symBinAddr: 0x43784, symSize: 0x6E4 }
  - { offset: 0x20AE20, size: 0x8, addend: 0x0, symName: __ZNK17llm_graph_context23build_attn_inp_no_cacheEv, symObjAddr: 0x597C, symBinAddr: 0x43E68, symSize: 0x1D4 }
  - { offset: 0x20B174, size: 0x8, addend: 0x0, symName: __ZNK17llm_graph_context10build_attnEP29llm_graph_input_attn_no_cacheP11ggml_tensorS3_S3_S3_S3_S3_S3_S3_fi, symObjAddr: 0x5B50, symBinAddr: 0x4403C, symSize: 0x150 }
  - { offset: 0x20B5A2, size: 0x8, addend: 0x0, symName: __ZNK17llm_graph_context17build_attn_inp_kvEv, symObjAddr: 0x5CA0, symBinAddr: 0x4418C, symSize: 0x94 }
  - { offset: 0x20B813, size: 0x8, addend: 0x0, symName: __ZL22build_attn_inp_kv_implP12ggml_contextRK12llama_ubatchRK13llama_hparamsRK13llama_cparamsPK22llama_kv_cache_context, symObjAddr: 0x5D34, symBinAddr: 0x44220, symSize: 0x1C8 }
  - { offset: 0x20BD53, size: 0x8, addend: 0x0, symName: __ZNK17llm_graph_context10build_attnEP23llm_graph_input_attn_kvP11ggml_tensorS3_S3_S3_S3_S3_S3_S3_fi, symObjAddr: 0x5EFC, symBinAddr: 0x443E8, symSize: 0x1C4 }
  - { offset: 0x20C0B8, size: 0x8, addend: 0x0, symName: __ZNK17llm_graph_context10build_attnEP28llm_graph_input_attn_kv_iswaP11ggml_tensorS3_S3_S3_S3_S3_S3_S3_fi, symObjAddr: 0x60C0, symBinAddr: 0x445AC, symSize: 0x274 }
  - { offset: 0x20C57C, size: 0x8, addend: 0x0, symName: __ZNK17llm_graph_context20build_attn_inp_crossEv, symObjAddr: 0x6334, symBinAddr: 0x44820, symSize: 0x13C }
  - { offset: 0x20C8C3, size: 0x8, addend: 0x0, symName: __ZNK17llm_graph_context10build_attnEP26llm_graph_input_attn_crossP11ggml_tensorS3_S3_S3_S3_S3_S3_S3_fi, symObjAddr: 0x6470, symBinAddr: 0x4495C, symSize: 0x134 }
  - { offset: 0x20CD54, size: 0x8, addend: 0x0, symName: __ZNK17llm_graph_context22build_attn_inp_kv_iswaEv, symObjAddr: 0x65A4, symBinAddr: 0x44A90, symSize: 0x2A8 }
  - { offset: 0x20D175, size: 0x8, addend: 0x0, symName: __ZNK17llm_graph_context8build_rsEP11ggml_tensorS1_S1_iijjjiRKNSt3__18functionIFS1_P12ggml_contextS1_S1_EEE, symObjAddr: 0x684C, symBinAddr: 0x44D38, symSize: 0x168 }
  - { offset: 0x20D3DD, size: 0x8, addend: 0x0, symName: __ZNK17llm_graph_context12build_rs_inpEv, symObjAddr: 0x69B4, symBinAddr: 0x44EA0, symSize: 0x90 }
  - { offset: 0x20D5A1, size: 0x8, addend: 0x0, symName: __ZNK17llm_graph_context12build_rs_inpEv, symObjAddr: 0x69B4, symBinAddr: 0x44EA0, symSize: 0x90 }
  - { offset: 0x20D812, size: 0x8, addend: 0x0, symName: __ZL17build_rs_inp_implP12ggml_contextRK12llama_ubatchPK30llama_memory_recurrent_context, symObjAddr: 0x6A44, symBinAddr: 0x44F30, symSize: 0xF0 }
  - { offset: 0x20DCB0, size: 0x8, addend: 0x0, symName: __ZNK17llm_graph_context8build_rsEP18llm_graph_input_rsP11ggml_tensoriiRKNSt3__18functionIFS3_P12ggml_contextS3_S3_EEE, symObjAddr: 0x6B34, symBinAddr: 0x45020, symSize: 0xB4 }
  - { offset: 0x20E12E, size: 0x8, addend: 0x0, symName: __ZNK17llm_graph_context27build_rwkv_token_shift_loadEP18llm_graph_input_rsRK12llama_ubatchi, symObjAddr: 0x6BE8, symBinAddr: 0x450D4, symSize: 0x1C8 }
  - { offset: 0x20E4FF, size: 0x8, addend: 0x0, symName: __ZNK17llm_graph_context28build_rwkv_token_shift_storeEP11ggml_tensorRK12llama_ubatchi, symObjAddr: 0x6DB0, symBinAddr: 0x4529C, symSize: 0xE0 }
  - { offset: 0x20E8FF, size: 0x8, addend: 0x0, symName: __ZNK17llm_graph_context20build_inp_mem_hybridEv, symObjAddr: 0x6E90, symBinAddr: 0x4537C, symSize: 0x150 }
  - { offset: 0x20EE9D, size: 0x8, addend: 0x0, symName: __ZNK17llm_graph_context15build_dense_outEP11ggml_tensorS1_, symObjAddr: 0x6FE0, symBinAddr: 0x454CC, symSize: 0xE0 }
  - { offset: 0x20F020, size: 0x8, addend: 0x0, symName: __ZNK17llm_graph_context13build_poolingEP11ggml_tensorS1_S1_S1_, symObjAddr: 0x70C0, symBinAddr: 0x455AC, symSize: 0x210 }
  - { offset: 0x20F033, size: 0x8, addend: 0x0, symName: __ZNK17llm_graph_context13build_poolingEP11ggml_tensorS1_S1_S1_, symObjAddr: 0x70C0, symBinAddr: 0x455AC, symSize: 0x210 }
  - { offset: 0x20F366, size: 0x8, addend: 0x0, symName: __ZN19llm_graph_input_posD1Ev, symObjAddr: 0x72D0, symBinAddr: 0x457BC, symSize: 0x4 }
  - { offset: 0x20F379, size: 0x8, addend: 0x0, symName: __ZN19llm_graph_input_posD1Ev, symObjAddr: 0x72D0, symBinAddr: 0x457BC, symSize: 0x4 }
  - { offset: 0x20F3A2, size: 0x8, addend: 0x0, symName: __ZN19llm_graph_input_posD0Ev, symObjAddr: 0x72D4, symBinAddr: 0x457C0, symSize: 0x4 }
  - { offset: 0x20F3CB, size: 0x8, addend: 0x0, symName: __ZN25llm_graph_input_attn_tempD1Ev, symObjAddr: 0x72D8, symBinAddr: 0x457C4, symSize: 0x4 }
  - { offset: 0x20F3F4, size: 0x8, addend: 0x0, symName: __ZN25llm_graph_input_attn_tempD0Ev, symObjAddr: 0x72DC, symBinAddr: 0x457C8, symSize: 0x4 }
  - { offset: 0x20F41D, size: 0x8, addend: 0x0, symName: __ZN17llm_graph_input_i9can_reuseERK16llm_graph_params, symObjAddr: 0x72E0, symBinAddr: 0x457CC, symSize: 0x8 }
  - { offset: 0x20F452, size: 0x8, addend: 0x0, symName: __ZN26llm_graph_input_pos_bucketD1Ev, symObjAddr: 0x72E8, symBinAddr: 0x457D4, symSize: 0x4 }
  - { offset: 0x20F47B, size: 0x8, addend: 0x0, symName: __ZN26llm_graph_input_pos_bucketD0Ev, symObjAddr: 0x72EC, symBinAddr: 0x457D8, symSize: 0x4 }
  - { offset: 0x20F4A4, size: 0x8, addend: 0x0, symName: __ZN29llm_graph_input_pos_bucket_kvD1Ev, symObjAddr: 0x72F0, symBinAddr: 0x457DC, symSize: 0x4 }
  - { offset: 0x20F4CD, size: 0x8, addend: 0x0, symName: __ZN29llm_graph_input_pos_bucket_kvD0Ev, symObjAddr: 0x72F4, symBinAddr: 0x457E0, symSize: 0x4 }
  - { offset: 0x20F4F6, size: 0x8, addend: 0x0, symName: __ZN23llm_graph_input_out_idsD1Ev, symObjAddr: 0x72F8, symBinAddr: 0x457E4, symSize: 0x4 }
  - { offset: 0x20F51F, size: 0x8, addend: 0x0, symName: __ZN23llm_graph_input_out_idsD0Ev, symObjAddr: 0x72FC, symBinAddr: 0x457E8, symSize: 0x4 }
  - { offset: 0x20F548, size: 0x8, addend: 0x0, symName: __ZN20llm_graph_input_meanD1Ev, symObjAddr: 0x7300, symBinAddr: 0x457EC, symSize: 0x4 }
  - { offset: 0x20F571, size: 0x8, addend: 0x0, symName: __ZN20llm_graph_input_meanD0Ev, symObjAddr: 0x7304, symBinAddr: 0x457F0, symSize: 0x4 }
  - { offset: 0x20F59A, size: 0x8, addend: 0x0, symName: __ZN19llm_graph_input_clsD1Ev, symObjAddr: 0x7308, symBinAddr: 0x457F4, symSize: 0x4 }
  - { offset: 0x20F5C3, size: 0x8, addend: 0x0, symName: __ZN19llm_graph_input_clsD0Ev, symObjAddr: 0x730C, symBinAddr: 0x457F8, symSize: 0x4 }
  - { offset: 0x20F5EC, size: 0x8, addend: 0x0, symName: __ZN18llm_graph_input_rsD1Ev, symObjAddr: 0x7310, symBinAddr: 0x457FC, symSize: 0x4 }
  - { offset: 0x20F615, size: 0x8, addend: 0x0, symName: __ZN18llm_graph_input_rsD0Ev, symObjAddr: 0x7314, symBinAddr: 0x45800, symSize: 0x4 }
  - { offset: 0x20F63E, size: 0x8, addend: 0x0, symName: __ZN26llm_graph_input_cross_embdD1Ev, symObjAddr: 0x7318, symBinAddr: 0x45804, symSize: 0x4 }
  - { offset: 0x20F667, size: 0x8, addend: 0x0, symName: __ZN26llm_graph_input_cross_embdD0Ev, symObjAddr: 0x731C, symBinAddr: 0x45808, symSize: 0x4 }
  - { offset: 0x20F690, size: 0x8, addend: 0x0, symName: __ZN29llm_graph_input_attn_no_cacheD1Ev, symObjAddr: 0x7320, symBinAddr: 0x4580C, symSize: 0x4 }
  - { offset: 0x20F6B9, size: 0x8, addend: 0x0, symName: __ZN29llm_graph_input_attn_no_cacheD0Ev, symObjAddr: 0x7324, symBinAddr: 0x45810, symSize: 0x4 }
  - { offset: 0x20F6E2, size: 0x8, addend: 0x0, symName: __ZN23llm_graph_input_attn_kvD1Ev, symObjAddr: 0x7328, symBinAddr: 0x45814, symSize: 0x4 }
  - { offset: 0x20F70B, size: 0x8, addend: 0x0, symName: __ZN23llm_graph_input_attn_kvD0Ev, symObjAddr: 0x732C, symBinAddr: 0x45818, symSize: 0x4 }
  - { offset: 0x20F734, size: 0x8, addend: 0x0, symName: __ZN28llm_graph_input_attn_kv_iswaD1Ev, symObjAddr: 0x7330, symBinAddr: 0x4581C, symSize: 0x4 }
  - { offset: 0x20F75D, size: 0x8, addend: 0x0, symName: __ZN28llm_graph_input_attn_kv_iswaD0Ev, symObjAddr: 0x7334, symBinAddr: 0x45820, symSize: 0x4 }
  - { offset: 0x20F786, size: 0x8, addend: 0x0, symName: __ZN26llm_graph_input_attn_crossD1Ev, symObjAddr: 0x7338, symBinAddr: 0x45824, symSize: 0x4 }
  - { offset: 0x20F7AF, size: 0x8, addend: 0x0, symName: __ZN26llm_graph_input_attn_crossD0Ev, symObjAddr: 0x733C, symBinAddr: 0x45828, symSize: 0x4 }
  - { offset: 0x20F7F2, size: 0x8, addend: 0x0, symName: __ZN26llm_graph_input_mem_hybridD1Ev, symObjAddr: 0x7340, symBinAddr: 0x4582C, symSize: 0x5C }
  - { offset: 0x20F989, size: 0x8, addend: 0x0, symName: __ZN26llm_graph_input_mem_hybridD0Ev, symObjAddr: 0x739C, symBinAddr: 0x45888, symSize: 0x5C }
  - { offset: 0x20FB2C, size: 0x8, addend: 0x0, symName: __ZN20llm_graph_input_embdD1Ev, symObjAddr: 0x73F8, symBinAddr: 0x458E4, symSize: 0x4 }
  - { offset: 0x20FB55, size: 0x8, addend: 0x0, symName: __ZN20llm_graph_input_embdD0Ev, symObjAddr: 0x73FC, symBinAddr: 0x458E8, symSize: 0x4 }
  - { offset: 0x20FB7E, size: 0x8, addend: 0x0, symName: __ZN16llm_graph_resultD1Ev, symObjAddr: 0x7400, symBinAddr: 0x458EC, symSize: 0x4 }
  - { offset: 0x20FBA1, size: 0x8, addend: 0x0, symName: __ZN16llm_graph_resultD1Ev, symObjAddr: 0x7400, symBinAddr: 0x458EC, symSize: 0x4 }
  - { offset: 0x20FBB4, size: 0x8, addend: 0x0, symName: __ZN16llm_graph_resultD2Ev, symObjAddr: 0x77BC, symBinAddr: 0x45BE8, symSize: 0x108 }
  - { offset: 0x2101A0, size: 0x8, addend: 0x0, symName: __ZN16llm_graph_resultD0Ev, symObjAddr: 0x7404, symBinAddr: 0x458F0, symSize: 0x14 }
  - { offset: 0x2101FB, size: 0x8, addend: 0x0, symName: __ZN17llm_graph_contextD1Ev, symObjAddr: 0x7418, symBinAddr: 0x45904, symSize: 0x4 }
  - { offset: 0x210224, size: 0x8, addend: 0x0, symName: __ZN17llm_graph_contextD0Ev, symObjAddr: 0x741C, symBinAddr: 0x45908, symSize: 0x4 }
  - { offset: 0x210303, size: 0x8, addend: 0x0, symName: __ZNSt3__110__function6__funcIPFP11ggml_tensorP12ggml_contextS3_S3_ENS_9allocatorIS7_EES6_ED1Ev, symObjAddr: 0x76C8, symBinAddr: 0x45AF4, symSize: 0x4 }
  - { offset: 0x21032E, size: 0x8, addend: 0x0, symName: __ZNSt3__110__function6__funcIPFP11ggml_tensorP12ggml_contextS3_S3_ENS_9allocatorIS7_EES6_ED0Ev, symObjAddr: 0x76CC, symBinAddr: 0x45AF8, symSize: 0x4 }
  - { offset: 0x21052F, size: 0x8, addend: 0x0, symName: __ZNKSt3__110__function6__funcIPFP11ggml_tensorP12ggml_contextS3_S3_ENS_9allocatorIS7_EES6_E7__cloneEv, symObjAddr: 0x76D0, symBinAddr: 0x45AFC, symSize: 0x38 }
  - { offset: 0x210826, size: 0x8, addend: 0x0, symName: __ZNKSt3__110__function6__funcIPFP11ggml_tensorP12ggml_contextS3_S3_ENS_9allocatorIS7_EES6_E7__cloneEPNS0_6__baseIS6_EE, symObjAddr: 0x7708, symBinAddr: 0x45B34, symSize: 0x18 }
  - { offset: 0x21085B, size: 0x8, addend: 0x0, symName: __ZNKSt3__110__function6__funcIPFP11ggml_tensorP12ggml_contextS3_S3_ENS_9allocatorIS7_EES6_E7__cloneEPNS0_6__baseIS6_EE, symObjAddr: 0x7708, symBinAddr: 0x45B34, symSize: 0x18 }
  - { offset: 0x210889, size: 0x8, addend: 0x0, symName: __ZNKSt3__110__function6__funcIPFP11ggml_tensorP12ggml_contextS3_S3_ENS_9allocatorIS7_EES6_E7__cloneEPNS0_6__baseIS6_EE, symObjAddr: 0x7708, symBinAddr: 0x45B34, symSize: 0x18 }
  - { offset: 0x210921, size: 0x8, addend: 0x0, symName: __ZNSt3__110__function6__funcIPFP11ggml_tensorP12ggml_contextS3_S3_ENS_9allocatorIS7_EES6_E7destroyEv, symObjAddr: 0x7720, symBinAddr: 0x45B4C, symSize: 0x4 }
  - { offset: 0x210972, size: 0x8, addend: 0x0, symName: __ZNSt3__110__function6__funcIPFP11ggml_tensorP12ggml_contextS3_S3_ENS_9allocatorIS7_EES6_E18destroy_deallocateEv, symObjAddr: 0x7724, symBinAddr: 0x45B50, symSize: 0x4 }
  - { offset: 0x2109A7, size: 0x8, addend: 0x0, symName: __ZNSt3__110__function6__funcIPFP11ggml_tensorP12ggml_contextS3_S3_ENS_9allocatorIS7_EES6_E18destroy_deallocateEv, symObjAddr: 0x7724, symBinAddr: 0x45B50, symSize: 0x4 }
  - { offset: 0x2109CA, size: 0x8, addend: 0x0, symName: __ZNSt3__110__function6__funcIPFP11ggml_tensorP12ggml_contextS3_S3_ENS_9allocatorIS7_EES6_E18destroy_deallocateEv, symObjAddr: 0x7724, symBinAddr: 0x45B50, symSize: 0x4 }
  - { offset: 0x2109F6, size: 0x8, addend: 0x0, symName: __ZNSt3__110__function6__funcIPFP11ggml_tensorP12ggml_contextS3_S3_ENS_9allocatorIS7_EES6_E18destroy_deallocateEv, symObjAddr: 0x7724, symBinAddr: 0x45B50, symSize: 0x4 }
  - { offset: 0x210A1C, size: 0x8, addend: 0x0, symName: __ZNSt3__110__function6__funcIPFP11ggml_tensorP12ggml_contextS3_S3_ENS_9allocatorIS7_EES6_E18destroy_deallocateEv, symObjAddr: 0x7724, symBinAddr: 0x45B50, symSize: 0x4 }
  - { offset: 0x210ACB, size: 0x8, addend: 0x0, symName: __ZNSt3__110__function6__funcIPFP11ggml_tensorP12ggml_contextS3_S3_ENS_9allocatorIS7_EES6_EclEOS5_OS3_SC_, symObjAddr: 0x7728, symBinAddr: 0x45B54, symSize: 0x14 }
  - { offset: 0x210B22, size: 0x8, addend: 0x0, symName: __ZNSt3__110__function6__funcIPFP11ggml_tensorP12ggml_contextS3_S3_ENS_9allocatorIS7_EES6_EclEOS5_OS3_SC_, symObjAddr: 0x7728, symBinAddr: 0x45B54, symSize: 0x14 }
  - { offset: 0x210B59, size: 0x8, addend: 0x0, symName: __ZNSt3__110__function6__funcIPFP11ggml_tensorP12ggml_contextS3_S3_ENS_9allocatorIS7_EES6_EclEOS5_OS3_SC_, symObjAddr: 0x7728, symBinAddr: 0x45B54, symSize: 0x14 }
  - { offset: 0x210B8F, size: 0x8, addend: 0x0, symName: __ZNSt3__110__function6__funcIPFP11ggml_tensorP12ggml_contextS3_S3_ENS_9allocatorIS7_EES6_EclEOS5_OS3_SC_, symObjAddr: 0x7728, symBinAddr: 0x45B54, symSize: 0x14 }
  - { offset: 0x210C2A, size: 0x8, addend: 0x0, symName: __ZNKSt3__110__function6__funcIPFP11ggml_tensorP12ggml_contextS3_S3_ENS_9allocatorIS7_EES6_E6targetERKSt9type_info, symObjAddr: 0x773C, symBinAddr: 0x45B68, symSize: 0x74 }
  - { offset: 0x210CEF, size: 0x8, addend: 0x0, symName: __ZNKSt3__110__function6__funcIPFP11ggml_tensorP12ggml_contextS3_S3_ENS_9allocatorIS7_EES6_E11target_typeEv, symObjAddr: 0x77B0, symBinAddr: 0x45BDC, symSize: 0xC }
  - { offset: 0x212C94, size: 0x8, addend: 0x0, symName: __ZN13llama_hparams15set_swa_patternEjb, symObjAddr: 0x0, symBinAddr: 0x45CF0, symSize: 0x614 }
  - { offset: 0x214B76, size: 0x8, addend: 0x0, symName: __ZN13llama_hparams15set_swa_patternEjb, symObjAddr: 0x0, symBinAddr: 0x45CF0, symSize: 0x614 }
  - { offset: 0x214BE9, size: 0x8, addend: 0x0, symName: __ZNK13llama_hparams10is_swa_anyEv, symObjAddr: 0x614, symBinAddr: 0x46304, symSize: 0x54 }
  - { offset: 0x214C28, size: 0x8, addend: 0x0, symName: __ZNK13llama_hparams6n_headEj, symObjAddr: 0x668, symBinAddr: 0x46358, symSize: 0x38 }
  - { offset: 0x214C55, size: 0x8, addend: 0x0, symName: __ZNK13llama_hparams9n_head_kvEj, symObjAddr: 0x6A0, symBinAddr: 0x46390, symSize: 0x38 }
  - { offset: 0x214C86, size: 0x8, addend: 0x0, symName: __ZNK13llama_hparams9n_head_kvEj, symObjAddr: 0x6A0, symBinAddr: 0x46390, symSize: 0x38 }
  - { offset: 0x214CB3, size: 0x8, addend: 0x0, symName: __ZNK13llama_hparams4n_ffEj, symObjAddr: 0x6D8, symBinAddr: 0x463C8, symSize: 0x38 }
  - { offset: 0x214CC5, size: 0x8, addend: 0x0, symName: __ZNK13llama_hparams4n_ffEj, symObjAddr: 0x6D8, symBinAddr: 0x463C8, symSize: 0x38 }
  - { offset: 0x214CFF, size: 0x8, addend: 0x0, symName: __ZNK13llama_hparams5n_gqaEj, symObjAddr: 0x710, symBinAddr: 0x46400, symSize: 0x54 }
  - { offset: 0x214D5C, size: 0x8, addend: 0x0, symName: __ZNK13llama_hparams5n_gqaEj, symObjAddr: 0x710, symBinAddr: 0x46400, symSize: 0x54 }
  - { offset: 0x214DF8, size: 0x8, addend: 0x0, symName: __ZNK13llama_hparams12n_embd_k_gqaEj, symObjAddr: 0x764, symBinAddr: 0x46454, symSize: 0x40 }
  - { offset: 0x214E0A, size: 0x8, addend: 0x0, symName: __ZNK13llama_hparams12n_embd_k_gqaEj, symObjAddr: 0x764, symBinAddr: 0x46454, symSize: 0x40 }
  - { offset: 0x214E5F, size: 0x8, addend: 0x0, symName: __ZNK13llama_hparams12n_embd_v_gqaEj, symObjAddr: 0x7A4, symBinAddr: 0x46494, symSize: 0x40 }
  - { offset: 0x214E71, size: 0x8, addend: 0x0, symName: __ZNK13llama_hparams12n_embd_v_gqaEj, symObjAddr: 0x7A4, symBinAddr: 0x46494, symSize: 0x40 }
  - { offset: 0x214EC6, size: 0x8, addend: 0x0, symName: __ZNK13llama_hparams24is_n_embd_k_gqa_variableEv, symObjAddr: 0x7E4, symBinAddr: 0x464D4, symSize: 0x6C }
  - { offset: 0x214F0B, size: 0x8, addend: 0x0, symName: __ZNK13llama_hparams24is_n_embd_k_gqa_variableEv, symObjAddr: 0x7E4, symBinAddr: 0x464D4, symSize: 0x6C }
  - { offset: 0x214FED, size: 0x8, addend: 0x0, symName: __ZNK13llama_hparams24is_n_embd_v_gqa_variableEv, symObjAddr: 0x850, symBinAddr: 0x46540, symSize: 0x6C }
  - { offset: 0x21502D, size: 0x8, addend: 0x0, symName: __ZNK13llama_hparams24is_n_embd_v_gqa_variableEv, symObjAddr: 0x850, symBinAddr: 0x46540, symSize: 0x6C }
  - { offset: 0x21510F, size: 0x8, addend: 0x0, symName: __ZNK13llama_hparams16n_embd_k_gqa_maxEv, symObjAddr: 0x8BC, symBinAddr: 0x465AC, symSize: 0xC0 }
  - { offset: 0x215121, size: 0x8, addend: 0x0, symName: __ZNK13llama_hparams16n_embd_k_gqa_maxEv, symObjAddr: 0x8BC, symBinAddr: 0x465AC, symSize: 0xC0 }
  - { offset: 0x2151E5, size: 0x8, addend: 0x0, symName: __ZNK13llama_hparams16n_embd_v_gqa_maxEv, symObjAddr: 0x97C, symBinAddr: 0x4666C, symSize: 0xC0 }
  - { offset: 0x2151F7, size: 0x8, addend: 0x0, symName: __ZNK13llama_hparams16n_embd_v_gqa_maxEv, symObjAddr: 0x97C, symBinAddr: 0x4666C, symSize: 0xC0 }
  - { offset: 0x2152BB, size: 0x8, addend: 0x0, symName: __ZNK13llama_hparams8n_embd_rEv, symObjAddr: 0xA3C, symBinAddr: 0x4672C, symSize: 0x58 }
  - { offset: 0x2152CD, size: 0x8, addend: 0x0, symName: __ZNK13llama_hparams8n_embd_rEv, symObjAddr: 0xA3C, symBinAddr: 0x4672C, symSize: 0x58 }
  - { offset: 0x2152F6, size: 0x8, addend: 0x0, symName: __ZNK13llama_hparams8n_embd_sEv, symObjAddr: 0xA94, symBinAddr: 0x46784, symSize: 0x2C }
  - { offset: 0x21531F, size: 0x8, addend: 0x0, symName: __ZNK13llama_hparams12is_recurrentEj, symObjAddr: 0xAC0, symBinAddr: 0x467B0, symSize: 0x50 }
  - { offset: 0x215359, size: 0x8, addend: 0x0, symName: __ZNK13llama_hparams14n_pos_per_embdEv, symObjAddr: 0xB10, symBinAddr: 0x46800, symSize: 0x18 }
  - { offset: 0x21536C, size: 0x8, addend: 0x0, symName: __ZNK13llama_hparams14n_pos_per_embdEv, symObjAddr: 0xB10, symBinAddr: 0x46800, symSize: 0x18 }
  - { offset: 0x215395, size: 0x8, addend: 0x0, symName: __ZNK13llama_hparams6is_swaEj, symObjAddr: 0xB28, symBinAddr: 0x46818, symSize: 0x3C }
  - { offset: 0x2153CF, size: 0x8, addend: 0x0, symName: __ZNK13llama_hparams6has_kvEj, symObjAddr: 0xB64, symBinAddr: 0x46854, symSize: 0x14 }
  - { offset: 0x2153E2, size: 0x8, addend: 0x0, symName: __ZNK13llama_hparams6has_kvEj, symObjAddr: 0xB64, symBinAddr: 0x46854, symSize: 0x14 }
  - { offset: 0x21542E, size: 0x8, addend: 0x0, symName: __ZNK13llama_hparams10n_layer_kvEv, symObjAddr: 0xB78, symBinAddr: 0x46868, symSize: 0xCC }
  - { offset: 0x215493, size: 0x8, addend: 0x0, symName: __ZN13llama_hparams13is_masked_swaEj14llama_swa_typeii, symObjAddr: 0xC44, symBinAddr: 0x46934, symSize: 0x70 }
  - { offset: 0x217020, size: 0x8, addend: 0x0, symName: __ZL14g_logger_state.0, symObjAddr: 0x1818, symBinAddr: 0x280238, symSize: 0x0 }
  - { offset: 0x21702B, size: 0x8, addend: 0x0, symName: __ZL14g_logger_state.1, symObjAddr: 0x2F290, symBinAddr: 0x302F28, symSize: 0x0 }
  - { offset: 0x21E414, size: 0x8, addend: 0x0, symName: __ZN9time_measC2ERxb, symObjAddr: 0x0, symBinAddr: 0x469A4, symSize: 0x48 }
  - { offset: 0x21E49A, size: 0x8, addend: 0x0, symName: __ZN9time_measC1ERxb, symObjAddr: 0x48, symBinAddr: 0x469EC, symSize: 0x48 }
  - { offset: 0x21E51B, size: 0x8, addend: 0x0, symName: __ZN9time_measD2Ev, symObjAddr: 0x90, symBinAddr: 0x46A34, symSize: 0x44 }
  - { offset: 0x21E567, size: 0x8, addend: 0x0, symName: __ZN9time_measD1Ev, symObjAddr: 0xE4, symBinAddr: 0x46A78, symSize: 0x44 }
  - { offset: 0x21E5B8, size: 0x8, addend: 0x0, symName: _llama_log_set, symObjAddr: 0x128, symBinAddr: 0x46ABC, symSize: 0x44 }
  - { offset: 0x21E61C, size: 0x8, addend: 0x0, symName: __Z26llama_log_callback_default14ggml_log_levelPKcPv, symObjAddr: 0x16C, symBinAddr: 0x46B00, symSize: 0x30 }
  - { offset: 0x21E8AD, size: 0x8, addend: 0x0, symName: __Z18llama_log_internal14ggml_log_levelPKcz, symObjAddr: 0x19C, symBinAddr: 0x46B30, symSize: 0x10C }
  - { offset: 0x21ED11, size: 0x8, addend: 0x0, symName: __Z11replace_allRNSt3__112basic_stringIcNS_11char_traitsIcEENS_9allocatorIcEEEERKS5_S8_, symObjAddr: 0x2A8, symBinAddr: 0x46C3C, symSize: 0x1F8 }
  - { offset: 0x21F72C, size: 0x8, addend: 0x0, symName: __Z6formatPKcz, symObjAddr: 0x4A0, symBinAddr: 0x46E34, symSize: 0x158 }
  - { offset: 0x21FE19, size: 0x8, addend: 0x0, symName: __Z25llama_format_tensor_shapeRKNSt3__16vectorIxNS_9allocatorIxEEEE, symObjAddr: 0x5F8, symBinAddr: 0x46F8C, symSize: 0x188 }
  - { offset: 0x2201C1, size: 0x8, addend: 0x0, symName: __ZNKSt3__16vectorIxNS_9allocatorIxEEE20__throw_out_of_rangeB8ne190102Ev, symObjAddr: 0x1324, symBinAddr: 0x47A78, symSize: 0x14 }
  - { offset: 0x220219, size: 0x8, addend: 0x0, symName: __Z25llama_format_tensor_shapePK11ggml_tensor, symObjAddr: 0x780, symBinAddr: 0x47114, symSize: 0x184 }
  - { offset: 0x2206F0, size: 0x8, addend: 0x0, symName: __Z14gguf_kv_to_strPK12gguf_contexti, symObjAddr: 0x904, symBinAddr: 0x47298, symSize: 0x5E4 }
  - { offset: 0x221CD5, size: 0x8, addend: 0x0, symName: __ZL16gguf_data_to_str9gguf_typePKvi, symObjAddr: 0x1018, symBinAddr: 0x4787C, symSize: 0x1FC }
  - { offset: 0x2244D9, size: 0x8, addend: 0x0, symName: __ZN16llama_io_write_i12write_stringERKNSt3__112basic_stringIcNS0_11char_traitsIcEENS0_9allocatorIcEEEE, symObjAddr: 0x0, symBinAddr: 0x47A8C, symSize: 0x78 }
  - { offset: 0x226F0C, size: 0x8, addend: 0x0, symName: __ZN16llama_io_write_i12write_stringERKNSt3__112basic_stringIcNS0_11char_traitsIcEENS0_9allocatorIcEEEE, symObjAddr: 0x0, symBinAddr: 0x47A8C, symSize: 0x78 }
  - { offset: 0x22701C, size: 0x8, addend: 0x0, symName: __ZN15llama_io_read_i11read_stringERNSt3__112basic_stringIcNS0_11char_traitsIcEENS0_9allocatorIcEEEE, symObjAddr: 0x78, symBinAddr: 0x47B04, symSize: 0x64 }
  - { offset: 0x228F6A, size: 0x8, addend: 0x0, symName: __ZN19llama_kv_cache_iswaC2ERK11llama_model9ggml_typeS3_bbbbjjjjRKNSt3__18functionIFbiEEERKNS5_IFiiEEE, symObjAddr: 0x0, symBinAddr: 0x47B68, symSize: 0x34C }
  - { offset: 0x24A313, size: 0x8, addend: 0x0, symName: __ZNSt3__111make_uniqueB8ne190102I27llama_kv_cache_iswa_contextJP19llama_kv_cache_iswaNS_6vectorIN14llama_kv_cache9slot_infoENS_9allocatorIS6_EEEES9_NS4_I12llama_ubatchNS7_ISA_EEEEEEENS_11__unique_ifIT_E15__unique_singleEDpOT0_, symObjAddr: 0xF40, symBinAddr: 0x48A4C, symSize: 0x25C }
  - { offset: 0x2528A4, size: 0x8, addend: 0x0, symName: __ZN19llama_kv_cache_iswaC1ERK11llama_model9ggml_typeS3_bbbbjjjjRKNSt3__18functionIFbiEEERKNS5_IFiiEEE, symObjAddr: 0x34C, symBinAddr: 0x47EB4, symSize: 0x20 }
  - { offset: 0x25395A, size: 0x8, addend: 0x0, symName: __ZN19llama_kv_cache_iswaC2ERK11llama_model9ggml_typeS3_bbbbjjjjRKNSt3__18functionIFbiEEERKNS5_IFiiEEE, symObjAddr: 0x0, symBinAddr: 0x47B68, symSize: 0x34C }
  - { offset: 0x25428A, size: 0x8, addend: 0x0, symName: __ZN19llama_kv_cache_iswa5clearEb, symObjAddr: 0x36C, symBinAddr: 0x47ED4, symSize: 0x40 }
  - { offset: 0x25431E, size: 0x8, addend: 0x0, symName: __ZN19llama_kv_cache_iswa6seq_rmEiii, symObjAddr: 0x3AC, symBinAddr: 0x47F14, symSize: 0x6C }
  - { offset: 0x254401, size: 0x8, addend: 0x0, symName: __ZN19llama_kv_cache_iswa6seq_cpEiiii, symObjAddr: 0x418, symBinAddr: 0x47F80, symSize: 0x68 }
  - { offset: 0x2544D7, size: 0x8, addend: 0x0, symName: __ZN19llama_kv_cache_iswa8seq_keepEi, symObjAddr: 0x480, symBinAddr: 0x47FE8, symSize: 0x40 }
  - { offset: 0x25456B, size: 0x8, addend: 0x0, symName: __ZN19llama_kv_cache_iswa7seq_addEiiii, symObjAddr: 0x4C0, symBinAddr: 0x48028, symSize: 0x68 }
  - { offset: 0x254641, size: 0x8, addend: 0x0, symName: __ZN19llama_kv_cache_iswa7seq_divEiiii, symObjAddr: 0x528, symBinAddr: 0x48090, symSize: 0x68 }
  - { offset: 0x254717, size: 0x8, addend: 0x0, symName: __ZNK19llama_kv_cache_iswa11seq_pos_minEi, symObjAddr: 0x590, symBinAddr: 0x480F8, symSize: 0x10 }
  - { offset: 0x254750, size: 0x8, addend: 0x0, symName: __ZNK19llama_kv_cache_iswa11seq_pos_minEi, symObjAddr: 0x590, symBinAddr: 0x480F8, symSize: 0x10 }
  - { offset: 0x254780, size: 0x8, addend: 0x0, symName: __ZNK19llama_kv_cache_iswa11seq_pos_maxEi, symObjAddr: 0x5A0, symBinAddr: 0x48108, symSize: 0x10 }
  - { offset: 0x2547B9, size: 0x8, addend: 0x0, symName: __ZNK19llama_kv_cache_iswa11seq_pos_maxEi, symObjAddr: 0x5A0, symBinAddr: 0x48108, symSize: 0x10 }
  - { offset: 0x254D86, size: 0x8, addend: 0x0, symName: __ZNK19llama_kv_cache_iswa16memory_breakdownEv, symObjAddr: 0x5B0, symBinAddr: 0x48118, symSize: 0x1CC }
  - { offset: 0x255F13, size: 0x8, addend: 0x0, symName: __ZN19llama_kv_cache_iswa10init_batchER18llama_batch_allocrjb, symObjAddr: 0x77C, symBinAddr: 0x482E4, symSize: 0x768 }
  - { offset: 0x25841A, size: 0x8, addend: 0x0, symName: __ZNSt3__16vectorI12llama_ubatchNS_9allocatorIS1_EEE21__push_back_slow_pathIS1_EEPS1_OT_, symObjAddr: 0x25B4, symBinAddr: 0x49EA0, symSize: 0x1C4 }
  - { offset: 0x258A67, size: 0x8, addend: 0x0, symName: __ZNKSt3__16vectorI12llama_ubatchNS_9allocatorIS1_EEE20__throw_length_errorB8ne190102Ev, symObjAddr: 0x2778, symBinAddr: 0x4A064, symSize: 0x14 }
  - { offset: 0x258A7B, size: 0x8, addend: 0x0, symName: __ZNSt3__16vectorIN14llama_kv_cache9slot_infoENS_9allocatorIS2_EEED1B8ne190102Ev, symObjAddr: 0x119C, symBinAddr: 0x48CA8, symSize: 0xC4 }
  - { offset: 0x258FF7, size: 0x8, addend: 0x0, symName: __ZNSt3__16vectorI12llama_ubatchNS_9allocatorIS1_EEED1B8ne190102Ev, symObjAddr: 0x1260, symBinAddr: 0x48D6C, symSize: 0x98 }
  - { offset: 0x2594A8, size: 0x8, addend: 0x0, symName: __ZN27llama_kv_cache_iswa_contextC2EP19llama_kv_cache_iswaNSt3__16vectorIN14llama_kv_cache9slot_infoENS2_9allocatorIS5_EEEES8_NS3_I12llama_ubatchNS6_IS9_EEEE, symObjAddr: 0x1768, symBinAddr: 0x49274, symSize: 0x5BC }
  - { offset: 0x25B19B, size: 0x8, addend: 0x0, symName: __ZN19llama_kv_cache_iswa9init_fullEv, symObjAddr: 0x12F8, symBinAddr: 0x48E04, symSize: 0x54 }
  - { offset: 0x25B295, size: 0x8, addend: 0x0, symName: __ZN27llama_kv_cache_iswa_contextC2EP19llama_kv_cache_iswa, symObjAddr: 0x1500, symBinAddr: 0x4900C, symSize: 0x120 }
  - { offset: 0x25B54A, size: 0x8, addend: 0x0, symName: __ZN19llama_kv_cache_iswa11init_updateEP13llama_contextb, symObjAddr: 0x134C, symBinAddr: 0x48E58, symSize: 0x6C }
  - { offset: 0x25B681, size: 0x8, addend: 0x0, symName: __ZN27llama_kv_cache_iswa_contextC2EP19llama_kv_cache_iswaP13llama_contextb, symObjAddr: 0x1624, symBinAddr: 0x49130, symSize: 0x140 }
  - { offset: 0x25B92F, size: 0x8, addend: 0x0, symName: __ZNK19llama_kv_cache_iswa13get_can_shiftEv, symObjAddr: 0x13B8, symBinAddr: 0x48EC4, symSize: 0x38 }
  - { offset: 0x25B994, size: 0x8, addend: 0x0, symName: __ZNK19llama_kv_cache_iswa11state_writeER16llama_io_write_iij, symObjAddr: 0x13F0, symBinAddr: 0x48EFC, symSize: 0x5C }
  - { offset: 0x25BA3E, size: 0x8, addend: 0x0, symName: __ZN19llama_kv_cache_iswa10state_readER15llama_io_read_iij, symObjAddr: 0x144C, symBinAddr: 0x48F58, symSize: 0x5C }
  - { offset: 0x25BAFE, size: 0x8, addend: 0x0, symName: __ZNK19llama_kv_cache_iswa8get_baseEv, symObjAddr: 0x14A8, symBinAddr: 0x48FB4, symSize: 0x8 }
  - { offset: 0x25BB22, size: 0x8, addend: 0x0, symName: __ZNK19llama_kv_cache_iswa8get_baseEv, symObjAddr: 0x14A8, symBinAddr: 0x48FB4, symSize: 0x8 }
  - { offset: 0x25BB3E, size: 0x8, addend: 0x0, symName: __ZNK19llama_kv_cache_iswa7get_swaEv, symObjAddr: 0x14B0, symBinAddr: 0x48FBC, symSize: 0x8 }
  - { offset: 0x25BB62, size: 0x8, addend: 0x0, symName: __ZNK19llama_kv_cache_iswa7get_swaEv, symObjAddr: 0x14B0, symBinAddr: 0x48FBC, symSize: 0x8 }
  - { offset: 0x25BB7E, size: 0x8, addend: 0x0, symName: __ZN27llama_kv_cache_iswa_contextC2E19llama_memory_status, symObjAddr: 0x14B8, symBinAddr: 0x48FC4, symSize: 0x24 }
  - { offset: 0x25BBE2, size: 0x8, addend: 0x0, symName: __ZN27llama_kv_cache_iswa_contextC1E19llama_memory_status, symObjAddr: 0x14DC, symBinAddr: 0x48FE8, symSize: 0x24 }
  - { offset: 0x25BC0B, size: 0x8, addend: 0x0, symName: __ZN27llama_kv_cache_iswa_contextC1E19llama_memory_status, symObjAddr: 0x14DC, symBinAddr: 0x48FE8, symSize: 0x24 }
  - { offset: 0x25BD5B, size: 0x8, addend: 0x0, symName: __ZN27llama_kv_cache_iswa_contextC1EP19llama_kv_cache_iswa, symObjAddr: 0x1620, symBinAddr: 0x4912C, symSize: 0x4 }
  - { offset: 0x25BD85, size: 0x8, addend: 0x0, symName: __ZN27llama_kv_cache_iswa_contextC1EP19llama_kv_cache_iswa, symObjAddr: 0x1620, symBinAddr: 0x4912C, symSize: 0x4 }
  - { offset: 0x25BD9F, size: 0x8, addend: 0x0, symName: __ZN27llama_kv_cache_iswa_contextC1EP19llama_kv_cache_iswaP13llama_contextb, symObjAddr: 0x1764, symBinAddr: 0x49270, symSize: 0x4 }
  - { offset: 0x25BDDC, size: 0x8, addend: 0x0, symName: __ZN27llama_kv_cache_iswa_contextC1EP19llama_kv_cache_iswaP13llama_contextb, symObjAddr: 0x1764, symBinAddr: 0x49270, symSize: 0x4 }
  - { offset: 0x25C268, size: 0x8, addend: 0x0, symName: __ZNKSt3__16vectorI12llama_ubatchNS_9allocatorIS1_EEE20__throw_length_errorB8ne190102Ev, symObjAddr: 0x2778, symBinAddr: 0x4A064, symSize: 0x14 }
  - { offset: 0x25C29D, size: 0x8, addend: 0x0, symName: __ZNSt3__128__exception_guard_exceptionsINS_6vectorI12llama_ubatchNS_9allocatorIS2_EEE16__destroy_vectorEED1B8ne190102Ev, symObjAddr: 0x2800, symBinAddr: 0x4A078, symSize: 0xA8 }
  - { offset: 0x25C4D2, size: 0x8, addend: 0x0, symName: __ZN27llama_kv_cache_iswa_contextC1EP19llama_kv_cache_iswaNSt3__16vectorIN14llama_kv_cache9slot_infoENS2_9allocatorIS5_EEEES8_NS3_I12llama_ubatchNS6_IS9_EEEE, symObjAddr: 0x1D24, symBinAddr: 0x49830, symSize: 0x4 }
  - { offset: 0x25C514, size: 0x8, addend: 0x0, symName: __ZN27llama_kv_cache_iswa_contextC1EP19llama_kv_cache_iswaNSt3__16vectorIN14llama_kv_cache9slot_infoENS2_9allocatorIS5_EEEES8_NS3_I12llama_ubatchNS6_IS9_EEEE, symObjAddr: 0x1D24, symBinAddr: 0x49830, symSize: 0x4 }
  - { offset: 0x25C543, size: 0x8, addend: 0x0, symName: __ZN27llama_kv_cache_iswa_contextD2Ev, symObjAddr: 0x1D28, symBinAddr: 0x49834, symSize: 0xD4 }
  - { offset: 0x25C8EA, size: 0x8, addend: 0x0, symName: __ZN27llama_kv_cache_iswa_contextD1Ev, symObjAddr: 0x1DFC, symBinAddr: 0x49908, symSize: 0xD4 }
  - { offset: 0x25CCAE, size: 0x8, addend: 0x0, symName: __ZN27llama_kv_cache_iswa_contextD0Ev, symObjAddr: 0x1ED0, symBinAddr: 0x499DC, symSize: 0xD4 }
  - { offset: 0x25D07E, size: 0x8, addend: 0x0, symName: __ZN27llama_kv_cache_iswa_context4nextEv, symObjAddr: 0x1FA4, symBinAddr: 0x49AB0, symSize: 0x70 }
  - { offset: 0x25D11D, size: 0x8, addend: 0x0, symName: __ZN27llama_kv_cache_iswa_context5applyEv, symObjAddr: 0x2014, symBinAddr: 0x49B20, symSize: 0x44 }
  - { offset: 0x25D1AD, size: 0x8, addend: 0x0, symName: __ZNK27llama_kv_cache_iswa_context10get_statusEv, symObjAddr: 0x2058, symBinAddr: 0x49B64, symSize: 0x8 }
  - { offset: 0x25D1FB, size: 0x8, addend: 0x0, symName: __ZNK27llama_kv_cache_iswa_context10get_ubatchEv, symObjAddr: 0x2060, symBinAddr: 0x49B6C, symSize: 0x10 }
  - { offset: 0x25D261, size: 0x8, addend: 0x0, symName: __ZNK27llama_kv_cache_iswa_context8get_baseEv, symObjAddr: 0x2070, symBinAddr: 0x49B7C, symSize: 0x8 }
  - { offset: 0x25D28D, size: 0x8, addend: 0x0, symName: __ZNK27llama_kv_cache_iswa_context8get_baseEv, symObjAddr: 0x2070, symBinAddr: 0x49B7C, symSize: 0x8 }
  - { offset: 0x25D2AA, size: 0x8, addend: 0x0, symName: __ZNK27llama_kv_cache_iswa_context7get_swaEv, symObjAddr: 0x2078, symBinAddr: 0x49B84, symSize: 0x8 }
  - { offset: 0x25D2D6, size: 0x8, addend: 0x0, symName: __ZNK27llama_kv_cache_iswa_context7get_swaEv, symObjAddr: 0x2078, symBinAddr: 0x49B84, symSize: 0x8 }
  - { offset: 0x25D30D, size: 0x8, addend: 0x0, symName: __ZN19llama_kv_cache_iswaD1Ev, symObjAddr: 0x2080, symBinAddr: 0x49B8C, symSize: 0x5C }
  - { offset: 0x25D4A1, size: 0x8, addend: 0x0, symName: __ZN19llama_kv_cache_iswaD0Ev, symObjAddr: 0x20DC, symBinAddr: 0x49BE8, symSize: 0x5C }
  - { offset: 0x25D640, size: 0x8, addend: 0x0, symName: '__ZNSt3__110__function6__funcIZN19llama_kv_cache_iswaC1ERK11llama_model9ggml_typeS6_bbbbjjjjRKNS_8functionIFbiEEERKNS7_IFiiEEEE3$_0NS_9allocatorISG_EES8_ED1Ev', symObjAddr: 0x2138, symBinAddr: 0x49C44, symSize: 0x4 }
  - { offset: 0x25D66B, size: 0x8, addend: 0x0, symName: '__ZNSt3__110__function6__funcIZN19llama_kv_cache_iswaC1ERK11llama_model9ggml_typeS6_bbbbjjjjRKNS_8functionIFbiEEERKNS7_IFiiEEEE3$_0NS_9allocatorISG_EES8_ED0Ev', symObjAddr: 0x213C, symBinAddr: 0x49C48, symSize: 0x4 }
  - { offset: 0x25D86C, size: 0x8, addend: 0x0, symName: '__ZNKSt3__110__function6__funcIZN19llama_kv_cache_iswaC1ERK11llama_model9ggml_typeS6_bbbbjjjjRKNS_8functionIFbiEEERKNS7_IFiiEEEE3$_0NS_9allocatorISG_EES8_E7__cloneEv', symObjAddr: 0x2140, symBinAddr: 0x49C4C, symSize: 0x38 }
  - { offset: 0x25DB90, size: 0x8, addend: 0x0, symName: '__ZNKSt3__110__function6__funcIZN19llama_kv_cache_iswaC1ERK11llama_model9ggml_typeS6_bbbbjjjjRKNS_8functionIFbiEEERKNS7_IFiiEEEE3$_0NS_9allocatorISG_EES8_E7__cloneEPNS0_6__baseIS8_EE', symObjAddr: 0x2178, symBinAddr: 0x49C84, symSize: 0x18 }
  - { offset: 0x25DBC5, size: 0x8, addend: 0x0, symName: '__ZNKSt3__110__function6__funcIZN19llama_kv_cache_iswaC1ERK11llama_model9ggml_typeS6_bbbbjjjjRKNS_8functionIFbiEEERKNS7_IFiiEEEE3$_0NS_9allocatorISG_EES8_E7__cloneEPNS0_6__baseIS8_EE', symObjAddr: 0x2178, symBinAddr: 0x49C84, symSize: 0x18 }
  - { offset: 0x25DBEA, size: 0x8, addend: 0x0, symName: '__ZNKSt3__110__function6__funcIZN19llama_kv_cache_iswaC1ERK11llama_model9ggml_typeS6_bbbbjjjjRKNS_8functionIFbiEEERKNS7_IFiiEEEE3$_0NS_9allocatorISG_EES8_E7__cloneEPNS0_6__baseIS8_EE', symObjAddr: 0x2178, symBinAddr: 0x49C84, symSize: 0x18 }
  - { offset: 0x25DCD3, size: 0x8, addend: 0x0, symName: '__ZNSt3__110__function6__funcIZN19llama_kv_cache_iswaC1ERK11llama_model9ggml_typeS6_bbbbjjjjRKNS_8functionIFbiEEERKNS7_IFiiEEEE3$_0NS_9allocatorISG_EES8_E7destroyEv', symObjAddr: 0x2190, symBinAddr: 0x49C9C, symSize: 0x4 }
  - { offset: 0x25DD22, size: 0x8, addend: 0x0, symName: '__ZNSt3__110__function6__funcIZN19llama_kv_cache_iswaC1ERK11llama_model9ggml_typeS6_bbbbjjjjRKNS_8functionIFbiEEERKNS7_IFiiEEEE3$_0NS_9allocatorISG_EES8_E18destroy_deallocateEv', symObjAddr: 0x2194, symBinAddr: 0x49CA0, symSize: 0x4 }
  - { offset: 0x25DD57, size: 0x8, addend: 0x0, symName: '__ZNSt3__110__function6__funcIZN19llama_kv_cache_iswaC1ERK11llama_model9ggml_typeS6_bbbbjjjjRKNS_8functionIFbiEEERKNS7_IFiiEEEE3$_0NS_9allocatorISG_EES8_E18destroy_deallocateEv', symObjAddr: 0x2194, symBinAddr: 0x49CA0, symSize: 0x4 }
  - { offset: 0x25DD7A, size: 0x8, addend: 0x0, symName: '__ZNSt3__110__function6__funcIZN19llama_kv_cache_iswaC1ERK11llama_model9ggml_typeS6_bbbbjjjjRKNS_8functionIFbiEEERKNS7_IFiiEEEE3$_0NS_9allocatorISG_EES8_E18destroy_deallocateEv', symObjAddr: 0x2194, symBinAddr: 0x49CA0, symSize: 0x4 }
  - { offset: 0x25DDA6, size: 0x8, addend: 0x0, symName: '__ZNSt3__110__function6__funcIZN19llama_kv_cache_iswaC1ERK11llama_model9ggml_typeS6_bbbbjjjjRKNS_8functionIFbiEEERKNS7_IFiiEEEE3$_0NS_9allocatorISG_EES8_E18destroy_deallocateEv', symObjAddr: 0x2194, symBinAddr: 0x49CA0, symSize: 0x4 }
  - { offset: 0x25DDCC, size: 0x8, addend: 0x0, symName: '__ZNSt3__110__function6__funcIZN19llama_kv_cache_iswaC1ERK11llama_model9ggml_typeS6_bbbbjjjjRKNS_8functionIFbiEEERKNS7_IFiiEEEE3$_0NS_9allocatorISG_EES8_E18destroy_deallocateEv', symObjAddr: 0x2194, symBinAddr: 0x49CA0, symSize: 0x4 }
  - { offset: 0x25DEEB, size: 0x8, addend: 0x0, symName: '__ZNSt3__110__function6__funcIZN19llama_kv_cache_iswaC1ERK11llama_model9ggml_typeS6_bbbbjjjjRKNS_8functionIFbiEEERKNS7_IFiiEEEE3$_0NS_9allocatorISG_EES8_EclEOi', symObjAddr: 0x2198, symBinAddr: 0x49CA4, symSize: 0x60 }
  - { offset: 0x25E082, size: 0x8, addend: 0x0, symName: '__ZNKSt3__110__function6__funcIZN19llama_kv_cache_iswaC1ERK11llama_model9ggml_typeS6_bbbbjjjjRKNS_8functionIFbiEEERKNS7_IFiiEEEE3$_0NS_9allocatorISG_EES8_E6targetERKSt9type_info', symObjAddr: 0x21F8, symBinAddr: 0x49D04, symSize: 0x64 }
  - { offset: 0x25E14D, size: 0x8, addend: 0x0, symName: '__ZNKSt3__110__function6__funcIZN19llama_kv_cache_iswaC1ERK11llama_model9ggml_typeS6_bbbbjjjjRKNS_8functionIFbiEEERKNS7_IFiiEEEE3$_0NS_9allocatorISG_EES8_E11target_typeEv', symObjAddr: 0x225C, symBinAddr: 0x49D68, symSize: 0xC }
  - { offset: 0x25E170, size: 0x8, addend: 0x0, symName: '__ZNSt3__110__function6__funcIZN19llama_kv_cache_iswaC1ERK11llama_model9ggml_typeS6_bbbbjjjjRKNS_8functionIFbiEEERKNS7_IFiiEEEE3$_1NS_9allocatorISG_EES8_ED1Ev', symObjAddr: 0x2290, symBinAddr: 0x49D74, symSize: 0x4 }
  - { offset: 0x25E19B, size: 0x8, addend: 0x0, symName: '__ZNSt3__110__function6__funcIZN19llama_kv_cache_iswaC1ERK11llama_model9ggml_typeS6_bbbbjjjjRKNS_8functionIFbiEEERKNS7_IFiiEEEE3$_1NS_9allocatorISG_EES8_ED0Ev', symObjAddr: 0x2294, symBinAddr: 0x49D78, symSize: 0x4 }
  - { offset: 0x25E39C, size: 0x8, addend: 0x0, symName: '__ZNKSt3__110__function6__funcIZN19llama_kv_cache_iswaC1ERK11llama_model9ggml_typeS6_bbbbjjjjRKNS_8functionIFbiEEERKNS7_IFiiEEEE3$_1NS_9allocatorISG_EES8_E7__cloneEv', symObjAddr: 0x2298, symBinAddr: 0x49D7C, symSize: 0x38 }
  - { offset: 0x25E6C0, size: 0x8, addend: 0x0, symName: '__ZNKSt3__110__function6__funcIZN19llama_kv_cache_iswaC1ERK11llama_model9ggml_typeS6_bbbbjjjjRKNS_8functionIFbiEEERKNS7_IFiiEEEE3$_1NS_9allocatorISG_EES8_E7__cloneEPNS0_6__baseIS8_EE', symObjAddr: 0x22D0, symBinAddr: 0x49DB4, symSize: 0x18 }
  - { offset: 0x25E6F5, size: 0x8, addend: 0x0, symName: '__ZNKSt3__110__function6__funcIZN19llama_kv_cache_iswaC1ERK11llama_model9ggml_typeS6_bbbbjjjjRKNS_8functionIFbiEEERKNS7_IFiiEEEE3$_1NS_9allocatorISG_EES8_E7__cloneEPNS0_6__baseIS8_EE', symObjAddr: 0x22D0, symBinAddr: 0x49DB4, symSize: 0x18 }
  - { offset: 0x25E71A, size: 0x8, addend: 0x0, symName: '__ZNKSt3__110__function6__funcIZN19llama_kv_cache_iswaC1ERK11llama_model9ggml_typeS6_bbbbjjjjRKNS_8functionIFbiEEERKNS7_IFiiEEEE3$_1NS_9allocatorISG_EES8_E7__cloneEPNS0_6__baseIS8_EE', symObjAddr: 0x22D0, symBinAddr: 0x49DB4, symSize: 0x18 }
  - { offset: 0x25E803, size: 0x8, addend: 0x0, symName: '__ZNSt3__110__function6__funcIZN19llama_kv_cache_iswaC1ERK11llama_model9ggml_typeS6_bbbbjjjjRKNS_8functionIFbiEEERKNS7_IFiiEEEE3$_1NS_9allocatorISG_EES8_E7destroyEv', symObjAddr: 0x22E8, symBinAddr: 0x49DCC, symSize: 0x4 }
  - { offset: 0x25E852, size: 0x8, addend: 0x0, symName: '__ZNSt3__110__function6__funcIZN19llama_kv_cache_iswaC1ERK11llama_model9ggml_typeS6_bbbbjjjjRKNS_8functionIFbiEEERKNS7_IFiiEEEE3$_1NS_9allocatorISG_EES8_E18destroy_deallocateEv', symObjAddr: 0x22EC, symBinAddr: 0x49DD0, symSize: 0x4 }
  - { offset: 0x25E887, size: 0x8, addend: 0x0, symName: '__ZNSt3__110__function6__funcIZN19llama_kv_cache_iswaC1ERK11llama_model9ggml_typeS6_bbbbjjjjRKNS_8functionIFbiEEERKNS7_IFiiEEEE3$_1NS_9allocatorISG_EES8_E18destroy_deallocateEv', symObjAddr: 0x22EC, symBinAddr: 0x49DD0, symSize: 0x4 }
  - { offset: 0x25E8AA, size: 0x8, addend: 0x0, symName: '__ZNSt3__110__function6__funcIZN19llama_kv_cache_iswaC1ERK11llama_model9ggml_typeS6_bbbbjjjjRKNS_8functionIFbiEEERKNS7_IFiiEEEE3$_1NS_9allocatorISG_EES8_E18destroy_deallocateEv', symObjAddr: 0x22EC, symBinAddr: 0x49DD0, symSize: 0x4 }
  - { offset: 0x25E8D6, size: 0x8, addend: 0x0, symName: '__ZNSt3__110__function6__funcIZN19llama_kv_cache_iswaC1ERK11llama_model9ggml_typeS6_bbbbjjjjRKNS_8functionIFbiEEERKNS7_IFiiEEEE3$_1NS_9allocatorISG_EES8_E18destroy_deallocateEv', symObjAddr: 0x22EC, symBinAddr: 0x49DD0, symSize: 0x4 }
  - { offset: 0x25E8FC, size: 0x8, addend: 0x0, symName: '__ZNSt3__110__function6__funcIZN19llama_kv_cache_iswaC1ERK11llama_model9ggml_typeS6_bbbbjjjjRKNS_8functionIFbiEEERKNS7_IFiiEEEE3$_1NS_9allocatorISG_EES8_E18destroy_deallocateEv', symObjAddr: 0x22EC, symBinAddr: 0x49DD0, symSize: 0x4 }
  - { offset: 0x25E99F, size: 0x8, addend: 0x0, symName: '__ZNSt3__110__function6__funcIZN19llama_kv_cache_iswaC1ERK11llama_model9ggml_typeS6_bbbbjjjjRKNS_8functionIFbiEEERKNS7_IFiiEEEE3$_1NS_9allocatorISG_EES8_EclEOi', symObjAddr: 0x22F0, symBinAddr: 0x49DD4, symSize: 0x5C }
  - { offset: 0x25EADE, size: 0x8, addend: 0x0, symName: '__ZNKSt3__110__function6__funcIZN19llama_kv_cache_iswaC1ERK11llama_model9ggml_typeS6_bbbbjjjjRKNS_8functionIFbiEEERKNS7_IFiiEEEE3$_1NS_9allocatorISG_EES8_E6targetERKSt9type_info', symObjAddr: 0x234C, symBinAddr: 0x49E30, symSize: 0x64 }
  - { offset: 0x25EB92, size: 0x8, addend: 0x0, symName: '__ZNKSt3__110__function6__funcIZN19llama_kv_cache_iswaC1ERK11llama_model9ggml_typeS6_bbbbjjjjRKNS_8functionIFbiEEERKNS7_IFiiEEEE3$_1NS_9allocatorISG_EES8_E11target_typeEv', symObjAddr: 0x23B0, symBinAddr: 0x49E94, symSize: 0xC }
  - { offset: 0x293FAB, size: 0x8, addend: 0x0, symName: __ZNSt3__113__tree_removeB8ne190102IPNS_16__tree_node_baseIPvEEEEvT_S5_, symObjAddr: 0xAE20, symBinAddr: 0x54960, symSize: 0x3C0 }
  - { offset: 0x295A65, size: 0x8, addend: 0x0, symName: __ZNSt3__135__uninitialized_allocator_copy_implB8ne190102INS_9allocatorINS_6vectorIjNS1_IjEEEEEEPS4_S6_S6_EET2_RT_T0_T1_S7_, symObjAddr: 0xB614, symBinAddr: 0x55154, symSize: 0xFC }
  - { offset: 0x2965B5, size: 0x8, addend: 0x0, symName: __ZNSt3__134__uninitialized_allocator_relocateB8ne190102INS_9allocatorIN14llama_kv_cache9slot_infoEEES3_EEvRT_PT0_S8_S8_, symObjAddr: 0xD16C, symBinAddr: 0x5687C, symSize: 0xF8 }
  - { offset: 0x296610, size: 0x8, addend: 0x0, symName: __ZNSt3__134__uninitialized_allocator_relocateB8ne190102INS_9allocatorIN14llama_kv_cache9slot_infoEEES3_EEvRT_PT0_S8_S8_, symObjAddr: 0xD16C, symBinAddr: 0x5687C, symSize: 0xF8 }
  - { offset: 0x29ED09, size: 0x8, addend: 0x0, symName: __ZN14llama_kv_cacheC2ERK11llama_model9ggml_typeS3_bbbjjjj14llama_swa_typeRKNSt3__18functionIFbiEEERKNS6_IFiiEEE, symObjAddr: 0x0, symBinAddr: 0x4A120, symSize: 0x11D0 }
  - { offset: 0x2A2C87, size: 0x8, addend: 0x0, symName: __ZN14llama_kv_cache7prepareERKNSt3__16vectorI12llama_ubatchNS0_9allocatorIS2_EEEE, symObjAddr: 0x3474, symBinAddr: 0x4D538, symSize: 0xF14 }
  - { offset: 0x2A9204, size: 0x8, addend: 0x0, symName: __ZNSt3__16vectorIjNS_9allocatorIjEEE8__appendEm, symObjAddr: 0xBD2C, symBinAddr: 0x556B4, symSize: 0x124 }
  - { offset: 0x2A960C, size: 0x8, addend: 0x0, symName: __ZNSt3__16vectorI14llama_kv_cellsNS_9allocatorIS1_EEE8__appendEm, symObjAddr: 0xBE64, symBinAddr: 0x557D8, symSize: 0x260 }
  - { offset: 0x2A9E15, size: 0x8, addend: 0x0, symName: __ZNKSt3__16vectorI14llama_kv_cellsNS_9allocatorIS1_EEE20__throw_length_errorB8ne190102Ev, symObjAddr: 0xC0C4, symBinAddr: 0x55A38, symSize: 0x14 }
  - { offset: 0x2A9E20, size: 0x8, addend: 0x0, symName: __ZNSt3__19allocatorI14llama_kv_cellsE7destroyB8ne190102EPS1_, symObjAddr: 0xBC48, symBinAddr: 0x555D0, symSize: 0x90 }
  - { offset: 0x2AA504, size: 0x8, addend: 0x0, symName: __ZN14llama_kv_cells6resizeEj, symObjAddr: 0x11D0, symBinAddr: 0x4B2F0, symSize: 0x178 }
  - { offset: 0x2AA998, size: 0x8, addend: 0x0, symName: __ZNSt3__16vectorIjNS_9allocatorIjEEE8__appendEmRKj, symObjAddr: 0xC1FC, symBinAddr: 0x55B70, symSize: 0x1B8 }
  - { offset: 0x2AAF20, size: 0x8, addend: 0x0, symName: __ZNSt3__112__hash_tableINS_17__hash_value_typeIiiEENS_22__unordered_map_hasherIiS2_NS_4hashIiEENS_8equal_toIiEELb1EEENS_21__unordered_map_equalIiS2_S7_S5_Lb1EEENS_9allocatorIS2_EEE25__emplace_unique_key_argsIiJRKNS_21piecewise_construct_tENS_5tupleIJOiEEENSI_IJEEEEEENS_4pairINS_15__hash_iteratorIPNS_11__hash_nodeIS2_PvEEEEbEERKT_DpOT0_, symObjAddr: 0xC3FC, symBinAddr: 0x55D28, symSize: 0x328 }
  - { offset: 0x2AB68C, size: 0x8, addend: 0x0, symName: __ZNSt3__16vectorIN14llama_kv_cache8kv_layerENS_9allocatorIS2_EEE21__push_back_slow_pathIS2_EEPS2_OT_, symObjAddr: 0xC8C4, symBinAddr: 0x561F0, symSize: 0x1D8 }
  - { offset: 0x2ABF3C, size: 0x8, addend: 0x0, symName: __ZNKSt3__16vectorIN14llama_kv_cache8kv_layerENS_9allocatorIS2_EEE20__throw_length_errorB8ne190102Ev, symObjAddr: 0xCA9C, symBinAddr: 0x563C8, symSize: 0x14 }
  - { offset: 0x2ABF50, size: 0x8, addend: 0x0, symName: __ZNSt3__112__hash_tableINS_17__hash_value_typeIiiEENS_22__unordered_map_hasherIiS2_NS_4hashIiEENS_8equal_toIiEELb1EEENS_21__unordered_map_equalIiS2_S7_S5_Lb1EEENS_9allocatorIS2_EEE25__emplace_unique_key_argsIiJRKNS_21piecewise_construct_tENS_5tupleIJRKiEEENSI_IJEEEEEENS_4pairINS_15__hash_iteratorIPNS_11__hash_nodeIS2_PvEEEEbEERKT_DpOT0_, symObjAddr: 0xCAB0, symBinAddr: 0x563DC, symSize: 0x328 }
  - { offset: 0x2AC75E, size: 0x8, addend: 0x0, symName: __ZNSt3__16__treeINS_12__value_typeIP24ggml_backend_buffer_typeNS_10unique_ptrI12ggml_context20ggml_context_deleterEEEENS_19__map_value_compareIS3_S8_ZN14llama_kv_cacheC1ERK11llama_model9ggml_typeSE_bbbjjjj14llama_swa_typeRKNS_8functionIFbiEEERKNSG_IFiiEEEE28ggml_backend_buft_comparatorLb1EEENS_9allocatorIS8_EEE7destroyEPNS_11__tree_nodeIS8_PvEE, symObjAddr: 0xBCD8, symBinAddr: 0x55660, symSize: 0x54 }
  - { offset: 0x2AC99C, size: 0x8, addend: 0x0, symName: __ZNSt3__112__hash_tableINS_17__hash_value_typeIiiEENS_22__unordered_map_hasherIiS2_NS_4hashIiEENS_8equal_toIiEELb1EEENS_21__unordered_map_equalIiS2_S7_S5_Lb1EEENS_9allocatorIS2_EEE25__emplace_unique_key_argsIiJRKNS_21piecewise_construct_tENS_5tupleIJOiEEENSI_IJEEEEEENS_4pairINS_15__hash_iteratorIPNS_11__hash_nodeIS2_PvEEEEbEERKT_DpOT0_, symObjAddr: 0xC3FC, symBinAddr: 0x55D28, symSize: 0x328 }
  - { offset: 0x2AC9A7, size: 0x8, addend: 0x0, symName: __ZNKSt3__16vectorINS_4pairINS_10unique_ptrI12ggml_context20ggml_context_deleterEENS2_I19ggml_backend_buffer27ggml_backend_buffer_deleterEEEENS_9allocatorIS9_EEE20__throw_length_errorB8ne190102Ev, symObjAddr: 0xCDD8, symBinAddr: 0x56704, symSize: 0x14 }
  - { offset: 0x2AC9DC, size: 0x8, addend: 0x0, symName: __ZN14llama_kv_cache8kv_layerD1Ev, symObjAddr: 0x1348, symBinAddr: 0x4B468, symSize: 0x40 }
  - { offset: 0x2ACCA4, size: 0x8, addend: 0x0, symName: __ZNSt3__113unordered_mapIiiNS_4hashIiEENS_8equal_toIiEENS_9allocatorINS_4pairIKiiEEEEED1B8ne190102Ev, symObjAddr: 0x1450, symBinAddr: 0x4B570, symSize: 0x48 }
  - { offset: 0x2ACF78, size: 0x8, addend: 0x0, symName: __ZNSt3__16vectorIN14llama_kv_cache8kv_layerENS_9allocatorIS2_EEED1B8ne190102Ev, symObjAddr: 0x1498, symBinAddr: 0x4B5B8, symSize: 0x80 }
  - { offset: 0x2AD3A5, size: 0x8, addend: 0x0, symName: __ZN14llama_kv_cache16stream_copy_infoD1Ev, symObjAddr: 0x1518, symBinAddr: 0x4B638, symSize: 0x40 }
  - { offset: 0x2AD661, size: 0x8, addend: 0x0, symName: __ZNSt3__16vectorI14llama_kv_cellsNS_9allocatorIS1_EEED1B8ne190102Ev, symObjAddr: 0x1558, symBinAddr: 0x4B678, symSize: 0x68 }
  - { offset: 0x2AD7C4, size: 0x8, addend: 0x0, symName: __ZNSt3__16vectorINS_4pairINS_10unique_ptrI12ggml_context20ggml_context_deleterEENS2_I19ggml_backend_buffer27ggml_backend_buffer_deleterEEEENS_9allocatorIS9_EEED1B8ne190102Ev, symObjAddr: 0x15C0, symBinAddr: 0x4B6E0, symSize: 0x84 }
  - { offset: 0x2AE04C, size: 0x8, addend: 0x0, symName: __ZNSt3__16vectorI17llama_kv_cell_extNS_9allocatorIS1_EEE8__appendEm, symObjAddr: 0xA900, symBinAddr: 0x5467C, symSize: 0x124 }
  - { offset: 0x2AE49F, size: 0x8, addend: 0x0, symName: __ZNKSt3__16vectorI17llama_kv_cell_extNS_9allocatorIS1_EEE20__throw_length_errorB8ne190102Ev, symObjAddr: 0xAA24, symBinAddr: 0x547A0, symSize: 0x14 }
  - { offset: 0x2AE4AA, size: 0x8, addend: 0x0, symName: __ZNSt3__16vectorINS_6bitsetILm256EEENS_9allocatorIS2_EEE8__appendEm, symObjAddr: 0xAA38, symBinAddr: 0x547B4, symSize: 0x124 }
  - { offset: 0x2AE934, size: 0x8, addend: 0x0, symName: __ZNSt3__16__treeIjNS_4lessIjEENS_9allocatorIjEEE7destroyEPNS_11__tree_nodeIjPvEE, symObjAddr: 0xAD24, symBinAddr: 0x548D8, symSize: 0x44 }
  - { offset: 0x2AEA6D, size: 0x8, addend: 0x0, symName: __ZNSt3__16__treeINS_12__value_typeIiiEENS_19__map_value_compareIiS2_NS_4lessIiEELb1EEENS_9allocatorIS2_EEE7destroyEPNS_11__tree_nodeIS2_PvEE, symObjAddr: 0xAD68, symBinAddr: 0x5491C, symSize: 0x44 }
  - { offset: 0x2AEBA8, size: 0x8, addend: 0x0, symName: __ZNK14llama_kv_cache12size_k_bytesEv, symObjAddr: 0x1388, symBinAddr: 0x4B4A8, symSize: 0x64 }
  - { offset: 0x2AEC56, size: 0x8, addend: 0x0, symName: __ZNK14llama_kv_cache12size_v_bytesEv, symObjAddr: 0x13EC, symBinAddr: 0x4B50C, symSize: 0x64 }
  - { offset: 0x2AF2FB, size: 0x8, addend: 0x0, symName: __ZN14llama_kv_cacheC1ERK11llama_model9ggml_typeS3_bbbjjjj14llama_swa_typeRKNSt3__18functionIFbiEEERKNS6_IFiiEEE, symObjAddr: 0x1644, symBinAddr: 0x4B764, symSize: 0x20 }
  - { offset: 0x2AF4A5, size: 0x8, addend: 0x0, symName: __ZN14llama_kv_cache5clearEb, symObjAddr: 0x1664, symBinAddr: 0x4B784, symSize: 0x148 }
  - { offset: 0x2AFE27, size: 0x8, addend: 0x0, symName: __ZN14llama_kv_cache6seq_rmEiii, symObjAddr: 0x17AC, symBinAddr: 0x4B8CC, symSize: 0x444 }
  - { offset: 0x2B0A22, size: 0x8, addend: 0x0, symName: __ZN14llama_kv_cells6seq_rmEji, symObjAddr: 0x1BF0, symBinAddr: 0x4BD10, symSize: 0x288 }
  - { offset: 0x2B0A35, size: 0x8, addend: 0x0, symName: __ZN14llama_kv_cells6seq_rmEji, symObjAddr: 0x1BF0, symBinAddr: 0x4BD10, symSize: 0x288 }
  - { offset: 0x2B1187, size: 0x8, addend: 0x0, symName: __ZN14llama_kv_cache6seq_cpEiiii, symObjAddr: 0x1E78, symBinAddr: 0x4BF98, symSize: 0x650 }
  - { offset: 0x2B18F6, size: 0x8, addend: 0x0, symName: __ZN14llama_kv_cache6seq_cpEiiii, symObjAddr: 0x1E78, symBinAddr: 0x4BF98, symSize: 0x650 }
  - { offset: 0x2B2BD4, size: 0x8, addend: 0x0, symName: __ZN14llama_kv_cells7seq_addEji, symObjAddr: 0x24C8, symBinAddr: 0x4C5E8, symSize: 0x114 }
  - { offset: 0x2B2BEB, size: 0x8, addend: 0x0, symName: __ZN14llama_kv_cells7seq_addEji, symObjAddr: 0x24C8, symBinAddr: 0x4C5E8, symSize: 0x114 }
  - { offset: 0x2B2F9C, size: 0x8, addend: 0x0, symName: __ZNK14llama_kv_cache8get_sizeEv, symObjAddr: 0x25DC, symBinAddr: 0x4C6FC, symSize: 0x24 }
  - { offset: 0x2B2FA7, size: 0x8, addend: 0x0, symName: __ZN14llama_kv_cells7pos_addEji, symObjAddr: 0x2600, symBinAddr: 0x4C720, symSize: 0x144 }
  - { offset: 0x2B3405, size: 0x8, addend: 0x0, symName: __ZNSt3__16vectorI14llama_kv_cellsNS_9allocatorIS1_EEE8__appendEm, symObjAddr: 0xBE64, symBinAddr: 0x557D8, symSize: 0x260 }
  - { offset: 0x2B387A, size: 0x8, addend: 0x0, symName: __ZNK14llama_kv_cache8get_sizeEv, symObjAddr: 0x25DC, symBinAddr: 0x4C6FC, symSize: 0x24 }
  - { offset: 0x2B38A7, size: 0x8, addend: 0x0, symName: __ZNK14llama_kv_cache8get_sizeEv, symObjAddr: 0x25DC, symBinAddr: 0x4C6FC, symSize: 0x24 }
  - { offset: 0x2B3930, size: 0x8, addend: 0x0, symName: __ZN14llama_kv_cells10seq_pos_rmEj, symObjAddr: 0xB1E0, symBinAddr: 0x54D20, symSize: 0x128 }
  - { offset: 0x2B3D31, size: 0x8, addend: 0x0, symName: __ZN14llama_kv_cells11seq_pos_addEj, symObjAddr: 0xB308, symBinAddr: 0x54E48, symSize: 0x120 }
  - { offset: 0x2B4111, size: 0x8, addend: 0x0, symName: __ZN14llama_kv_cache8seq_keepEi, symObjAddr: 0x2744, symBinAddr: 0x4C864, symSize: 0xE4 }
  - { offset: 0x2B42A3, size: 0x8, addend: 0x0, symName: __ZN14llama_kv_cells8seq_keepEji, symObjAddr: 0x2828, symBinAddr: 0x4C948, symSize: 0x260 }
  - { offset: 0x2B42B6, size: 0x8, addend: 0x0, symName: __ZN14llama_kv_cells8seq_keepEji, symObjAddr: 0x2828, symBinAddr: 0x4C948, symSize: 0x260 }
  - { offset: 0x2B4BEE, size: 0x8, addend: 0x0, symName: __ZN14llama_kv_cache7seq_addEiiii, symObjAddr: 0x2A88, symBinAddr: 0x4CBA8, symSize: 0x1F0 }
  - { offset: 0x2B4BF9, size: 0x8, addend: 0x0, symName: __ZN14llama_kv_cache7seq_addEiiii, symObjAddr: 0x2A88, symBinAddr: 0x4CBA8, symSize: 0x1F0 }
  - { offset: 0x2B4E1D, size: 0x8, addend: 0x0, symName: __ZN14llama_kv_cache7seq_divEiiii, symObjAddr: 0x2C78, symBinAddr: 0x4CD98, symSize: 0x1F0 }
  - { offset: 0x2B4E6F, size: 0x8, addend: 0x0, symName: __ZN14llama_kv_cache7seq_divEiiii, symObjAddr: 0x2C78, symBinAddr: 0x4CD98, symSize: 0x1F0 }
  - { offset: 0x2B50CB, size: 0x8, addend: 0x0, symName: __ZNK14llama_kv_cache11seq_pos_minEi, symObjAddr: 0x2E68, symBinAddr: 0x4CF88, symSize: 0x7C }
  - { offset: 0x2B5147, size: 0x8, addend: 0x0, symName: __ZNK14llama_kv_cache11seq_pos_minEi, symObjAddr: 0x2E68, symBinAddr: 0x4CF88, symSize: 0x7C }
  - { offset: 0x2B5239, size: 0x8, addend: 0x0, symName: __ZNK14llama_kv_cache11seq_pos_maxEi, symObjAddr: 0x2EE4, symBinAddr: 0x4D004, symSize: 0xB8 }
  - { offset: 0x2B52E0, size: 0x8, addend: 0x0, symName: __ZNK14llama_kv_cache11seq_pos_maxEi, symObjAddr: 0x2EE4, symBinAddr: 0x4D004, symSize: 0xB8 }
  - { offset: 0x2B5466, size: 0x8, addend: 0x0, symName: __ZNK14llama_kv_cache16memory_breakdownEv, symObjAddr: 0x2F9C, symBinAddr: 0x4D0BC, symSize: 0x164 }
  - { offset: 0x2B5A98, size: 0x8, addend: 0x0, symName: __ZNK14llama_kv_cache16memory_breakdownEv, symObjAddr: 0x2F9C, symBinAddr: 0x4D0BC, symSize: 0x164 }
  - { offset: 0x2B681B, size: 0x8, addend: 0x0, symName: __ZN14llama_kv_cache10init_batchER18llama_batch_allocrjb, symObjAddr: 0x3100, symBinAddr: 0x4D220, symSize: 0x318 }
  - { offset: 0x2B9373, size: 0x8, addend: 0x0, symName: __ZNK14llama_kv_cache9find_slotERK12llama_ubatchb, symObjAddr: 0x4708, symBinAddr: 0x4E670, symSize: 0xBF8 }
  - { offset: 0x2BBB20, size: 0x8, addend: 0x0, symName: __ZN14llama_kv_cache9slot_infoC2ERKS0_, symObjAddr: 0xB428, symBinAddr: 0x54F68, symSize: 0x154 }
  - { offset: 0x2BC158, size: 0x8, addend: 0x0, symName: __ZNSt3__16vectorIN14llama_kv_cache9slot_infoENS_9allocatorIS2_EEE21__push_back_slow_pathIRKS2_EEPS2_OT_, symObjAddr: 0xD008, symBinAddr: 0x56718, symSize: 0x150 }
  - { offset: 0x2BC5BD, size: 0x8, addend: 0x0, symName: __ZZN14llama_kv_cache7prepareERKNSt3__16vectorI12llama_ubatchNS0_9allocatorIS2_EEEEEN7state_tD1Ev, symObjAddr: 0x541C, symBinAddr: 0x4F384, symSize: 0xD4 }
  - { offset: 0x2BCCBE, size: 0x8, addend: 0x0, symName: __ZN14llama_kv_cache12apply_ubatchERKNS_9slot_infoERK12llama_ubatch, symObjAddr: 0x54F0, symBinAddr: 0x4F458, symSize: 0xA44 }
  - { offset: 0x2BE6C2, size: 0x8, addend: 0x0, symName: __ZN14llama_kv_cells3setERKNSt3__16vectorIjNS0_9allocatorIjEEEERKS_, symObjAddr: 0x5F34, symBinAddr: 0x4FE9C, symSize: 0x258 }
  - { offset: 0x2BE706, size: 0x8, addend: 0x0, symName: __ZN14llama_kv_cells3setERKNSt3__16vectorIjNS0_9allocatorIjEEEERKS_, symObjAddr: 0x5F34, symBinAddr: 0x4FE9C, symSize: 0x258 }
  - { offset: 0x2BEDEF, size: 0x8, addend: 0x0, symName: __ZNKSt3__16vectorI14llama_kv_cellsNS_9allocatorIS1_EEE20__throw_length_errorB8ne190102Ev, symObjAddr: 0xC0C4, symBinAddr: 0x55A38, symSize: 0x14 }
  - { offset: 0x2BEE19, size: 0x8, addend: 0x0, symName: __ZNSt3__19allocatorI14llama_kv_cellsE9constructB8ne190102IS1_JS1_EEEvPT_DpOT0_, symObjAddr: 0xC0D8, symBinAddr: 0x55A4C, symSize: 0x124 }
  - { offset: 0x2BEE24, size: 0x8, addend: 0x0, symName: __ZNKSt3__16vectorIZN14llama_kv_cache7prepareERKNS0_I12llama_ubatchNS_9allocatorIS2_EEEEE7state_tNS3_IS8_EEE20__throw_length_errorB8ne190102Ev, symObjAddr: 0xD31C, symBinAddr: 0x56A2C, symSize: 0x14 }
  - { offset: 0x2BEE4A, size: 0x8, addend: 0x0, symName: __ZNKSt3__16vectorINS_4pairIjjEENS_9allocatorIS2_EEE20__throw_length_errorB8ne190102Ev, symObjAddr: 0xD330, symBinAddr: 0x56A40, symSize: 0x14 }
  - { offset: 0x2BEE55, size: 0x8, addend: 0x0, symName: __ZN14llama_kv_cache9slot_infoD1Ev, symObjAddr: 0x5300, symBinAddr: 0x4F268, symSize: 0x84 }
  - { offset: 0x2BF271, size: 0x8, addend: 0x0, symName: __ZN14llama_kv_cellsD1Ev, symObjAddr: 0x5384, symBinAddr: 0x4F2EC, symSize: 0x98 }
  - { offset: 0x2BF932, size: 0x8, addend: 0x0, symName: __ZNSt3__16vectorIZN14llama_kv_cache7prepareERKNS0_I12llama_ubatchNS_9allocatorIS2_EEEEE7state_tNS3_IS8_EEED1B8ne190102Ev, symObjAddr: 0x618C, symBinAddr: 0x500F4, symSize: 0x58 }
  - { offset: 0x2BFACF, size: 0x8, addend: 0x0, symName: __ZN14llama_kv_cache9init_fullEv, symObjAddr: 0x44E4, symBinAddr: 0x4E44C, symSize: 0x54 }
  - { offset: 0x2BFBCC, size: 0x8, addend: 0x0, symName: __ZN22llama_kv_cache_contextC2EP14llama_kv_cache, symObjAddr: 0x9C78, symBinAddr: 0x53BE0, symSize: 0x28C }
  - { offset: 0x2C0522, size: 0x8, addend: 0x0, symName: __ZN14llama_kv_cache11init_updateEP13llama_contextb, symObjAddr: 0x4538, symBinAddr: 0x4E4A0, symSize: 0x138 }
  - { offset: 0x2C0867, size: 0x8, addend: 0x0, symName: __ZNK14llama_kv_cache13get_has_shiftEv, symObjAddr: 0x4670, symBinAddr: 0x4E5D8, symSize: 0x98 }
  - { offset: 0x2C0E8F, size: 0x8, addend: 0x0, symName: __ZNSt3__16vectorINS0_IjNS_9allocatorIjEEEENS1_IS3_EEE8__appendEm, symObjAddr: 0xBAC4, symBinAddr: 0x5544C, symSize: 0x184 }
  - { offset: 0x2C12F1, size: 0x8, addend: 0x0, symName: __ZNSt3__19allocatorI14llama_kv_cellsE7destroyB8ne190102EPS1_, symObjAddr: 0xBC48, symBinAddr: 0x555D0, symSize: 0x90 }
  - { offset: 0x2C1499, size: 0x8, addend: 0x0, symName: __ZN14llama_kv_cache6updateEP13llama_contextbRKNS_16stream_copy_infoE, symObjAddr: 0x61E4, symBinAddr: 0x5014C, symSize: 0x2E4 }
  - { offset: 0x2C1867, size: 0x8, addend: 0x0, symName: __ZNK14llama_kv_cache17build_graph_shiftEP16llm_graph_resultP13llama_context, symObjAddr: 0x64C8, symBinAddr: 0x50430, symSize: 0x2A4 }
  - { offset: 0x2C18A8, size: 0x8, addend: 0x0, symName: __ZNK14llama_kv_cache17build_graph_shiftEP16llm_graph_resultP13llama_context, symObjAddr: 0x64C8, symBinAddr: 0x50430, symSize: 0x2A4 }
  - { offset: 0x2C234A, size: 0x8, addend: 0x0, symName: __ZNK14llama_kv_cache16build_rope_shiftERK13llama_cparamsP12ggml_contextP11ggml_tensorS6_S6_ff, symObjAddr: 0x8080, symBinAddr: 0x51FE8, symSize: 0x15C }
  - { offset: 0x2C24F4, size: 0x8, addend: 0x0, symName: __ZNK14llama_kv_cache13is_masked_swaEii, symObjAddr: 0x676C, symBinAddr: 0x506D4, symSize: 0x18 }
  - { offset: 0x2C2528, size: 0x8, addend: 0x0, symName: __ZNK14llama_kv_cache13get_can_shiftEv, symObjAddr: 0x6784, symBinAddr: 0x506EC, symSize: 0x8 }
  - { offset: 0x2C254E, size: 0x8, addend: 0x0, symName: __ZNK14llama_kv_cache12get_n_streamEv, symObjAddr: 0x678C, symBinAddr: 0x506F4, symSize: 0x8 }
  - { offset: 0x2C2570, size: 0x8, addend: 0x0, symName: __ZNK14llama_kv_cache8get_n_kvERKNS_9slot_infoE, symObjAddr: 0x6794, symBinAddr: 0x506FC, symSize: 0xCC }
  - { offset: 0x2C25AF, size: 0x8, addend: 0x0, symName: __ZNK14llama_kv_cache8get_n_kvERKNS_9slot_infoE, symObjAddr: 0x6794, symBinAddr: 0x506FC, symSize: 0xCC }
  - { offset: 0x2C25CD, size: 0x8, addend: 0x0, symName: __ZNK14llama_kv_cache8get_n_kvERKNS_9slot_infoE, symObjAddr: 0x6794, symBinAddr: 0x506FC, symSize: 0xCC }
  - { offset: 0x2C25EA, size: 0x8, addend: 0x0, symName: __ZNK14llama_kv_cache8get_n_kvERKNS_9slot_infoE, symObjAddr: 0x6794, symBinAddr: 0x506FC, symSize: 0xCC }
  - { offset: 0x2C2863, size: 0x8, addend: 0x0, symName: __ZNK14llama_kv_cache5get_kEP12ggml_contextijRKNS_9slot_infoE, symObjAddr: 0x6860, symBinAddr: 0x507C8, symSize: 0x200 }
  - { offset: 0x2C2BEF, size: 0x8, addend: 0x0, symName: __ZNK14llama_kv_cache5get_vEP12ggml_contextijRKNS_9slot_infoE, symObjAddr: 0x6A60, symBinAddr: 0x509C8, symSize: 0x294 }
  - { offset: 0x2C2C3A, size: 0x8, addend: 0x0, symName: __ZNK14llama_kv_cache5get_vEP12ggml_contextijRKNS_9slot_infoE, symObjAddr: 0x6A60, symBinAddr: 0x509C8, symSize: 0x294 }
  - { offset: 0x2C2FDE, size: 0x8, addend: 0x0, symName: __ZNK14llama_kv_cache5cpy_kEP12ggml_contextP11ggml_tensorS3_iRKNS_9slot_infoE, symObjAddr: 0x6CF4, symBinAddr: 0x50C5C, symSize: 0x1F8 }
  - { offset: 0x2C2FE9, size: 0x8, addend: 0x0, symName: __ZNK14llama_kv_cache5cpy_kEP12ggml_contextP11ggml_tensorS3_iRKNS_9slot_infoE, symObjAddr: 0x6CF4, symBinAddr: 0x50C5C, symSize: 0x1F8 }
  - { offset: 0x2C33B0, size: 0x8, addend: 0x0, symName: __ZNK14llama_kv_cache5cpy_vEP12ggml_contextP11ggml_tensorS3_iRKNS_9slot_infoE, symObjAddr: 0x6EEC, symBinAddr: 0x50E54, symSize: 0x2D0 }
  - { offset: 0x2C3407, size: 0x8, addend: 0x0, symName: __ZNK14llama_kv_cache5cpy_vEP12ggml_contextP11ggml_tensorS3_iRKNS_9slot_infoE, symObjAddr: 0x6EEC, symBinAddr: 0x50E54, symSize: 0x2D0 }
  - { offset: 0x2C38CD, size: 0x8, addend: 0x0, symName: __ZNK14llama_kv_cache18build_input_k_idxsEP12ggml_contextRK12llama_ubatch, symObjAddr: 0x71BC, symBinAddr: 0x51124, symSize: 0x34 }
  - { offset: 0x2C3941, size: 0x8, addend: 0x0, symName: __ZNK14llama_kv_cache18build_input_k_idxsEP12ggml_contextRK12llama_ubatch, symObjAddr: 0x71BC, symBinAddr: 0x51124, symSize: 0x34 }
  - { offset: 0x2C39AC, size: 0x8, addend: 0x0, symName: __ZNK14llama_kv_cache18build_input_v_idxsEP12ggml_contextRK12llama_ubatch, symObjAddr: 0x71F0, symBinAddr: 0x51158, symSize: 0x54 }
  - { offset: 0x2C3A1F, size: 0x8, addend: 0x0, symName: __ZNK14llama_kv_cache16set_input_k_idxsEP11ggml_tensorPK12llama_ubatchRKNS_9slot_infoE, symObjAddr: 0x7244, symBinAddr: 0x511AC, symSize: 0x33C }
  - { offset: 0x2C3BC5, size: 0x8, addend: 0x0, symName: __ZNK14llama_kv_cache16set_input_v_idxsEP11ggml_tensorPK12llama_ubatchRKNS_9slot_infoE, symObjAddr: 0x7580, symBinAddr: 0x514E8, symSize: 0x538 }
  - { offset: 0x2C3BEA, size: 0x8, addend: 0x0, symName: __ZNK14llama_kv_cache16set_input_v_idxsEP11ggml_tensorPK12llama_ubatchRKNS_9slot_infoE, symObjAddr: 0x7580, symBinAddr: 0x514E8, symSize: 0x538 }
  - { offset: 0x2C3EC9, size: 0x8, addend: 0x0, symName: __ZNK14llama_kv_cache17set_input_k_shiftEP11ggml_tensor, symObjAddr: 0x7AB8, symBinAddr: 0x51A20, symSize: 0xF0 }
  - { offset: 0x2C3EDC, size: 0x8, addend: 0x0, symName: __ZNK14llama_kv_cache17set_input_k_shiftEP11ggml_tensor, symObjAddr: 0x7AB8, symBinAddr: 0x51A20, symSize: 0xF0 }
  - { offset: 0x2C3FFE, size: 0x8, addend: 0x0, symName: __ZNK14llama_kv_cache17set_input_kq_maskEP11ggml_tensorPK12llama_ubatchb, symObjAddr: 0x7BA8, symBinAddr: 0x51B10, symSize: 0x330 }
  - { offset: 0x2C403D, size: 0x8, addend: 0x0, symName: __ZNK14llama_kv_cache17set_input_kq_maskEP11ggml_tensorPK12llama_ubatchb, symObjAddr: 0x7BA8, symBinAddr: 0x51B10, symSize: 0x330 }
  - { offset: 0x2C4472, size: 0x8, addend: 0x0, symName: __ZNK14llama_kv_cache20set_input_pos_bucketEP11ggml_tensorPK12llama_ubatch, symObjAddr: 0x7ED8, symBinAddr: 0x51E40, symSize: 0x144 }
  - { offset: 0x2C449B, size: 0x8, addend: 0x0, symName: __ZNK14llama_kv_cache20set_input_pos_bucketEP11ggml_tensorPK12llama_ubatch, symObjAddr: 0x7ED8, symBinAddr: 0x51E40, symSize: 0x144 }
  - { offset: 0x2C4660, size: 0x8, addend: 0x0, symName: __ZNK14llama_kv_cache10total_sizeEv, symObjAddr: 0x801C, symBinAddr: 0x51F84, symSize: 0x64 }
  - { offset: 0x2C4698, size: 0x8, addend: 0x0, symName: __ZNK14llama_kv_cache10total_sizeEv, symObjAddr: 0x801C, symBinAddr: 0x51F84, symSize: 0x64 }
  - { offset: 0x2C48D9, size: 0x8, addend: 0x0, symName: __ZN23llm_graph_input_k_shift9set_inputEPK12llama_ubatch, symObjAddr: 0x81DC, symBinAddr: 0x52144, symSize: 0xF4 }
  - { offset: 0x2C4A10, size: 0x8, addend: 0x0, symName: __ZNK14llama_kv_cache11state_writeER16llama_io_write_iij, symObjAddr: 0x82D0, symBinAddr: 0x52238, symSize: 0x4AC }
  - { offset: 0x2C5191, size: 0x8, addend: 0x0, symName: __ZNK14llama_kv_cache11state_writeER16llama_io_write_iij, symObjAddr: 0x82D0, symBinAddr: 0x52238, symSize: 0x4AC }
  - { offset: 0x2C5F10, size: 0x8, addend: 0x0, symName: __ZNK14llama_kv_cache16state_write_metaER16llama_io_write_iRKNS_13cell_ranges_tEi, symObjAddr: 0x877C, symBinAddr: 0x526E4, symSize: 0x2A4 }
  - { offset: 0x2C68D2, size: 0x8, addend: 0x0, symName: __ZNK14llama_kv_cache16state_write_dataER16llama_io_write_iRKNS_13cell_ranges_tE, symObjAddr: 0x8A20, symBinAddr: 0x52988, symSize: 0x374 }
  - { offset: 0x2C70C8, size: 0x8, addend: 0x0, symName: __ZNKSt3__16vectorINS_4pairIjjEENS_9allocatorIS2_EEE20__throw_length_errorB8ne190102Ev, symObjAddr: 0xD330, symBinAddr: 0x56A40, symSize: 0x14 }
  - { offset: 0x2C70F2, size: 0x8, addend: 0x0, symName: __ZNSt3__16vectorIN14llama_kv_cache9slot_infoENS_9allocatorIS2_EEE8__appendEm, symObjAddr: 0xD344, symBinAddr: 0x56A54, symSize: 0x1DC }
  - { offset: 0x2C7439, size: 0x8, addend: 0x0, symName: __ZN14llama_kv_cache10state_readER15llama_io_read_iij, symObjAddr: 0x8D94, symBinAddr: 0x52CFC, symSize: 0x248 }
  - { offset: 0x2C764D, size: 0x8, addend: 0x0, symName: __ZN14llama_kv_cache15state_read_metaER15llama_io_read_ijji, symObjAddr: 0x8FDC, symBinAddr: 0x52F44, symSize: 0x67C }
  - { offset: 0x2C8518, size: 0x8, addend: 0x0, symName: __ZN14llama_kv_cache15state_read_dataER15llama_io_read_ijj, symObjAddr: 0x9658, symBinAddr: 0x535C0, symSize: 0x5B0 }
  - { offset: 0x2C986F, size: 0x8, addend: 0x0, symName: __ZN22llama_kv_cache_contextC2E19llama_memory_status, symObjAddr: 0x9C08, symBinAddr: 0x53B70, symSize: 0x38 }
  - { offset: 0x2C9914, size: 0x8, addend: 0x0, symName: __ZN22llama_kv_cache_contextC1E19llama_memory_status, symObjAddr: 0x9C40, symBinAddr: 0x53BA8, symSize: 0x38 }
  - { offset: 0x2C993D, size: 0x8, addend: 0x0, symName: __ZN22llama_kv_cache_contextC1E19llama_memory_status, symObjAddr: 0x9C40, symBinAddr: 0x53BA8, symSize: 0x38 }
  - { offset: 0x2C9B4C, size: 0x8, addend: 0x0, symName: __ZNSt3__16vectorIN14llama_kv_cache9slot_infoENS_9allocatorIS2_EEE6resizeEm, symObjAddr: 0x9F04, symBinAddr: 0x53E6C, symSize: 0xF0 }
  - { offset: 0x2CA0A5, size: 0x8, addend: 0x0, symName: __ZNSt3__16vectorIN14llama_kv_cache9slot_infoENS_9allocatorIS2_EEE8__appendEm, symObjAddr: 0xD344, symBinAddr: 0x56A54, symSize: 0x1DC }
  - { offset: 0x2CA675, size: 0x8, addend: 0x0, symName: __ZN22llama_kv_cache_contextC1EP14llama_kv_cache, symObjAddr: 0x9FF4, symBinAddr: 0x53F5C, symSize: 0x4 }
  - { offset: 0x2CA69F, size: 0x8, addend: 0x0, symName: __ZN22llama_kv_cache_contextC1EP14llama_kv_cache, symObjAddr: 0x9FF4, symBinAddr: 0x53F5C, symSize: 0x4 }
  - { offset: 0x2CA6B9, size: 0x8, addend: 0x0, symName: __ZN22llama_kv_cache_contextC2EP14llama_kv_cacheP13llama_contextbNS0_16stream_copy_infoE, symObjAddr: 0x9FF8, symBinAddr: 0x53F60, symSize: 0x8C }
  - { offset: 0x2CA859, size: 0x8, addend: 0x0, symName: __ZN22llama_kv_cache_contextC1EP14llama_kv_cacheP13llama_contextbNS0_16stream_copy_infoE, symObjAddr: 0xA084, symBinAddr: 0x53FEC, symSize: 0x8C }
  - { offset: 0x2CAA31, size: 0x8, addend: 0x0, symName: __ZN22llama_kv_cache_contextC2EP14llama_kv_cacheNSt3__16vectorINS0_9slot_infoENS2_9allocatorIS4_EEEENS3_I12llama_ubatchNS5_IS8_EEEE, symObjAddr: 0xA110, symBinAddr: 0x54078, symSize: 0x6C }
  - { offset: 0x2CAB82, size: 0x8, addend: 0x0, symName: __ZN22llama_kv_cache_contextC1EP14llama_kv_cacheNSt3__16vectorINS0_9slot_infoENS2_9allocatorIS4_EEEENS3_I12llama_ubatchNS5_IS8_EEEE, symObjAddr: 0xA17C, symBinAddr: 0x540E4, symSize: 0x6C }
  - { offset: 0x2CABBB, size: 0x8, addend: 0x0, symName: __ZN22llama_kv_cache_contextC1EP14llama_kv_cacheNSt3__16vectorINS0_9slot_infoENS2_9allocatorIS4_EEEENS3_I12llama_ubatchNS5_IS8_EEEE, symObjAddr: 0xA17C, symBinAddr: 0x540E4, symSize: 0x6C }
  - { offset: 0x2CAD23, size: 0x8, addend: 0x0, symName: __ZN22llama_kv_cache_contextD2Ev, symObjAddr: 0xA1E8, symBinAddr: 0x54150, symSize: 0x158 }
  - { offset: 0x2CB7CB, size: 0x8, addend: 0x0, symName: __ZN22llama_kv_cache_contextD1Ev, symObjAddr: 0xA340, symBinAddr: 0x542A8, symSize: 0x4 }
  - { offset: 0x2CB7EE, size: 0x8, addend: 0x0, symName: __ZN22llama_kv_cache_contextD1Ev, symObjAddr: 0xA340, symBinAddr: 0x542A8, symSize: 0x4 }
  - { offset: 0x2CB81E, size: 0x8, addend: 0x0, symName: __ZN22llama_kv_cache_contextD0Ev, symObjAddr: 0xA344, symBinAddr: 0x542AC, symSize: 0x14 }
  - { offset: 0x2CB892, size: 0x8, addend: 0x0, symName: __ZN22llama_kv_cache_context4nextEv, symObjAddr: 0xA358, symBinAddr: 0x542C0, symSize: 0x38 }
  - { offset: 0x2CB96F, size: 0x8, addend: 0x0, symName: __ZN22llama_kv_cache_context5applyEv, symObjAddr: 0xA390, symBinAddr: 0x542F8, symSize: 0x13C }
  - { offset: 0x2CBC68, size: 0x8, addend: 0x0, symName: __ZNK22llama_kv_cache_context10get_statusEv, symObjAddr: 0xA4CC, symBinAddr: 0x54434, symSize: 0x8 }
  - { offset: 0x2CBCB6, size: 0x8, addend: 0x0, symName: __ZNK22llama_kv_cache_context10get_ubatchEv, symObjAddr: 0xA4D4, symBinAddr: 0x5443C, symSize: 0x14 }
  - { offset: 0x2CBD07, size: 0x8, addend: 0x0, symName: __ZNK22llama_kv_cache_context8get_n_kvEv, symObjAddr: 0xA4E8, symBinAddr: 0x54450, symSize: 0x8 }
  - { offset: 0x2CBD55, size: 0x8, addend: 0x0, symName: __ZNK22llama_kv_cache_context5get_kEP12ggml_contexti, symObjAddr: 0xA4F0, symBinAddr: 0x54458, symSize: 0x1C }
  - { offset: 0x2CBDDF, size: 0x8, addend: 0x0, symName: __ZNK22llama_kv_cache_context5get_vEP12ggml_contexti, symObjAddr: 0xA50C, symBinAddr: 0x54474, symSize: 0x1C }
  - { offset: 0x2CBE69, size: 0x8, addend: 0x0, symName: __ZNK22llama_kv_cache_context5cpy_kEP12ggml_contextP11ggml_tensorS3_i, symObjAddr: 0xA528, symBinAddr: 0x54490, symSize: 0x8 }
  - { offset: 0x2CBEF6, size: 0x8, addend: 0x0, symName: __ZNK22llama_kv_cache_context5cpy_vEP12ggml_contextP11ggml_tensorS3_i, symObjAddr: 0xA530, symBinAddr: 0x54498, symSize: 0x8 }
  - { offset: 0x2CBFCC, size: 0x8, addend: 0x0, symName: __ZNK22llama_kv_cache_context18build_input_k_idxsEP12ggml_contextRK12llama_ubatch, symObjAddr: 0xA538, symBinAddr: 0x544A0, symSize: 0x34 }
  - { offset: 0x2CC0B8, size: 0x8, addend: 0x0, symName: __ZNK22llama_kv_cache_context18build_input_v_idxsEP12ggml_contextRK12llama_ubatch, symObjAddr: 0xA56C, symBinAddr: 0x544D4, symSize: 0x58 }
  - { offset: 0x2CC169, size: 0x8, addend: 0x0, symName: __ZNK22llama_kv_cache_context17set_input_k_shiftEP11ggml_tensor, symObjAddr: 0xA5C4, symBinAddr: 0x5452C, symSize: 0xF0 }
  - { offset: 0x2CC2A5, size: 0x8, addend: 0x0, symName: __ZNK22llama_kv_cache_context16set_input_k_idxsEP11ggml_tensorPK12llama_ubatch, symObjAddr: 0xA6B4, symBinAddr: 0x5461C, symSize: 0x18 }
  - { offset: 0x2CC2B8, size: 0x8, addend: 0x0, symName: __ZNK22llama_kv_cache_context16set_input_k_idxsEP11ggml_tensorPK12llama_ubatch, symObjAddr: 0xA6B4, symBinAddr: 0x5461C, symSize: 0x18 }
  - { offset: 0x2CC342, size: 0x8, addend: 0x0, symName: __ZNK22llama_kv_cache_context16set_input_v_idxsEP11ggml_tensorPK12llama_ubatch, symObjAddr: 0xA6CC, symBinAddr: 0x54634, symSize: 0x18 }
  - { offset: 0x2CC3CC, size: 0x8, addend: 0x0, symName: __ZNK22llama_kv_cache_context17set_input_kq_maskEP11ggml_tensorPK12llama_ubatchb, symObjAddr: 0xA6E4, symBinAddr: 0x5464C, symSize: 0x8 }
  - { offset: 0x2CC449, size: 0x8, addend: 0x0, symName: __ZNK22llama_kv_cache_context20set_input_pos_bucketEP11ggml_tensorPK12llama_ubatch, symObjAddr: 0xA6EC, symBinAddr: 0x54654, symSize: 0x8 }
  - { offset: 0x2CC4AC, size: 0x8, addend: 0x0, symName: __ZN14llama_kv_cacheD1Ev, symObjAddr: 0xA6F4, symBinAddr: 0x5465C, symSize: 0x4 }
  - { offset: 0x2CC4CF, size: 0x8, addend: 0x0, symName: __ZN14llama_kv_cacheD1Ev, symObjAddr: 0xA6F4, symBinAddr: 0x5465C, symSize: 0x4 }
  - { offset: 0x2CC4E2, size: 0x8, addend: 0x0, symName: __ZN14llama_kv_cacheD2Ev, symObjAddr: 0xB934, symBinAddr: 0x552BC, symSize: 0x190 }
  - { offset: 0x2CD59D, size: 0x8, addend: 0x0, symName: __ZN14llama_kv_cacheD0Ev, symObjAddr: 0xA6F8, symBinAddr: 0x54660, symSize: 0x14 }
  - { offset: 0x2CD5F7, size: 0x8, addend: 0x0, symName: __ZN23llm_graph_input_k_shiftD1Ev, symObjAddr: 0xA70C, symBinAddr: 0x54674, symSize: 0x4 }
  - { offset: 0x2CD620, size: 0x8, addend: 0x0, symName: __ZN23llm_graph_input_k_shiftD0Ev, symObjAddr: 0xA710, symBinAddr: 0x54678, symSize: 0x4 }
  - { offset: 0x2CDA9F, size: 0x8, addend: 0x0, symName: __ZNKSt3__16vectorI17llama_kv_cell_extNS_9allocatorIS1_EEE20__throw_length_errorB8ne190102Ev, symObjAddr: 0xAA24, symBinAddr: 0x547A0, symSize: 0x14 }
  - { offset: 0x2CDAC9, size: 0x8, addend: 0x0, symName: __ZNSt3__16vectorINS_6bitsetILm256EEENS_9allocatorIS2_EEE8__appendEm, symObjAddr: 0xAA38, symBinAddr: 0x547B4, symSize: 0x124 }
  - { offset: 0x2CE1D6, size: 0x8, addend: 0x0, symName: __ZNKSt3__16vectorINS0_IjNS_9allocatorIjEEEENS1_IS3_EEE20__throw_length_errorB8ne190102Ev, symObjAddr: 0xB600, symBinAddr: 0x55140, symSize: 0x14 }
  - { offset: 0x2CE200, size: 0x8, addend: 0x0, symName: __ZNSt3__135__uninitialized_allocator_copy_implB8ne190102INS_9allocatorINS_6vectorIjNS1_IjEEEEEEPS4_S6_S6_EET2_RT_T0_T1_S7_, symObjAddr: 0xB614, symBinAddr: 0x55154, symSize: 0xFC }
  - { offset: 0x2CE20B, size: 0x8, addend: 0x0, symName: __ZNSt3__128__exception_guard_exceptionsINS_6vectorINS1_IjNS_9allocatorIjEEEENS2_IS4_EEE16__destroy_vectorEED1B8ne190102Ev, symObjAddr: 0xB57C, symBinAddr: 0x550BC, symSize: 0x84 }
  - { offset: 0x2CE554, size: 0x8, addend: 0x0, symName: __ZNSt3__128__exception_guard_exceptionsINS_29_AllocatorDestroyRangeReverseINS_9allocatorINS_6vectorIjNS2_IjEEEEEEPS5_EEED1B8ne190102Ev, symObjAddr: 0xB710, symBinAddr: 0x55250, symSize: 0x6C }
  - { offset: 0x2CF661, size: 0x8, addend: 0x0, symName: __ZNSt3__19allocatorI14llama_kv_cellsE9constructB8ne190102IS1_JS1_EEEvPT_DpOT0_, symObjAddr: 0xC0D8, symBinAddr: 0x55A4C, symSize: 0x124 }
  - { offset: 0x2CF691, size: 0x8, addend: 0x0, symName: __ZNSt3__19allocatorI14llama_kv_cellsE9constructB8ne190102IS1_JS1_EEEvPT_DpOT0_, symObjAddr: 0xC0D8, symBinAddr: 0x55A4C, symSize: 0x124 }
  - { offset: 0x2CF6B3, size: 0x8, addend: 0x0, symName: __ZNSt3__19allocatorI14llama_kv_cellsE9constructB8ne190102IS1_JS1_EEEvPT_DpOT0_, symObjAddr: 0xC0D8, symBinAddr: 0x55A4C, symSize: 0x124 }
  - { offset: 0x2CFE7F, size: 0x8, addend: 0x0, symName: __ZNSt3__112__hash_tableINS_17__hash_value_typeIiiEENS_22__unordered_map_hasherIiS2_NS_4hashIiEENS_8equal_toIiEELb1EEENS_21__unordered_map_equalIiS2_S7_S5_Lb1EEENS_9allocatorIS2_EEE11__do_rehashILb1EEEvm, symObjAddr: 0xC724, symBinAddr: 0x56050, symSize: 0x1A0 }
  - { offset: 0x2D02DD, size: 0x8, addend: 0x0, symName: __ZNSt3__16vectorIN14llama_kv_cache8kv_layerENS_9allocatorIS2_EEE21__push_back_slow_pathIS2_EEPS2_OT_, symObjAddr: 0xC8C4, symBinAddr: 0x561F0, symSize: 0x1D8 }
  - { offset: 0x2D04DD, size: 0x8, addend: 0x0, symName: __ZNKSt3__16vectorIN14llama_kv_cache8kv_layerENS_9allocatorIS2_EEE20__throw_length_errorB8ne190102Ev, symObjAddr: 0xCA9C, symBinAddr: 0x563C8, symSize: 0x14 }
  - { offset: 0x2D0507, size: 0x8, addend: 0x0, symName: __ZNSt3__112__hash_tableINS_17__hash_value_typeIiiEENS_22__unordered_map_hasherIiS2_NS_4hashIiEENS_8equal_toIiEELb1EEENS_21__unordered_map_equalIiS2_S7_S5_Lb1EEENS_9allocatorIS2_EEE25__emplace_unique_key_argsIiJRKNS_21piecewise_construct_tENS_5tupleIJRKiEEENSI_IJEEEEEENS_4pairINS_15__hash_iteratorIPNS_11__hash_nodeIS2_PvEEEEbEERKT_DpOT0_, symObjAddr: 0xCAB0, symBinAddr: 0x563DC, symSize: 0x328 }
  - { offset: 0x2D082E, size: 0x8, addend: 0x0, symName: __ZNSt3__16vectorIN14llama_kv_cache9slot_infoENS_9allocatorIS2_EEE21__push_back_slow_pathIRKS2_EEPS2_OT_, symObjAddr: 0xD008, symBinAddr: 0x56718, symSize: 0x150 }
  - { offset: 0x2D0A5E, size: 0x8, addend: 0x0, symName: __ZNKSt3__16vectorIN14llama_kv_cache9slot_infoENS_9allocatorIS2_EEE20__throw_length_errorB8ne190102Ev, symObjAddr: 0xD158, symBinAddr: 0x56868, symSize: 0x14 }
  - { offset: 0x2D0A88, size: 0x8, addend: 0x0, symName: __ZNSt3__134__uninitialized_allocator_relocateB8ne190102INS_9allocatorIN14llama_kv_cache9slot_infoEEES3_EEvRT_PT0_S8_S8_, symObjAddr: 0xD16C, symBinAddr: 0x5687C, symSize: 0xF8 }
  - { offset: 0x2D0A93, size: 0x8, addend: 0x0, symName: __ZNSt3__114__split_bufferIN14llama_kv_cache9slot_infoERNS_9allocatorIS2_EEED2Ev, symObjAddr: 0xD264, symBinAddr: 0x56974, symSize: 0xB8 }
  - { offset: 0x2D30F7, size: 0x8, addend: 0x0, symName: __ZN19llama_memory_hybridC2ERK11llama_model9ggml_typeS3_bjjj14llama_swa_typeS3_S3_jjbbRKNSt3__18functionIFbiEEESA_, symObjAddr: 0x0, symBinAddr: 0x56C30, symSize: 0x340 }
  - { offset: 0x2FA283, size: 0x8, addend: 0x0, symName: __ZNSt3__111make_uniqueB8ne190102I27llama_memory_hybrid_contextJP19llama_memory_hybridNS_6vectorIN14llama_kv_cache9slot_infoENS_9allocatorIS6_EEEENS4_I12llama_ubatchNS7_ISA_EEEEEEENS_11__unique_ifIT_E15__unique_singleEDpOT0_, symObjAddr: 0x994, symBinAddr: 0x57568, symSize: 0x1B0 }
  - { offset: 0x303889, size: 0x8, addend: 0x0, symName: __ZN19llama_memory_hybridC1ERK11llama_model9ggml_typeS3_bjjj14llama_swa_typeS3_S3_jjbbRKNSt3__18functionIFbiEEESA_, symObjAddr: 0x340, symBinAddr: 0x56F70, symSize: 0x34 }
  - { offset: 0x3046B0, size: 0x8, addend: 0x0, symName: __ZN19llama_memory_hybridC2ERK11llama_model9ggml_typeS3_bjjj14llama_swa_typeS3_S3_jjbbRKNSt3__18functionIFbiEEESA_, symObjAddr: 0x0, symBinAddr: 0x56C30, symSize: 0x340 }
  - { offset: 0x305C92, size: 0x8, addend: 0x0, symName: __ZN19llama_memory_hybrid10init_batchER18llama_batch_allocrjb, symObjAddr: 0x374, symBinAddr: 0x56FA4, symSize: 0x5C4 }
  - { offset: 0x307B67, size: 0x8, addend: 0x0, symName: __ZN27llama_memory_hybrid_contextC2EP19llama_memory_hybridNSt3__16vectorIN14llama_kv_cache9slot_infoENS2_9allocatorIS5_EEEENS3_I12llama_ubatchNS6_IS9_EEEE, symObjAddr: 0x1588, symBinAddr: 0x58000, symSize: 0x4F0 }
  - { offset: 0x309241, size: 0x8, addend: 0x0, symName: __ZN19llama_memory_hybrid9init_fullEv, symObjAddr: 0xCA0, symBinAddr: 0x57718, symSize: 0x54 }
  - { offset: 0x30933B, size: 0x8, addend: 0x0, symName: __ZN27llama_memory_hybrid_contextC2EP19llama_memory_hybrid, symObjAddr: 0x1320, symBinAddr: 0x57D98, symSize: 0x120 }
  - { offset: 0x3095EA, size: 0x8, addend: 0x0, symName: __ZN19llama_memory_hybrid11init_updateEP13llama_contextb, symObjAddr: 0xCF4, symBinAddr: 0x5776C, symSize: 0x6C }
  - { offset: 0x309721, size: 0x8, addend: 0x0, symName: __ZN27llama_memory_hybrid_contextC2EP19llama_memory_hybridP13llama_contextb, symObjAddr: 0x1444, symBinAddr: 0x57EBC, symSize: 0x140 }
  - { offset: 0x3099C6, size: 0x8, addend: 0x0, symName: __ZNK19llama_memory_hybrid13get_can_shiftEv, symObjAddr: 0xD60, symBinAddr: 0x577D8, symSize: 0x10 }
  - { offset: 0x3099F1, size: 0x8, addend: 0x0, symName: __ZNK19llama_memory_hybrid13get_can_shiftEv, symObjAddr: 0xD60, symBinAddr: 0x577D8, symSize: 0x10 }
  - { offset: 0x309A19, size: 0x8, addend: 0x0, symName: __ZN19llama_memory_hybrid5clearEb, symObjAddr: 0xD70, symBinAddr: 0x577E8, symSize: 0x40 }
  - { offset: 0x309AAD, size: 0x8, addend: 0x0, symName: __ZN19llama_memory_hybrid6seq_rmEiii, symObjAddr: 0xDB0, symBinAddr: 0x57828, symSize: 0x6C }
  - { offset: 0x309B6D, size: 0x8, addend: 0x0, symName: __ZN19llama_memory_hybrid6seq_cpEiiii, symObjAddr: 0xE1C, symBinAddr: 0x57894, symSize: 0x68 }
  - { offset: 0x309C43, size: 0x8, addend: 0x0, symName: __ZN19llama_memory_hybrid8seq_keepEi, symObjAddr: 0xE84, symBinAddr: 0x578FC, symSize: 0x40 }
  - { offset: 0x309CD7, size: 0x8, addend: 0x0, symName: __ZN19llama_memory_hybrid7seq_addEiiii, symObjAddr: 0xEC4, symBinAddr: 0x5793C, symSize: 0x68 }
  - { offset: 0x309DAD, size: 0x8, addend: 0x0, symName: __ZN19llama_memory_hybrid7seq_divEiiii, symObjAddr: 0xF2C, symBinAddr: 0x579A4, symSize: 0x68 }
  - { offset: 0x309E83, size: 0x8, addend: 0x0, symName: __ZNK19llama_memory_hybrid11seq_pos_minEi, symObjAddr: 0xF94, symBinAddr: 0x57A0C, symSize: 0x58 }
  - { offset: 0x309F1E, size: 0x8, addend: 0x0, symName: __ZNK19llama_memory_hybrid11seq_pos_maxEi, symObjAddr: 0xFEC, symBinAddr: 0x57A64, symSize: 0x58 }
  - { offset: 0x30A551, size: 0x8, addend: 0x0, symName: __ZNK19llama_memory_hybrid16memory_breakdownEv, symObjAddr: 0x1044, symBinAddr: 0x57ABC, symSize: 0x1CC }
  - { offset: 0x30ACAA, size: 0x8, addend: 0x0, symName: __ZNK19llama_memory_hybrid11state_writeER16llama_io_write_iij, symObjAddr: 0x1210, symBinAddr: 0x57C88, symSize: 0x5C }
  - { offset: 0x30AD54, size: 0x8, addend: 0x0, symName: __ZN19llama_memory_hybrid10state_readER15llama_io_read_iij, symObjAddr: 0x126C, symBinAddr: 0x57CE4, symSize: 0x5C }
  - { offset: 0x30AE14, size: 0x8, addend: 0x0, symName: __ZNK19llama_memory_hybrid12get_mem_attnEv, symObjAddr: 0x12C8, symBinAddr: 0x57D40, symSize: 0x8 }
  - { offset: 0x30AE38, size: 0x8, addend: 0x0, symName: __ZNK19llama_memory_hybrid12get_mem_attnEv, symObjAddr: 0x12C8, symBinAddr: 0x57D40, symSize: 0x8 }
  - { offset: 0x30AE6A, size: 0x8, addend: 0x0, symName: __ZNK19llama_memory_hybrid12get_mem_recrEv, symObjAddr: 0x12D0, symBinAddr: 0x57D48, symSize: 0x8 }
  - { offset: 0x30AE8E, size: 0x8, addend: 0x0, symName: __ZNK19llama_memory_hybrid12get_mem_recrEv, symObjAddr: 0x12D0, symBinAddr: 0x57D48, symSize: 0x8 }
  - { offset: 0x30AEAA, size: 0x8, addend: 0x0, symName: __ZN27llama_memory_hybrid_contextC2E19llama_memory_status, symObjAddr: 0x12D8, symBinAddr: 0x57D50, symSize: 0x24 }
  - { offset: 0x30AF0E, size: 0x8, addend: 0x0, symName: __ZN27llama_memory_hybrid_contextC1E19llama_memory_status, symObjAddr: 0x12FC, symBinAddr: 0x57D74, symSize: 0x24 }
  - { offset: 0x30AF37, size: 0x8, addend: 0x0, symName: __ZN27llama_memory_hybrid_contextC1E19llama_memory_status, symObjAddr: 0x12FC, symBinAddr: 0x57D74, symSize: 0x24 }
  - { offset: 0x30B087, size: 0x8, addend: 0x0, symName: __ZN27llama_memory_hybrid_contextC1EP19llama_memory_hybrid, symObjAddr: 0x1440, symBinAddr: 0x57EB8, symSize: 0x4 }
  - { offset: 0x30B0B1, size: 0x8, addend: 0x0, symName: __ZN27llama_memory_hybrid_contextC1EP19llama_memory_hybrid, symObjAddr: 0x1440, symBinAddr: 0x57EB8, symSize: 0x4 }
  - { offset: 0x30B0CB, size: 0x8, addend: 0x0, symName: __ZN27llama_memory_hybrid_contextC1EP19llama_memory_hybridP13llama_contextb, symObjAddr: 0x1584, symBinAddr: 0x57FFC, symSize: 0x4 }
  - { offset: 0x30B108, size: 0x8, addend: 0x0, symName: __ZN27llama_memory_hybrid_contextC1EP19llama_memory_hybridP13llama_contextb, symObjAddr: 0x1584, symBinAddr: 0x57FFC, symSize: 0x4 }
  - { offset: 0x30B707, size: 0x8, addend: 0x0, symName: __ZN27llama_memory_hybrid_contextC1EP19llama_memory_hybridNSt3__16vectorIN14llama_kv_cache9slot_infoENS2_9allocatorIS5_EEEENS3_I12llama_ubatchNS6_IS9_EEEE, symObjAddr: 0x1A78, symBinAddr: 0x584F0, symSize: 0x4 }
  - { offset: 0x30B741, size: 0x8, addend: 0x0, symName: __ZN27llama_memory_hybrid_contextC1EP19llama_memory_hybridNSt3__16vectorIN14llama_kv_cache9slot_infoENS2_9allocatorIS5_EEEENS3_I12llama_ubatchNS6_IS9_EEEE, symObjAddr: 0x1A78, symBinAddr: 0x584F0, symSize: 0x4 }
  - { offset: 0x30B769, size: 0x8, addend: 0x0, symName: __ZN27llama_memory_hybrid_context4nextEv, symObjAddr: 0x1A7C, symBinAddr: 0x584F4, symSize: 0x70 }
  - { offset: 0x30B804, size: 0x8, addend: 0x0, symName: __ZN27llama_memory_hybrid_context5applyEv, symObjAddr: 0x1AEC, symBinAddr: 0x58564, symSize: 0x44 }
  - { offset: 0x30B891, size: 0x8, addend: 0x0, symName: __ZNK27llama_memory_hybrid_context10get_statusEv, symObjAddr: 0x1B30, symBinAddr: 0x585A8, symSize: 0x8 }
  - { offset: 0x30B8DE, size: 0x8, addend: 0x0, symName: __ZNK27llama_memory_hybrid_context10get_ubatchEv, symObjAddr: 0x1B38, symBinAddr: 0x585B0, symSize: 0x10 }
  - { offset: 0x30B944, size: 0x8, addend: 0x0, symName: __ZNK27llama_memory_hybrid_context8get_attnEv, symObjAddr: 0x1B48, symBinAddr: 0x585C0, symSize: 0x8 }
  - { offset: 0x30B970, size: 0x8, addend: 0x0, symName: __ZNK27llama_memory_hybrid_context8get_attnEv, symObjAddr: 0x1B48, symBinAddr: 0x585C0, symSize: 0x8 }
  - { offset: 0x30B98D, size: 0x8, addend: 0x0, symName: __ZNK27llama_memory_hybrid_context8get_recrEv, symObjAddr: 0x1B50, symBinAddr: 0x585C8, symSize: 0x8 }
  - { offset: 0x30B9B9, size: 0x8, addend: 0x0, symName: __ZNK27llama_memory_hybrid_context8get_recrEv, symObjAddr: 0x1B50, symBinAddr: 0x585C8, symSize: 0x8 }
  - { offset: 0x30BA78, size: 0x8, addend: 0x0, symName: __ZN19llama_memory_hybridD1Ev, symObjAddr: 0x1B58, symBinAddr: 0x585D0, symSize: 0x5C }
  - { offset: 0x30BC0C, size: 0x8, addend: 0x0, symName: __ZN19llama_memory_hybridD0Ev, symObjAddr: 0x1BB4, symBinAddr: 0x5862C, symSize: 0x5C }
  - { offset: 0x30BDC5, size: 0x8, addend: 0x0, symName: __ZN27llama_memory_hybrid_contextD1Ev, symObjAddr: 0x1C10, symBinAddr: 0x58688, symSize: 0xD4 }
  - { offset: 0x30C182, size: 0x8, addend: 0x0, symName: __ZN27llama_memory_hybrid_contextD0Ev, symObjAddr: 0x1CE4, symBinAddr: 0x5875C, symSize: 0xD4 }
  - { offset: 0x30C54A, size: 0x8, addend: 0x0, symName: '__ZNSt3__110__function6__funcIZN19llama_memory_hybridC1ERK11llama_model9ggml_typeS6_bjjj14llama_swa_typeS6_S6_jjbbRKNS_8functionIFbiEEESC_E3$_0NS_9allocatorISD_EES9_ED1Ev', symObjAddr: 0x1DB8, symBinAddr: 0x58830, symSize: 0x4 }
  - { offset: 0x30C575, size: 0x8, addend: 0x0, symName: '__ZNSt3__110__function6__funcIZN19llama_memory_hybridC1ERK11llama_model9ggml_typeS6_bjjj14llama_swa_typeS6_S6_jjbbRKNS_8functionIFbiEEESC_E3$_0NS_9allocatorISD_EES9_ED0Ev', symObjAddr: 0x1DBC, symBinAddr: 0x58834, symSize: 0x4 }
  - { offset: 0x30C62A, size: 0x8, addend: 0x0, symName: '__ZNKSt3__110__function6__funcIZN19llama_memory_hybridC1ERK11llama_model9ggml_typeS6_bjjj14llama_swa_typeS6_S6_jjbbRKNS_8functionIFbiEEESC_E3$_0NS_9allocatorISD_EES9_E7__cloneEv', symObjAddr: 0x1DC0, symBinAddr: 0x58838, symSize: 0x34 }
  - { offset: 0x30C776, size: 0x8, addend: 0x0, symName: '__ZNKSt3__110__function6__funcIZN19llama_memory_hybridC1ERK11llama_model9ggml_typeS6_bjjj14llama_swa_typeS6_S6_jjbbRKNS_8functionIFbiEEESC_E3$_0NS_9allocatorISD_EES9_E7__cloneEPNS0_6__baseIS9_EE', symObjAddr: 0x1DF4, symBinAddr: 0x5886C, symSize: 0x14 }
  - { offset: 0x30C7E3, size: 0x8, addend: 0x0, symName: '__ZNSt3__110__function6__funcIZN19llama_memory_hybridC1ERK11llama_model9ggml_typeS6_bjjj14llama_swa_typeS6_S6_jjbbRKNS_8functionIFbiEEESC_E3$_0NS_9allocatorISD_EES9_E7destroyEv', symObjAddr: 0x1E08, symBinAddr: 0x58880, symSize: 0x4 }
  - { offset: 0x30C832, size: 0x8, addend: 0x0, symName: '__ZNSt3__110__function6__funcIZN19llama_memory_hybridC1ERK11llama_model9ggml_typeS6_bjjj14llama_swa_typeS6_S6_jjbbRKNS_8functionIFbiEEESC_E3$_0NS_9allocatorISD_EES9_E18destroy_deallocateEv', symObjAddr: 0x1E0C, symBinAddr: 0x58884, symSize: 0x4 }
  - { offset: 0x30C867, size: 0x8, addend: 0x0, symName: '__ZNSt3__110__function6__funcIZN19llama_memory_hybridC1ERK11llama_model9ggml_typeS6_bjjj14llama_swa_typeS6_S6_jjbbRKNS_8functionIFbiEEESC_E3$_0NS_9allocatorISD_EES9_E18destroy_deallocateEv', symObjAddr: 0x1E0C, symBinAddr: 0x58884, symSize: 0x4 }
  - { offset: 0x30C88A, size: 0x8, addend: 0x0, symName: '__ZNSt3__110__function6__funcIZN19llama_memory_hybridC1ERK11llama_model9ggml_typeS6_bjjj14llama_swa_typeS6_S6_jjbbRKNS_8functionIFbiEEESC_E3$_0NS_9allocatorISD_EES9_E18destroy_deallocateEv', symObjAddr: 0x1E0C, symBinAddr: 0x58884, symSize: 0x4 }
  - { offset: 0x30C8B6, size: 0x8, addend: 0x0, symName: '__ZNSt3__110__function6__funcIZN19llama_memory_hybridC1ERK11llama_model9ggml_typeS6_bjjj14llama_swa_typeS6_S6_jjbbRKNS_8functionIFbiEEESC_E3$_0NS_9allocatorISD_EES9_E18destroy_deallocateEv', symObjAddr: 0x1E0C, symBinAddr: 0x58884, symSize: 0x4 }
  - { offset: 0x30C8DC, size: 0x8, addend: 0x0, symName: '__ZNSt3__110__function6__funcIZN19llama_memory_hybridC1ERK11llama_model9ggml_typeS6_bjjj14llama_swa_typeS6_S6_jjbbRKNS_8functionIFbiEEESC_E3$_0NS_9allocatorISD_EES9_E18destroy_deallocateEv', symObjAddr: 0x1E0C, symBinAddr: 0x58884, symSize: 0x4 }
  - { offset: 0x30C97F, size: 0x8, addend: 0x0, symName: '__ZNSt3__110__function6__funcIZN19llama_memory_hybridC1ERK11llama_model9ggml_typeS6_bjjj14llama_swa_typeS6_S6_jjbbRKNS_8functionIFbiEEESC_E3$_0NS_9allocatorISD_EES9_EclEOi', symObjAddr: 0x1E10, symBinAddr: 0x58888, symSize: 0x24 }
  - { offset: 0x30CA6C, size: 0x8, addend: 0x0, symName: '__ZNKSt3__110__function6__funcIZN19llama_memory_hybridC1ERK11llama_model9ggml_typeS6_bjjj14llama_swa_typeS6_S6_jjbbRKNS_8functionIFbiEEESC_E3$_0NS_9allocatorISD_EES9_E6targetERKSt9type_info', symObjAddr: 0x1E34, symBinAddr: 0x588AC, symSize: 0x64 }
  - { offset: 0x30CB37, size: 0x8, addend: 0x0, symName: '__ZNKSt3__110__function6__funcIZN19llama_memory_hybridC1ERK11llama_model9ggml_typeS6_bjjj14llama_swa_typeS6_S6_jjbbRKNS_8functionIFbiEEESC_E3$_0NS_9allocatorISD_EES9_E11target_typeEv', symObjAddr: 0x1E98, symBinAddr: 0x58910, symSize: 0xC }
  - { offset: 0x30CB5A, size: 0x8, addend: 0x0, symName: '__ZNSt3__110__function6__funcIZN19llama_memory_hybridC1ERK11llama_model9ggml_typeS6_bjjj14llama_swa_typeS6_S6_jjbbRKNS_8functionIFbiEEESC_E3$_1NS_9allocatorISD_EES9_ED1Ev', symObjAddr: 0x1ECC, symBinAddr: 0x5891C, symSize: 0x4 }
  - { offset: 0x30CB85, size: 0x8, addend: 0x0, symName: '__ZNSt3__110__function6__funcIZN19llama_memory_hybridC1ERK11llama_model9ggml_typeS6_bjjj14llama_swa_typeS6_S6_jjbbRKNS_8functionIFbiEEESC_E3$_1NS_9allocatorISD_EES9_ED0Ev', symObjAddr: 0x1ED0, symBinAddr: 0x58920, symSize: 0x4 }
  - { offset: 0x30CC3A, size: 0x8, addend: 0x0, symName: '__ZNKSt3__110__function6__funcIZN19llama_memory_hybridC1ERK11llama_model9ggml_typeS6_bjjj14llama_swa_typeS6_S6_jjbbRKNS_8functionIFbiEEESC_E3$_1NS_9allocatorISD_EES9_E7__cloneEv', symObjAddr: 0x1ED4, symBinAddr: 0x58924, symSize: 0x34 }
  - { offset: 0x30CD86, size: 0x8, addend: 0x0, symName: '__ZNKSt3__110__function6__funcIZN19llama_memory_hybridC1ERK11llama_model9ggml_typeS6_bjjj14llama_swa_typeS6_S6_jjbbRKNS_8functionIFbiEEESC_E3$_1NS_9allocatorISD_EES9_E7__cloneEPNS0_6__baseIS9_EE', symObjAddr: 0x1F08, symBinAddr: 0x58958, symSize: 0x14 }
  - { offset: 0x30CDF3, size: 0x8, addend: 0x0, symName: '__ZNSt3__110__function6__funcIZN19llama_memory_hybridC1ERK11llama_model9ggml_typeS6_bjjj14llama_swa_typeS6_S6_jjbbRKNS_8functionIFbiEEESC_E3$_1NS_9allocatorISD_EES9_E7destroyEv', symObjAddr: 0x1F1C, symBinAddr: 0x5896C, symSize: 0x4 }
  - { offset: 0x30CE42, size: 0x8, addend: 0x0, symName: '__ZNSt3__110__function6__funcIZN19llama_memory_hybridC1ERK11llama_model9ggml_typeS6_bjjj14llama_swa_typeS6_S6_jjbbRKNS_8functionIFbiEEESC_E3$_1NS_9allocatorISD_EES9_E18destroy_deallocateEv', symObjAddr: 0x1F20, symBinAddr: 0x58970, symSize: 0x4 }
  - { offset: 0x30CE77, size: 0x8, addend: 0x0, symName: '__ZNSt3__110__function6__funcIZN19llama_memory_hybridC1ERK11llama_model9ggml_typeS6_bjjj14llama_swa_typeS6_S6_jjbbRKNS_8functionIFbiEEESC_E3$_1NS_9allocatorISD_EES9_E18destroy_deallocateEv', symObjAddr: 0x1F20, symBinAddr: 0x58970, symSize: 0x4 }
  - { offset: 0x30CE9A, size: 0x8, addend: 0x0, symName: '__ZNSt3__110__function6__funcIZN19llama_memory_hybridC1ERK11llama_model9ggml_typeS6_bjjj14llama_swa_typeS6_S6_jjbbRKNS_8functionIFbiEEESC_E3$_1NS_9allocatorISD_EES9_E18destroy_deallocateEv', symObjAddr: 0x1F20, symBinAddr: 0x58970, symSize: 0x4 }
  - { offset: 0x30CEC6, size: 0x8, addend: 0x0, symName: '__ZNSt3__110__function6__funcIZN19llama_memory_hybridC1ERK11llama_model9ggml_typeS6_bjjj14llama_swa_typeS6_S6_jjbbRKNS_8functionIFbiEEESC_E3$_1NS_9allocatorISD_EES9_E18destroy_deallocateEv', symObjAddr: 0x1F20, symBinAddr: 0x58970, symSize: 0x4 }
  - { offset: 0x30CEEC, size: 0x8, addend: 0x0, symName: '__ZNSt3__110__function6__funcIZN19llama_memory_hybridC1ERK11llama_model9ggml_typeS6_bjjj14llama_swa_typeS6_S6_jjbbRKNS_8functionIFbiEEESC_E3$_1NS_9allocatorISD_EES9_E18destroy_deallocateEv', symObjAddr: 0x1F20, symBinAddr: 0x58970, symSize: 0x4 }
  - { offset: 0x30CF8F, size: 0x8, addend: 0x0, symName: '__ZNSt3__110__function6__funcIZN19llama_memory_hybridC1ERK11llama_model9ggml_typeS6_bjjj14llama_swa_typeS6_S6_jjbbRKNS_8functionIFbiEEESC_E3$_1NS_9allocatorISD_EES9_EclEOi', symObjAddr: 0x1F24, symBinAddr: 0x58974, symSize: 0x10 }
  - { offset: 0x30D022, size: 0x8, addend: 0x0, symName: '__ZNKSt3__110__function6__funcIZN19llama_memory_hybridC1ERK11llama_model9ggml_typeS6_bjjj14llama_swa_typeS6_S6_jjbbRKNS_8functionIFbiEEESC_E3$_1NS_9allocatorISD_EES9_E6targetERKSt9type_info', symObjAddr: 0x1F34, symBinAddr: 0x58984, symSize: 0x64 }
  - { offset: 0x30D0D6, size: 0x8, addend: 0x0, symName: '__ZNKSt3__110__function6__funcIZN19llama_memory_hybridC1ERK11llama_model9ggml_typeS6_bjjj14llama_swa_typeS6_S6_jjbbRKNS_8functionIFbiEEESC_E3$_1NS_9allocatorISD_EES9_E11target_typeEv', symObjAddr: 0x1F98, symBinAddr: 0x589E8, symSize: 0xC }
  - { offset: 0x330A11, size: 0x8, addend: 0x0, symName: __ZN22llama_memory_recurrentC2ERK11llama_model9ggml_typeS3_bjjRKNSt3__18functionIFbiEEE, symObjAddr: 0x0, symBinAddr: 0x589F4, symSize: 0x78C }
  - { offset: 0x3337D4, size: 0x8, addend: 0x0, symName: __ZNSt3__16vectorIN22llama_memory_recurrent8mem_cellENS_9allocatorIS2_EEE8__appendEm, symObjAddr: 0x44CC, symBinAddr: 0x5C9A4, symSize: 0x228 }
  - { offset: 0x3340A4, size: 0x8, addend: 0x0, symName: __ZNKSt3__16vectorIN22llama_memory_recurrent8mem_cellENS_9allocatorIS2_EEE20__throw_length_errorB8ne190102Ev, symObjAddr: 0x46F4, symBinAddr: 0x5CBCC, symSize: 0x14 }
  - { offset: 0x3340AF, size: 0x8, addend: 0x0, symName: __ZNSt3__16vectorIP11ggml_tensorNS_9allocatorIS2_EEE8__appendEm, symObjAddr: 0x4830, symBinAddr: 0x5CC94, symSize: 0x124 }
  - { offset: 0x3345FC, size: 0x8, addend: 0x0, symName: __ZNSt3__16__treeINS_12__value_typeIP24ggml_backend_buffer_typeNS_10unique_ptrI12ggml_context20ggml_context_deleterEEEENS_19__map_value_compareIS3_S8_ZN22llama_memory_recurrentC1ERK11llama_model9ggml_typeSE_bjjRKNS_8functionIFbiEEEE28ggml_backend_buft_comparatorLb1EEENS_9allocatorIS8_EEE7destroyEPNS_11__tree_nodeIS8_PvEE, symObjAddr: 0x47DC, symBinAddr: 0x5CC40, symSize: 0x54 }
  - { offset: 0x3349F5, size: 0x8, addend: 0x0, symName: __ZNSt3__16vectorIN22llama_memory_recurrent8mem_cellENS_9allocatorIS2_EEED1B8ne190102Ev, symObjAddr: 0x8C8, symBinAddr: 0x59238, symSize: 0x68 }
  - { offset: 0x334C53, size: 0x8, addend: 0x0, symName: __ZNK22llama_memory_recurrent12size_r_bytesEv, symObjAddr: 0x78C, symBinAddr: 0x59180, symSize: 0x5C }
  - { offset: 0x334D00, size: 0x8, addend: 0x0, symName: __ZNK22llama_memory_recurrent12size_s_bytesEv, symObjAddr: 0x7E8, symBinAddr: 0x591DC, symSize: 0x5C }
  - { offset: 0x33524C, size: 0x8, addend: 0x0, symName: __ZN22llama_memory_recurrentC1ERK11llama_model9ggml_typeS3_bjjRKNSt3__18functionIFbiEEE, symObjAddr: 0x930, symBinAddr: 0x592A0, symSize: 0x4 }
  - { offset: 0x3352E0, size: 0x8, addend: 0x0, symName: __ZN22llama_memory_recurrentC1ERK11llama_model9ggml_typeS3_bjjRKNSt3__18functionIFbiEEE, symObjAddr: 0x930, symBinAddr: 0x592A0, symSize: 0x4 }
  - { offset: 0x3353D5, size: 0x8, addend: 0x0, symName: __ZN22llama_memory_recurrent5clearEb, symObjAddr: 0x934, symBinAddr: 0x592A4, symSize: 0xCC }
  - { offset: 0x33588A, size: 0x8, addend: 0x0, symName: __ZN22llama_memory_recurrent6seq_rmEiii, symObjAddr: 0xA00, symBinAddr: 0x59370, symSize: 0x2F8 }
  - { offset: 0x336076, size: 0x8, addend: 0x0, symName: __ZN22llama_memory_recurrent6seq_cpEiiii, symObjAddr: 0xCF8, symBinAddr: 0x59668, symSize: 0x1F0 }
  - { offset: 0x336695, size: 0x8, addend: 0x0, symName: __ZN22llama_memory_recurrent8seq_keepEi, symObjAddr: 0xEE8, symBinAddr: 0x59858, symSize: 0x1C0 }
  - { offset: 0x336AD9, size: 0x8, addend: 0x0, symName: __ZN22llama_memory_recurrent7seq_addEiiii, symObjAddr: 0x10A8, symBinAddr: 0x59A18, symSize: 0xA0 }
  - { offset: 0x336CB4, size: 0x8, addend: 0x0, symName: __ZN22llama_memory_recurrent7seq_divEiiii, symObjAddr: 0x1148, symBinAddr: 0x59AB8, symSize: 0xA8 }
  - { offset: 0x336F00, size: 0x8, addend: 0x0, symName: __ZNK22llama_memory_recurrent11seq_pos_minEi, symObjAddr: 0x11F0, symBinAddr: 0x59B60, symSize: 0x8C }
  - { offset: 0x3370D8, size: 0x8, addend: 0x0, symName: __ZNK22llama_memory_recurrent11seq_pos_maxEi, symObjAddr: 0x127C, symBinAddr: 0x59BEC, symSize: 0x80 }
  - { offset: 0x3378E1, size: 0x8, addend: 0x0, symName: __ZNK22llama_memory_recurrent16memory_breakdownEv, symObjAddr: 0x12FC, symBinAddr: 0x59C6C, symSize: 0x164 }
  - { offset: 0x3385D5, size: 0x8, addend: 0x0, symName: __ZN22llama_memory_recurrent10init_batchER18llama_batch_allocrjb, symObjAddr: 0x1460, symBinAddr: 0x59DD0, symSize: 0x474 }
  - { offset: 0x3395C9, size: 0x8, addend: 0x0, symName: __ZN22llama_memory_recurrent7prepareERKNSt3__16vectorI12llama_ubatchNS0_9allocatorIS2_EEEE, symObjAddr: 0x1930, symBinAddr: 0x5A244, symSize: 0x128 }
  - { offset: 0x339CE2, size: 0x8, addend: 0x0, symName: __ZNSt3__16vectorIN22llama_memory_recurrent8mem_cellENS_9allocatorIS2_EEE16__init_with_sizeB8ne190102IPS2_S7_EEvT_T0_m, symObjAddr: 0x4F58, symBinAddr: 0x5CDB8, symSize: 0x154 }
  - { offset: 0x33A229, size: 0x8, addend: 0x0, symName: __ZN22llama_memory_recurrent9find_slotERK12llama_ubatch, symObjAddr: 0x1B90, symBinAddr: 0x5A40C, symSize: 0xBE4 }
  - { offset: 0x33BC2A, size: 0x8, addend: 0x0, symName: __ZN22llama_memory_recurrent9init_fullEv, symObjAddr: 0x1AF0, symBinAddr: 0x5A36C, symSize: 0x54 }
  - { offset: 0x33BD7D, size: 0x8, addend: 0x0, symName: __ZN22llama_memory_recurrent11init_updateEP13llama_contextb, symObjAddr: 0x1B44, symBinAddr: 0x5A3C0, symSize: 0x4C }
  - { offset: 0x33C29D, size: 0x8, addend: 0x0, symName: __ZNK22llama_memory_recurrent13get_can_shiftEv, symObjAddr: 0x2774, symBinAddr: 0x5AFF0, symSize: 0x8 }
  - { offset: 0x33C2C3, size: 0x8, addend: 0x0, symName: __ZNK22llama_memory_recurrent10total_sizeEv, symObjAddr: 0x277C, symBinAddr: 0x5AFF8, symSize: 0x64 }
  - { offset: 0x33CAED, size: 0x8, addend: 0x0, symName: __ZNK22llama_memory_recurrent11state_writeER16llama_io_write_iij, symObjAddr: 0x27E0, symBinAddr: 0x5B05C, symSize: 0x428 }
  - { offset: 0x33D982, size: 0x8, addend: 0x0, symName: __ZNK22llama_memory_recurrent16state_write_metaER16llama_io_write_iRKNSt3__16vectorINS2_4pairIjjEENS2_9allocatorIS5_EEEEi, symObjAddr: 0x2C08, symBinAddr: 0x5B484, symSize: 0x15C }
  - { offset: 0x33DCA6, size: 0x8, addend: 0x0, symName: __ZNK22llama_memory_recurrent16state_write_dataER16llama_io_write_iRKNSt3__16vectorINS2_4pairIjjEENS2_9allocatorIS5_EEEE, symObjAddr: 0x2D64, symBinAddr: 0x5B5E0, symSize: 0x22C }
  - { offset: 0x33E216, size: 0x8, addend: 0x0, symName: __ZN22llama_memory_recurrent10state_readER15llama_io_read_iij, symObjAddr: 0x2F90, symBinAddr: 0x5B80C, symSize: 0xF8 }
  - { offset: 0x33E315, size: 0x8, addend: 0x0, symName: __ZN22llama_memory_recurrent15state_read_metaER15llama_io_read_iji, symObjAddr: 0x3088, symBinAddr: 0x5B904, symSize: 0x5FC }
  - { offset: 0x33EC2B, size: 0x8, addend: 0x0, symName: __ZN22llama_memory_recurrent15state_read_dataER15llama_io_read_ij, symObjAddr: 0x3684, symBinAddr: 0x5BF00, symSize: 0x568 }
  - { offset: 0x33FE56, size: 0x8, addend: 0x0, symName: __ZN30llama_memory_recurrent_contextC2E19llama_memory_status, symObjAddr: 0x3BEC, symBinAddr: 0x5C468, symSize: 0x24 }
  - { offset: 0x33FEBB, size: 0x8, addend: 0x0, symName: __ZN30llama_memory_recurrent_contextC1E19llama_memory_status, symObjAddr: 0x3C10, symBinAddr: 0x5C48C, symSize: 0x24 }
  - { offset: 0x33FEE4, size: 0x8, addend: 0x0, symName: __ZN30llama_memory_recurrent_contextC1E19llama_memory_status, symObjAddr: 0x3C10, symBinAddr: 0x5C48C, symSize: 0x24 }
  - { offset: 0x33FF44, size: 0x8, addend: 0x0, symName: __ZN30llama_memory_recurrent_contextC2EP22llama_memory_recurrent, symObjAddr: 0x3C34, symBinAddr: 0x5C4B0, symSize: 0x2C }
  - { offset: 0x33FFA9, size: 0x8, addend: 0x0, symName: __ZN30llama_memory_recurrent_contextC1EP22llama_memory_recurrent, symObjAddr: 0x3C60, symBinAddr: 0x5C4DC, symSize: 0x2C }
  - { offset: 0x33FFD2, size: 0x8, addend: 0x0, symName: __ZN30llama_memory_recurrent_contextC1EP22llama_memory_recurrent, symObjAddr: 0x3C60, symBinAddr: 0x5C4DC, symSize: 0x2C }
  - { offset: 0x340032, size: 0x8, addend: 0x0, symName: __ZN30llama_memory_recurrent_contextC2EP22llama_memory_recurrentNSt3__16vectorI12llama_ubatchNS2_9allocatorIS4_EEEE, symObjAddr: 0x3C8C, symBinAddr: 0x5C508, symSize: 0x40 }
  - { offset: 0x3400AD, size: 0x8, addend: 0x0, symName: __ZN30llama_memory_recurrent_contextC1EP22llama_memory_recurrentNSt3__16vectorI12llama_ubatchNS2_9allocatorIS4_EEEE, symObjAddr: 0x3CCC, symBinAddr: 0x5C548, symSize: 0x40 }
  - { offset: 0x3400DE, size: 0x8, addend: 0x0, symName: __ZN30llama_memory_recurrent_contextC1EP22llama_memory_recurrentNSt3__16vectorI12llama_ubatchNS2_9allocatorIS4_EEEE, symObjAddr: 0x3CCC, symBinAddr: 0x5C548, symSize: 0x40 }
  - { offset: 0x340154, size: 0x8, addend: 0x0, symName: __ZN30llama_memory_recurrent_contextD2Ev, symObjAddr: 0x3D0C, symBinAddr: 0x5C588, symSize: 0xA4 }
  - { offset: 0x3403BD, size: 0x8, addend: 0x0, symName: __ZN30llama_memory_recurrent_contextD1Ev, symObjAddr: 0x3DB0, symBinAddr: 0x5C62C, symSize: 0xA4 }
  - { offset: 0x340643, size: 0x8, addend: 0x0, symName: __ZN30llama_memory_recurrent_contextD0Ev, symObjAddr: 0x3E54, symBinAddr: 0x5C6D0, symSize: 0xA4 }
  - { offset: 0x3408EB, size: 0x8, addend: 0x0, symName: __ZN30llama_memory_recurrent_context4nextEv, symObjAddr: 0x3EF8, symBinAddr: 0x5C774, symSize: 0x38 }
  - { offset: 0x34096E, size: 0x8, addend: 0x0, symName: __ZN30llama_memory_recurrent_context5applyEv, symObjAddr: 0x3F30, symBinAddr: 0x5C7AC, symSize: 0x34 }
  - { offset: 0x34099A, size: 0x8, addend: 0x0, symName: __ZN30llama_memory_recurrent_context5applyEv, symObjAddr: 0x3F30, symBinAddr: 0x5C7AC, symSize: 0x34 }
  - { offset: 0x3409E2, size: 0x8, addend: 0x0, symName: __ZNK30llama_memory_recurrent_context10get_statusEv, symObjAddr: 0x3F64, symBinAddr: 0x5C7E0, symSize: 0x8 }
  - { offset: 0x340A30, size: 0x8, addend: 0x0, symName: __ZNK30llama_memory_recurrent_context10get_ubatchEv, symObjAddr: 0x3F6C, symBinAddr: 0x5C7E8, symSize: 0x10 }
  - { offset: 0x340A80, size: 0x8, addend: 0x0, symName: __ZNK30llama_memory_recurrent_context8get_n_rsEv, symObjAddr: 0x3F7C, symBinAddr: 0x5C7F8, symSize: 0x20 }
  - { offset: 0x340AAA, size: 0x8, addend: 0x0, symName: __ZNK30llama_memory_recurrent_context8get_headEv, symObjAddr: 0x3F9C, symBinAddr: 0x5C818, symSize: 0x1C }
  - { offset: 0x340AD4, size: 0x8, addend: 0x0, symName: __ZNK30llama_memory_recurrent_context8get_rs_zEv, symObjAddr: 0x3FB8, symBinAddr: 0x5C834, symSize: 0x1C }
  - { offset: 0x340AFE, size: 0x8, addend: 0x0, symName: __ZNK30llama_memory_recurrent_context8get_sizeEv, symObjAddr: 0x3FD4, symBinAddr: 0x5C850, symSize: 0xC }
  - { offset: 0x340B28, size: 0x8, addend: 0x0, symName: __ZNK30llama_memory_recurrent_context7get_r_lEi, symObjAddr: 0x3FE0, symBinAddr: 0x5C85C, symSize: 0x10 }
  - { offset: 0x340B7F, size: 0x8, addend: 0x0, symName: __ZNK30llama_memory_recurrent_context7get_s_lEi, symObjAddr: 0x3FF0, symBinAddr: 0x5C86C, symSize: 0x10 }
  - { offset: 0x340BD7, size: 0x8, addend: 0x0, symName: __ZNK30llama_memory_recurrent_context6s_copyEi, symObjAddr: 0x4000, symBinAddr: 0x5C87C, symSize: 0x20 }
  - { offset: 0x340C2E, size: 0x8, addend: 0x0, symName: __ZN22llama_memory_recurrentD1Ev, symObjAddr: 0x4020, symBinAddr: 0x5C89C, symSize: 0x4 }
  - { offset: 0x340C51, size: 0x8, addend: 0x0, symName: __ZN22llama_memory_recurrentD1Ev, symObjAddr: 0x4020, symBinAddr: 0x5C89C, symSize: 0x4 }
  - { offset: 0x340C64, size: 0x8, addend: 0x0, symName: __ZN22llama_memory_recurrentD2Ev, symObjAddr: 0x43DC, symBinAddr: 0x5C8B4, symSize: 0xF0 }
  - { offset: 0x34142B, size: 0x8, addend: 0x0, symName: __ZN22llama_memory_recurrentD0Ev, symObjAddr: 0x4024, symBinAddr: 0x5C8A0, symSize: 0x14 }
  - { offset: 0x342335, size: 0x8, addend: 0x0, symName: __ZNKSt3__16vectorIN22llama_memory_recurrent8mem_cellENS_9allocatorIS2_EEE20__throw_length_errorB8ne190102Ev, symObjAddr: 0x46F4, symBinAddr: 0x5CBCC, symSize: 0x14 }
  - { offset: 0x34245C, size: 0x8, addend: 0x0, symName: __ZNSt3__128__exception_guard_exceptionsINS_29_AllocatorDestroyRangeReverseINS_9allocatorIN22llama_memory_recurrent8mem_cellEEEPS4_EEED1B8ne190102Ev, symObjAddr: 0x477C, symBinAddr: 0x5CBE0, symSize: 0x60 }
  - { offset: 0x342BC7, size: 0x8, addend: 0x0, symName: __ZNSt3__16vectorIN22llama_memory_recurrent8mem_cellENS_9allocatorIS2_EEE16__init_with_sizeB8ne190102IPS2_S7_EEvT_T0_m, symObjAddr: 0x4F58, symBinAddr: 0x5CDB8, symSize: 0x154 }
  - { offset: 0x342F0A, size: 0x8, addend: 0x0, symName: __ZNSt3__13setIiNS_4lessIiEENS_9allocatorIiEEE6insertB8ne190102INS_21__tree_const_iteratorIiPNS_11__tree_nodeIiPvEElEEEEvT_SD_, symObjAddr: 0x5124, symBinAddr: 0x5CF84, symSize: 0x100 }
  - { offset: 0x342F50, size: 0x8, addend: 0x0, symName: __ZNSt3__13setIiNS_4lessIiEENS_9allocatorIiEEE6insertB8ne190102INS_21__tree_const_iteratorIiPNS_11__tree_nodeIiPvEElEEEEvT_SD_, symObjAddr: 0x5124, symBinAddr: 0x5CF84, symSize: 0x100 }
  - { offset: 0x34321F, size: 0x8, addend: 0x0, symName: __ZNSt3__128__exception_guard_exceptionsINS_6vectorIN22llama_memory_recurrent8mem_cellENS_9allocatorIS3_EEE16__destroy_vectorEED1B8ne190102Ev, symObjAddr: 0x50AC, symBinAddr: 0x5CF0C, symSize: 0x78 }
  - { offset: 0x34324C, size: 0x8, addend: 0x0, symName: __ZNSt3__128__exception_guard_exceptionsINS_6vectorIN22llama_memory_recurrent8mem_cellENS_9allocatorIS3_EEE16__destroy_vectorEED1B8ne190102Ev, symObjAddr: 0x50AC, symBinAddr: 0x5CF0C, symSize: 0x78 }
  - { offset: 0x3435AA, size: 0x8, addend: 0x0, symName: __ZNSt3__16__treeIiNS_4lessIiEENS_9allocatorIiEEE12__find_equalIiEERPNS_16__tree_node_baseIPvEENS_21__tree_const_iteratorIiPNS_11__tree_nodeIiS8_EElEERPNS_15__tree_end_nodeISA_EESB_RKT_, symObjAddr: 0x5224, symBinAddr: 0x5D084, symSize: 0x1B0 }
  - { offset: 0x34360D, size: 0x8, addend: 0x0, symName: __ZNSt3__16__treeIiNS_4lessIiEENS_9allocatorIiEEE12__find_equalIiEERPNS_16__tree_node_baseIPvEENS_21__tree_const_iteratorIiPNS_11__tree_nodeIiS8_EElEERPNS_15__tree_end_nodeISA_EESB_RKT_, symObjAddr: 0x5224, symBinAddr: 0x5D084, symSize: 0x1B0 }
  - { offset: 0x343629, size: 0x8, addend: 0x0, symName: __ZNSt3__16__treeIiNS_4lessIiEENS_9allocatorIiEEE12__find_equalIiEERPNS_16__tree_node_baseIPvEENS_21__tree_const_iteratorIiPNS_11__tree_nodeIiS8_EElEERPNS_15__tree_end_nodeISA_EESB_RKT_, symObjAddr: 0x5224, symBinAddr: 0x5D084, symSize: 0x1B0 }
  - { offset: 0x3457C0, size: 0x8, addend: 0x0, symName: __Z27llama_memory_status_combine19llama_memory_statusS_, symObjAddr: 0x0, symBinAddr: 0x5D234, symSize: 0x38 }
  - { offset: 0x3457D5, size: 0x8, addend: 0x0, symName: __Z27llama_memory_status_combine19llama_memory_statusS_, symObjAddr: 0x0, symBinAddr: 0x5D234, symSize: 0x38 }
  - { offset: 0x345821, size: 0x8, addend: 0x0, symName: __Z27llama_memory_status_is_fail19llama_memory_status, symObjAddr: 0x38, symBinAddr: 0x5D26C, symSize: 0x10 }
  - { offset: 0x3482FE, size: 0x8, addend: 0x0, symName: __ZN10llama_mmap9SUPPORTEDE, symObjAddr: 0x1440, symBinAddr: 0x238C3E, symSize: 0x0 }
  - { offset: 0x34DE4A, size: 0x8, addend: 0x0, symName: __ZN11llama_mlock9SUPPORTEDE, symObjAddr: 0x1441, symBinAddr: 0x238C3F, symSize: 0x0 }
  - { offset: 0x34E229, size: 0x8, addend: 0x0, symName: __ZN10llama_fileC2EPKcS1_, symObjAddr: 0x0, symBinAddr: 0x5D27C, symSize: 0x60 }
  - { offset: 0x34E34A, size: 0x8, addend: 0x0, symName: __ZN10llama_file4implC2EPKcS2_, symObjAddr: 0xEB8, symBinAddr: 0x5E088, symSize: 0x108 }
  - { offset: 0x34E585, size: 0x8, addend: 0x0, symName: __ZN10llama_fileC1EPKcS1_, symObjAddr: 0x60, symBinAddr: 0x5D2DC, symSize: 0x60 }
  - { offset: 0x34E7A1, size: 0x8, addend: 0x0, symName: __ZN10llama_fileD2Ev, symObjAddr: 0xC0, symBinAddr: 0x5D33C, symSize: 0x40 }
  - { offset: 0x34E8C7, size: 0x8, addend: 0x0, symName: __ZN10llama_fileD1Ev, symObjAddr: 0x100, symBinAddr: 0x5D37C, symSize: 0x40 }
  - { offset: 0x34EA03, size: 0x8, addend: 0x0, symName: __ZNK10llama_file4tellEv, symObjAddr: 0x140, symBinAddr: 0x5D3BC, symSize: 0x8 }
  - { offset: 0x34EA2E, size: 0x8, addend: 0x0, symName: __ZNK10llama_file4tellEv, symObjAddr: 0x140, symBinAddr: 0x5D3BC, symSize: 0x8 }
  - { offset: 0x34EA56, size: 0x8, addend: 0x0, symName: __ZNK10llama_file4impl4tellEv, symObjAddr: 0x148, symBinAddr: 0x5D3C4, symSize: 0xCC }
  - { offset: 0x34ED09, size: 0x8, addend: 0x0, symName: __ZNK10llama_file4sizeEv, symObjAddr: 0x214, symBinAddr: 0x5D490, symSize: 0xC }
  - { offset: 0x34ED2D, size: 0x8, addend: 0x0, symName: __ZNK10llama_file4sizeEv, symObjAddr: 0x214, symBinAddr: 0x5D490, symSize: 0xC }
  - { offset: 0x34ED47, size: 0x8, addend: 0x0, symName: __ZNK10llama_file7file_idEv, symObjAddr: 0x220, symBinAddr: 0x5D49C, symSize: 0xC }
  - { offset: 0x34ED6B, size: 0x8, addend: 0x0, symName: __ZNK10llama_file7file_idEv, symObjAddr: 0x220, symBinAddr: 0x5D49C, symSize: 0xC }
  - { offset: 0x34EDA7, size: 0x8, addend: 0x0, symName: __ZNK10llama_file4seekEmi, symObjAddr: 0x22C, symBinAddr: 0x5D4A8, symSize: 0x8 }
  - { offset: 0x34EDEF, size: 0x8, addend: 0x0, symName: __ZNK10llama_file4seekEmi, symObjAddr: 0x22C, symBinAddr: 0x5D4A8, symSize: 0x8 }
  - { offset: 0x34EE27, size: 0x8, addend: 0x0, symName: __ZNK10llama_file4impl4seekEmi, symObjAddr: 0x234, symBinAddr: 0x5D4B0, symSize: 0xC8 }
  - { offset: 0x34F008, size: 0x8, addend: 0x0, symName: __ZNK10llama_file8read_rawEPvm, symObjAddr: 0x2FC, symBinAddr: 0x5D578, symSize: 0x8 }
  - { offset: 0x34F050, size: 0x8, addend: 0x0, symName: __ZNK10llama_file8read_rawEPvm, symObjAddr: 0x2FC, symBinAddr: 0x5D578, symSize: 0x8 }
  - { offset: 0x34F088, size: 0x8, addend: 0x0, symName: __ZNK10llama_file4impl8read_rawEPvm, symObjAddr: 0x304, symBinAddr: 0x5D580, symSize: 0x148 }
  - { offset: 0x34F2C5, size: 0x8, addend: 0x0, symName: __ZNK10llama_file8read_u32Ev, symObjAddr: 0x44C, symBinAddr: 0x5D6C8, symSize: 0x30 }
  - { offset: 0x34F34D, size: 0x8, addend: 0x0, symName: __ZNK10llama_file9write_rawEPKvm, symObjAddr: 0x47C, symBinAddr: 0x5D6F8, symSize: 0x8 }
  - { offset: 0x34F395, size: 0x8, addend: 0x0, symName: __ZNK10llama_file9write_rawEPKvm, symObjAddr: 0x47C, symBinAddr: 0x5D6F8, symSize: 0x8 }
  - { offset: 0x34F3CD, size: 0x8, addend: 0x0, symName: __ZNK10llama_file4impl9write_rawEPKvm, symObjAddr: 0x484, symBinAddr: 0x5D700, symSize: 0xF0 }
  - { offset: 0x34F5E8, size: 0x8, addend: 0x0, symName: __ZNK10llama_file9write_u32Ej, symObjAddr: 0x574, symBinAddr: 0x5D7F0, symSize: 0x2C }
  - { offset: 0x34F7E9, size: 0x8, addend: 0x0, symName: __ZN10llama_mmapC2EP10llama_filemb, symObjAddr: 0x5A0, symBinAddr: 0x5D81C, symSize: 0x70 }
  - { offset: 0x34F926, size: 0x8, addend: 0x0, symName: __ZN10llama_mmap4implC2EP10llama_filemb, symObjAddr: 0xFC0, symBinAddr: 0x5E190, symSize: 0x28C }
  - { offset: 0x3502BA, size: 0x8, addend: 0x0, symName: __ZN10llama_mmapC1EP10llama_filemb, symObjAddr: 0x610, symBinAddr: 0x5D88C, symSize: 0x70 }
  - { offset: 0x3504EC, size: 0x8, addend: 0x0, symName: __ZN10llama_mmapD2Ev, symObjAddr: 0x680, symBinAddr: 0x5D8FC, symSize: 0x3C }
  - { offset: 0x3505CD, size: 0x8, addend: 0x0, symName: __ZN10llama_mmap4implD2Ev, symObjAddr: 0x124C, symBinAddr: 0x5E41C, symSize: 0xA4 }
  - { offset: 0x35080E, size: 0x8, addend: 0x0, symName: __ZN10llama_mmapD1Ev, symObjAddr: 0x6BC, symBinAddr: 0x5D938, symSize: 0x3C }
  - { offset: 0x350935, size: 0x8, addend: 0x0, symName: __ZNK10llama_mmap4sizeEv, symObjAddr: 0x6F8, symBinAddr: 0x5D974, symSize: 0xC }
  - { offset: 0x350961, size: 0x8, addend: 0x0, symName: __ZNK10llama_mmap4sizeEv, symObjAddr: 0x6F8, symBinAddr: 0x5D974, symSize: 0xC }
  - { offset: 0x35097C, size: 0x8, addend: 0x0, symName: __ZNK10llama_mmap4addrEv, symObjAddr: 0x704, symBinAddr: 0x5D980, symSize: 0xC }
  - { offset: 0x3509A8, size: 0x8, addend: 0x0, symName: __ZNK10llama_mmap4addrEv, symObjAddr: 0x704, symBinAddr: 0x5D980, symSize: 0xC }
  - { offset: 0x3509C3, size: 0x8, addend: 0x0, symName: __ZN10llama_mmap14unmap_fragmentEmm, symObjAddr: 0x710, symBinAddr: 0x5D98C, symSize: 0x8 }
  - { offset: 0x350A0B, size: 0x8, addend: 0x0, symName: __ZN10llama_mmap14unmap_fragmentEmm, symObjAddr: 0x710, symBinAddr: 0x5D98C, symSize: 0x8 }
  - { offset: 0x350A43, size: 0x8, addend: 0x0, symName: __ZN10llama_mmap4impl14unmap_fragmentEmm, symObjAddr: 0x718, symBinAddr: 0x5D994, symSize: 0x4C0 }
  - { offset: 0x352758, size: 0x8, addend: 0x0, symName: __ZNKSt3__16vectorINS_4pairImmEENS_9allocatorIS2_EEE20__throw_length_errorB8ne190102Ev, symObjAddr: 0xE08, symBinAddr: 0x5E074, symSize: 0x14 }
  - { offset: 0x3528F8, size: 0x8, addend: 0x0, symName: __ZN11llama_mlockC2Ev, symObjAddr: 0xBD8, symBinAddr: 0x5DE54, symSize: 0x34 }
  - { offset: 0x352A27, size: 0x8, addend: 0x0, symName: __ZN11llama_mlockC1Ev, symObjAddr: 0xC0C, symBinAddr: 0x5DE88, symSize: 0x34 }
  - { offset: 0x352BE5, size: 0x8, addend: 0x0, symName: __ZN11llama_mlockD2Ev, symObjAddr: 0xC40, symBinAddr: 0x5DEBC, symSize: 0x34 }
  - { offset: 0x352C09, size: 0x8, addend: 0x0, symName: __ZN11llama_mlockD2Ev, symObjAddr: 0xC40, symBinAddr: 0x5DEBC, symSize: 0x34 }
  - { offset: 0x352C27, size: 0x8, addend: 0x0, symName: __ZN11llama_mlockD2Ev, symObjAddr: 0xC40, symBinAddr: 0x5DEBC, symSize: 0x34 }
  - { offset: 0x352C45, size: 0x8, addend: 0x0, symName: __ZN11llama_mlockD2Ev, symObjAddr: 0xC40, symBinAddr: 0x5DEBC, symSize: 0x34 }
  - { offset: 0x352CB9, size: 0x8, addend: 0x0, symName: __ZN11llama_mlockD1Ev, symObjAddr: 0xC74, symBinAddr: 0x5DEF0, symSize: 0x34 }
  - { offset: 0x352CE9, size: 0x8, addend: 0x0, symName: __ZN11llama_mlockD1Ev, symObjAddr: 0xC74, symBinAddr: 0x5DEF0, symSize: 0x34 }
  - { offset: 0x352D07, size: 0x8, addend: 0x0, symName: __ZN11llama_mlockD1Ev, symObjAddr: 0xC74, symBinAddr: 0x5DEF0, symSize: 0x34 }
  - { offset: 0x352D25, size: 0x8, addend: 0x0, symName: __ZN11llama_mlockD1Ev, symObjAddr: 0xC74, symBinAddr: 0x5DEF0, symSize: 0x34 }
  - { offset: 0x352D43, size: 0x8, addend: 0x0, symName: __ZN11llama_mlockD1Ev, symObjAddr: 0xC74, symBinAddr: 0x5DEF0, symSize: 0x34 }
  - { offset: 0x352DD8, size: 0x8, addend: 0x0, symName: __ZN11llama_mlock4initEPv, symObjAddr: 0xCA8, symBinAddr: 0x5DF24, symSize: 0x4C }
  - { offset: 0x352E14, size: 0x8, addend: 0x0, symName: __ZN11llama_mlock4initEPv, symObjAddr: 0xCA8, symBinAddr: 0x5DF24, symSize: 0x4C }
  - { offset: 0x352E48, size: 0x8, addend: 0x0, symName: __ZN11llama_mlock7grow_toEm, symObjAddr: 0xCF4, symBinAddr: 0x5DF70, symSize: 0x8 }
  - { offset: 0x352E5B, size: 0x8, addend: 0x0, symName: __ZN11llama_mlock7grow_toEm, symObjAddr: 0xCF4, symBinAddr: 0x5DF70, symSize: 0x8 }
  - { offset: 0x352E95, size: 0x8, addend: 0x0, symName: __ZN11llama_mlock7grow_toEm, symObjAddr: 0xCF4, symBinAddr: 0x5DF70, symSize: 0x8 }
  - { offset: 0x352EC6, size: 0x8, addend: 0x0, symName: __ZN11llama_mlock4impl7grow_toEm, symObjAddr: 0xCFC, symBinAddr: 0x5DF78, symSize: 0xF4 }
  - { offset: 0x352FBE, size: 0x8, addend: 0x0, symName: __Z14llama_path_maxv, symObjAddr: 0xDF0, symBinAddr: 0x5E06C, symSize: 0x8 }
  - { offset: 0x35303A, size: 0x8, addend: 0x0, symName: __Z14llama_path_maxv, symObjAddr: 0xDF0, symBinAddr: 0x5E06C, symSize: 0x8 }
  - { offset: 0x378025, size: 0x8, addend: 0x0, symName: __ZNSt3__120__throw_future_errorB8ne190102ENS_11future_errcE, symObjAddr: 0xB038, symBinAddr: 0x68B38, symSize: 0x5C }
  - { offset: 0x378DAC, size: 0x8, addend: 0x0, symName: '__ZNSt3__114__thread_proxyB8ne190102INS_5tupleIJNS_10unique_ptrINS_15__thread_structENS_14default_deleteIS3_EEEEMNS_19__async_assoc_stateINS_4pairIP11ggml_tensorbEENS_12__async_funcIZN18llama_model_loader13load_all_dataEP12ggml_contextRNS_13unordered_mapIjP19ggml_backend_bufferNS_4hashIjEENS_8equal_toIjEENS_9allocatorINS8_IKjSI_EEEEEEPNS_6vectorINS2_I11llama_mlockNS4_ISU_EEEENSN_ISW_EEEEPFbfPvES10_E3$_1JEEEEEFvvEPS15_EEEEES10_S10_', symObjAddr: 0xB094, symBinAddr: 0x68B94, symSize: 0x8C }
  - { offset: 0x3791D2, size: 0x8, addend: 0x0, symName: '__ZNSt3__114__thread_proxyB8ne190102INS_5tupleIJNS_10unique_ptrINS_15__thread_structENS_14default_deleteIS3_EEEEMNS_19__async_assoc_stateINS_4pairIP11ggml_tensorbEENS_12__async_funcIZN18llama_model_loader13load_all_dataEP12ggml_contextRNS_13unordered_mapIjP19ggml_backend_bufferNS_4hashIjEENS_8equal_toIjEENS_9allocatorINS8_IKjSI_EEEEEEPNS_6vectorINS2_I11llama_mlockNS4_ISU_EEEENSN_ISW_EEEEPFbfPvES10_E3$_2JEEEEEFvvEPS15_EEEEES10_S10_', symObjAddr: 0xB3A0, symBinAddr: 0x68EA0, symSize: 0x8C }
  - { offset: 0x37E49F, size: 0x8, addend: 0x0, symName: __ZN18llama_model_loader13load_all_dataEP12ggml_contextRNSt3__113unordered_mapIjP19ggml_backend_bufferNS2_4hashIjEENS2_8equal_toIjEENS2_9allocatorINS2_4pairIKjS5_EEEEEEPNS2_6vectorINS2_10unique_ptrI11llama_mlockNS2_14default_deleteISJ_EEEENSA_ISM_EEEEPFbfPvESQ_, symObjAddr: 0x5B54, symBinAddr: 0x63EC8, symSize: 0x1700 }
  - { offset: 0x383375, size: 0x8, addend: 0x0, symName: __Z23llama_file_version_name10llama_fver, symObjAddr: 0x0, symBinAddr: 0x5E4C0, symSize: 0x28 }
  - { offset: 0x38345A, size: 0x8, addend: 0x0, symName: __ZN18llama_model_loader9get_arr_nIjEENSt3__19enable_ifIXsr3std11is_integralIT_EE5valueEbE4typeE6llm_kvRS3_b, symObjAddr: 0x28, symBinAddr: 0x5E4E8, symSize: 0xA0 }
  - { offset: 0x383724, size: 0x8, addend: 0x0, symName: __ZN18llama_model_loader9get_arr_nIjEENSt3__19enable_ifIXsr3std11is_integralIT_EE5valueEbE4typeERKNS1_12basic_stringIcNS1_11char_traitsIcEENS1_9allocatorIcEEEERS3_b, symObjAddr: 0xC8, symBinAddr: 0x5E588, symSize: 0x128 }
  - { offset: 0x383AB0, size: 0x8, addend: 0x0, symName: __ZN8GGUFMeta3GKVINS_9ArrayInfoEE6get_kvEPK12gguf_contexti, symObjAddr: 0x7C50, symBinAddr: 0x65E78, symSize: 0x150 }
  - { offset: 0x383D0A, size: 0x8, addend: 0x0, symName: __ZN18llama_model_loader7get_arrINSt3__16vectorINS1_12basic_stringIcNS1_11char_traitsIcEENS1_9allocatorIcEEEENS6_IS8_EEEEEEb6llm_kvRT_b, symObjAddr: 0x1F0, symBinAddr: 0x5E6B0, symSize: 0xA0 }
  - { offset: 0x383FD4, size: 0x8, addend: 0x0, symName: __ZN18llama_model_loader7get_arrINSt3__112basic_stringIcNS1_11char_traitsIcEENS1_9allocatorIcEEEEEEbRKS7_RNS1_6vectorIT_NS5_ISB_EEEEb, symObjAddr: 0x290, symBinAddr: 0x5E750, symSize: 0x3B4 }
  - { offset: 0x3851C9, size: 0x8, addend: 0x0, symName: __ZNSt3__16vectorINS_12basic_stringIcNS_11char_traitsIcEENS_9allocatorIcEEEENS4_IS6_EEE24__emplace_back_slow_pathIJRKS6_EEEPS6_DpOT_, symObjAddr: 0x7DA0, symBinAddr: 0x65FC8, symSize: 0x158 }
  - { offset: 0x385781, size: 0x8, addend: 0x0, symName: __ZNSt3__112__hash_tableINS_17__hash_value_typeINS_12basic_stringIcNS_11char_traitsIcEENS_9allocatorIcEEEE23llama_model_kv_overrideEENS_22__unordered_map_hasherIS7_S9_NS_4hashIS7_EENS_8equal_toIS7_EELb1EEENS_21__unordered_map_equalIS7_S9_SE_SC_Lb1EEENS5_IS9_EEE4findIS7_EENS_15__hash_iteratorIPNS_11__hash_nodeIS9_PvEEEERKT_, symObjAddr: 0x7F84, symBinAddr: 0x66120, symSize: 0x1B4 }
  - { offset: 0x3857D4, size: 0x8, addend: 0x0, symName: __ZN18llama_model_loader7get_keyIbEEb6llm_kvRT_b, symObjAddr: 0x644, symBinAddr: 0x5EB04, symSize: 0xA0 }
  - { offset: 0x385A9E, size: 0x8, addend: 0x0, symName: __ZN18llama_model_loader7get_keyIbEEbRKNSt3__112basic_stringIcNS1_11char_traitsIcEENS1_9allocatorIcEEEERT_b, symObjAddr: 0x6E4, symBinAddr: 0x5EBA4, symSize: 0x15C }
  - { offset: 0x385F7B, size: 0x8, addend: 0x0, symName: __ZNSt3__112__hash_tableINS_17__hash_value_typeINS_12basic_stringIcNS_11char_traitsIcEENS_9allocatorIcEEEE23llama_model_kv_overrideEENS_22__unordered_map_hasherIS7_S9_NS_4hashIS7_EENS_8equal_toIS7_EELb1EEENS_21__unordered_map_equalIS7_S9_SE_SC_Lb1EEENS5_IS9_EEE4findIS7_EENS_15__hash_iteratorIPNS_11__hash_nodeIS9_PvEEEERKT_, symObjAddr: 0x7F84, symBinAddr: 0x66120, symSize: 0x1B4 }
  - { offset: 0x386284, size: 0x8, addend: 0x0, symName: __ZN8GGUFMeta3GKVIbE17validate_overrideE28llama_model_kv_override_typePK23llama_model_kv_override, symObjAddr: 0x8684, symBinAddr: 0x663D4, symSize: 0x240 }
  - { offset: 0x386484, size: 0x8, addend: 0x0, symName: __ZN8GGUFMeta3GKVIbE6get_kvEPK12gguf_contexti, symObjAddr: 0x8584, symBinAddr: 0x662D4, symSize: 0x100 }
  - { offset: 0x386673, size: 0x8, addend: 0x0, symName: __ZN18llama_model_loader7get_keyIfEEb6llm_kvRT_b, symObjAddr: 0x840, symBinAddr: 0x5ED00, symSize: 0xA0 }
  - { offset: 0x38693D, size: 0x8, addend: 0x0, symName: __ZN18llama_model_loader7get_keyIfEEbRKNSt3__112basic_stringIcNS1_11char_traitsIcEENS1_9allocatorIcEEEERT_b, symObjAddr: 0x8E0, symBinAddr: 0x5EDA0, symSize: 0x160 }
  - { offset: 0x386DF3, size: 0x8, addend: 0x0, symName: __ZN8GGUFMeta3GKVIfE17validate_overrideE28llama_model_kv_override_typePK23llama_model_kv_override, symObjAddr: 0x89C4, symBinAddr: 0x66714, symSize: 0x240 }
  - { offset: 0x386FF3, size: 0x8, addend: 0x0, symName: __ZN8GGUFMeta3GKVIfE6get_kvEPK12gguf_contexti, symObjAddr: 0x88C4, symBinAddr: 0x66614, symSize: 0x100 }
  - { offset: 0x3871E2, size: 0x8, addend: 0x0, symName: __ZN18llama_model_loader7get_keyIjEEb6llm_kvRT_b, symObjAddr: 0xA40, symBinAddr: 0x5EF00, symSize: 0xA0 }
  - { offset: 0x387489, size: 0x8, addend: 0x0, symName: __ZN18llama_model_loader7get_keyIjEEbRKNSt3__112basic_stringIcNS1_11char_traitsIcEENS1_9allocatorIcEEEERT_b, symObjAddr: 0xAE0, symBinAddr: 0x5EFA0, symSize: 0x15C }
  - { offset: 0x38793F, size: 0x8, addend: 0x0, symName: __ZN8GGUFMeta3GKVIjE17validate_overrideE28llama_model_kv_override_typePK23llama_model_kv_override, symObjAddr: 0x8D04, symBinAddr: 0x66A54, symSize: 0x240 }
  - { offset: 0x387B3F, size: 0x8, addend: 0x0, symName: __ZN8GGUFMeta3GKVIjE6get_kvEPK12gguf_contexti, symObjAddr: 0x8C04, symBinAddr: 0x66954, symSize: 0x100 }
  - { offset: 0x387D2E, size: 0x8, addend: 0x0, symName: __ZN18llama_model_loader7get_keyINSt3__112basic_stringIcNS1_11char_traitsIcEENS1_9allocatorIcEEEEEEb6llm_kvRT_b, symObjAddr: 0xC3C, symBinAddr: 0x5F0FC, symSize: 0xA0 }
  - { offset: 0x387FF8, size: 0x8, addend: 0x0, symName: __ZN18llama_model_loader7get_keyINSt3__112basic_stringIcNS1_11char_traitsIcEENS1_9allocatorIcEEEEEEbRKS7_RT_b, symObjAddr: 0xCDC, symBinAddr: 0x5F19C, symSize: 0x184 }
  - { offset: 0x388683, size: 0x8, addend: 0x0, symName: __ZN8GGUFMeta3GKVINSt3__112basic_stringIcNS1_11char_traitsIcEENS1_9allocatorIcEEEEE17validate_overrideE28llama_model_kv_override_typePK23llama_model_kv_override, symObjAddr: 0x90CC, symBinAddr: 0x66E1C, symSize: 0x240 }
  - { offset: 0x388883, size: 0x8, addend: 0x0, symName: __ZN8GGUFMeta3GKVINSt3__112basic_stringIcNS1_11char_traitsIcEENS1_9allocatorIcEEEEE6get_kvEPK12gguf_contexti, symObjAddr: 0x8F44, symBinAddr: 0x66C94, symSize: 0x188 }
  - { offset: 0x388D35, size: 0x8, addend: 0x0, symName: __ZN18llama_model_loader7get_keyI18llama_pooling_typeEEb6llm_kvRT_b, symObjAddr: 0xE60, symBinAddr: 0x5F320, symSize: 0xA0 }
  - { offset: 0x389061, size: 0x8, addend: 0x0, symName: __ZN18llama_model_loader14get_key_or_arrINSt3__15arrayIiLm4EEEEEb6llm_kvRT_jb, symObjAddr: 0xF00, symBinAddr: 0x5F3C0, symSize: 0xA8 }
  - { offset: 0x389341, size: 0x8, addend: 0x0, symName: __ZN18llama_model_loader14get_key_or_arrIiLm4EEEbRKNSt3__112basic_stringIcNS1_11char_traitsIcEENS1_9allocatorIcEEEERNS1_5arrayIT_XT0_EEEjb, symObjAddr: 0xFA8, symBinAddr: 0x5F468, symSize: 0x32C }
  - { offset: 0x389A63, size: 0x8, addend: 0x0, symName: __ZN18llama_model_loader7get_arrIiLm4EEEbRKNSt3__112basic_stringIcNS1_11char_traitsIcEENS1_9allocatorIcEEEERNS1_5arrayIT_XT0_EEEb, symObjAddr: 0x930C, symBinAddr: 0x6705C, symSize: 0x2D0 }
  - { offset: 0x38A107, size: 0x8, addend: 0x0, symName: __ZN18llama_model_loader7get_keyIiEEbRKNSt3__112basic_stringIcNS1_11char_traitsIcEENS1_9allocatorIcEEEERT_b, symObjAddr: 0x4460, symBinAddr: 0x627D4, symSize: 0x15C }
  - { offset: 0x38A4F1, size: 0x8, addend: 0x0, symName: __ZN18llama_model_loader14get_key_or_arrINSt3__15arrayIjLm512EEEEEb6llm_kvRT_jb, symObjAddr: 0x12D4, symBinAddr: 0x5F794, symSize: 0xA8 }
  - { offset: 0x38A7D1, size: 0x8, addend: 0x0, symName: __ZN18llama_model_loader14get_key_or_arrIjLm512EEEbRKNSt3__112basic_stringIcNS1_11char_traitsIcEENS1_9allocatorIcEEEERNS1_5arrayIT_XT0_EEEjb, symObjAddr: 0x137C, symBinAddr: 0x5F83C, symSize: 0x2F8 }
  - { offset: 0x38AE22, size: 0x8, addend: 0x0, symName: __ZN18llama_model_loader7get_arrIjLm512EEEbRKNSt3__112basic_stringIcNS1_11char_traitsIcEENS1_9allocatorIcEEEERNS1_5arrayIT_XT0_EEEb, symObjAddr: 0x95DC, symBinAddr: 0x6732C, symSize: 0x2D0 }
  - { offset: 0x38B4C2, size: 0x8, addend: 0x0, symName: __ZN18llama_model_loader14get_key_or_arrINSt3__15arrayIfLm512EEEEEb6llm_kvRT_jb, symObjAddr: 0x1674, symBinAddr: 0x5FB34, symSize: 0xA8 }
  - { offset: 0x38B7A2, size: 0x8, addend: 0x0, symName: __ZN18llama_model_loader14get_key_or_arrIfLm512EEEbRKNSt3__112basic_stringIcNS1_11char_traitsIcEENS1_9allocatorIcEEEERNS1_5arrayIT_XT0_EEEjb, symObjAddr: 0x171C, symBinAddr: 0x5FBDC, symSize: 0x2F8 }
  - { offset: 0x38BDF3, size: 0x8, addend: 0x0, symName: __ZN18llama_model_loader7get_arrIfLm512EEEbRKNSt3__112basic_stringIcNS1_11char_traitsIcEENS1_9allocatorIcEEEERNS1_5arrayIT_XT0_EEEb, symObjAddr: 0x98AC, symBinAddr: 0x675FC, symSize: 0x2D0 }
  - { offset: 0x38EF06, size: 0x8, addend: 0x0, symName: __ZN18llama_model_loaderC2ERKNSt3__112basic_stringIcNS0_11char_traitsIcEENS0_9allocatorIcEEEERNS0_6vectorIS6_NS4_IS6_EEEEbbPK23llama_model_kv_overridePK32llama_model_tensor_buft_override, symObjAddr: 0x1A14, symBinAddr: 0x5FED4, symSize: 0x27A4 }
  - { offset: 0x39884D, size: 0x8, addend: 0x0, symName: __ZNSt3__112__hash_tableINS_17__hash_value_typeINS_12basic_stringIcNS_11char_traitsIcEENS_9allocatorIcEEEE23llama_model_kv_overrideEENS_22__unordered_map_hasherIS7_S9_NS_4hashIS7_EENS_8equal_toIS7_EELb1EEENS_21__unordered_map_equalIS7_S9_SE_SC_Lb1EEENS5_IS9_EEE25__emplace_unique_key_argsIS7_JNS_4pairIKS7_S8_EEEEENSL_INS_15__hash_iteratorIPNS_11__hash_nodeIS9_PvEEEEbEERKT_DpOT0_, symObjAddr: 0x9BDC, symBinAddr: 0x6792C, symSize: 0x448 }
  - { offset: 0x39927C, size: 0x8, addend: 0x0, symName: __ZNK18llama_model_loader20weight_name_comparerclERKNSt3__112basic_stringIcNS1_11char_traitsIcEENS1_9allocatorIcEEEES9_, symObjAddr: 0xA24C, symBinAddr: 0x67F88, symSize: 0xF4 }
  - { offset: 0x399539, size: 0x8, addend: 0x0, symName: __ZN18llama_model_loader19llama_tensor_weightC2EPK10llama_filetPK12gguf_contextP11ggml_tensor, symObjAddr: 0x782C, symBinAddr: 0x65B90, symSize: 0x1B8 }
  - { offset: 0x3997D7, size: 0x8, addend: 0x0, symName: __ZNSt3__16__treeINS_12__value_typeINS_12basic_stringIcNS_11char_traitsIcEENS_9allocatorIcEEEEN18llama_model_loader19llama_tensor_weightEEENS_19__map_value_compareIS7_SA_NS8_20weight_name_comparerELb1EEENS5_ISA_EEE25__emplace_unique_key_argsIS7_JRS7_S9_EEENS_4pairINS_15__tree_iteratorISA_PNS_11__tree_nodeISA_PvEElEEbEERKT_DpOT0_, symObjAddr: 0xA340, symBinAddr: 0x6807C, symSize: 0x160 }
  - { offset: 0x399BDC, size: 0x8, addend: 0x0, symName: __ZN8GGUFMeta3GKVItE17validate_overrideE28llama_model_kv_override_typePK23llama_model_kv_override, symObjAddr: 0xA7B4, symBinAddr: 0x6833C, symSize: 0x240 }
  - { offset: 0x399DDC, size: 0x8, addend: 0x0, symName: __ZN8GGUFMeta3GKVItE6get_kvEPK12gguf_contexti, symObjAddr: 0xA6B4, symBinAddr: 0x6823C, symSize: 0x100 }
  - { offset: 0x399FD9, size: 0x8, addend: 0x0, symName: __ZN18llama_model_loader7get_keyItEEbRKNSt3__112basic_stringIcNS1_11char_traitsIcEENS1_9allocatorIcEEEERT_b, symObjAddr: 0x4260, symBinAddr: 0x62678, symSize: 0x15C }
  - { offset: 0x39A4EB, size: 0x8, addend: 0x0, symName: __ZNSt3__16__treeINS_12__value_typeI9ggml_typejEENS_19__map_value_compareIS2_S3_NS_4lessIS2_EELb1EEENS_9allocatorIS3_EEE7destroyEPNS_11__tree_nodeIS3_PvEE, symObjAddr: 0xAD34, symBinAddr: 0x688BC, symSize: 0x44 }
  - { offset: 0x39A626, size: 0x8, addend: 0x0, symName: __ZNKSt3__16vectorINS_10unique_ptrI10llama_fileNS_14default_deleteIS2_EEEENS_9allocatorIS5_EEE20__throw_length_errorB8ne190102Ev, symObjAddr: 0xA224, symBinAddr: 0x67F74, symSize: 0x14 }
  - { offset: 0x39A673, size: 0x8, addend: 0x0, symName: __ZNK18llama_model_loader20weight_name_comparerclERKNSt3__112basic_stringIcNS1_11char_traitsIcEENS1_9allocatorIcEEEES9_, symObjAddr: 0xA24C, symBinAddr: 0x67F88, symSize: 0xF4 }
  - { offset: 0x39A696, size: 0x8, addend: 0x0, symName: __ZNSt3__16vectorIP18ggml_backend_eventNS_9allocatorIS2_EEE12emplace_backIJRS2_EEES7_DpOT_, symObjAddr: 0x7B20, symBinAddr: 0x65D48, symSize: 0xF4 }
  - { offset: 0x39A853, size: 0x8, addend: 0x0, symName: __ZNSt3__110unique_ptrINS_11__tree_nodeINS_12__value_typeINS_12basic_stringIcNS_11char_traitsIcEENS_9allocatorIcEEEEN18llama_model_loader19llama_tensor_weightEEEPvEENS_22__tree_node_destructorINS6_ISD_EEEEED1B8ne190102Ev, symObjAddr: 0xA4A0, symBinAddr: 0x681DC, symSize: 0x60 }
  - { offset: 0x39ABC5, size: 0x8, addend: 0x0, symName: __ZNSt3__16vectorINS_10unique_ptrI12ggml_context20ggml_context_deleterEENS_9allocatorIS4_EEED1B8ne190102Ev, symObjAddr: 0x45BC, symBinAddr: 0x62930, symSize: 0x70 }
  - { offset: 0x39ADB6, size: 0x8, addend: 0x0, symName: __ZNSt3__113unordered_mapINS_12basic_stringIcNS_11char_traitsIcEENS_9allocatorIcEEEE23llama_model_kv_overrideNS_4hashIS6_EENS_8equal_toIS6_EENS4_INS_4pairIKS6_S7_EEEEED1B8ne190102Ev, symObjAddr: 0x462C, symBinAddr: 0x629A0, symSize: 0x68 }
  - { offset: 0x39B21D, size: 0x8, addend: 0x0, symName: __ZNSt3__16__treeINS_12__value_typeINS_12basic_stringIcNS_11char_traitsIcEENS_9allocatorIcEEEEN18llama_model_loader19llama_tensor_weightEEENS_19__map_value_compareIS7_SA_NS8_20weight_name_comparerELb1EEENS5_ISA_EEE7destroyEPNS_11__tree_nodeISA_PvEE, symObjAddr: 0x9B7C, symBinAddr: 0x678CC, symSize: 0x60 }
  - { offset: 0x39B497, size: 0x8, addend: 0x0, symName: __ZNSt3__16vectorINS_10unique_ptrI10llama_mmapNS_14default_deleteIS2_EEEENS_9allocatorIS5_EEED1B8ne190102Ev, symObjAddr: 0x4694, symBinAddr: 0x62A08, symSize: 0x70 }
  - { offset: 0x39B6AE, size: 0x8, addend: 0x0, symName: __ZNSt3__16vectorINS_10unique_ptrI10llama_fileNS_14default_deleteIS2_EEEENS_9allocatorIS5_EEED1B8ne190102Ev, symObjAddr: 0x4704, symBinAddr: 0x62A78, symSize: 0x70 }
  - { offset: 0x39BA44, size: 0x8, addend: 0x0, symName: __ZN18llama_model_loader7get_keyItEEbRKNSt3__112basic_stringIcNS1_11char_traitsIcEENS1_9allocatorIcEEEERT_b, symObjAddr: 0x4260, symBinAddr: 0x62678, symSize: 0x15C }
  - { offset: 0x39BB56, size: 0x8, addend: 0x0, symName: __ZN8GGUFMeta3GKVIiE17validate_overrideE28llama_model_kv_override_typePK23llama_model_kv_override, symObjAddr: 0xAAF4, symBinAddr: 0x6867C, symSize: 0x240 }
  - { offset: 0x39BD56, size: 0x8, addend: 0x0, symName: __ZN8GGUFMeta3GKVIiE6get_kvEPK12gguf_contexti, symObjAddr: 0xA9F4, symBinAddr: 0x6857C, symSize: 0x100 }
  - { offset: 0x39C5B1, size: 0x8, addend: 0x0, symName: __ZN18llama_model_loaderC1ERKNSt3__112basic_stringIcNS0_11char_traitsIcEENS0_9allocatorIcEEEERNS0_6vectorIS6_NS4_IS6_EEEEbbPK23llama_model_kv_overridePK32llama_model_tensor_buft_override, symObjAddr: 0x4774, symBinAddr: 0x62AE8, symSize: 0x4 }
  - { offset: 0x39C63E, size: 0x8, addend: 0x0, symName: __ZN18llama_model_loaderC1ERKNSt3__112basic_stringIcNS0_11char_traitsIcEENS0_9allocatorIcEEEERNS0_6vectorIS6_NS4_IS6_EEEEbbPK23llama_model_kv_overridePK32llama_model_tensor_buft_override, symObjAddr: 0x4774, symBinAddr: 0x62AE8, symSize: 0x4 }
  - { offset: 0x39C67B, size: 0x8, addend: 0x0, symName: __ZNK18llama_model_loader13get_arch_nameEv, symObjAddr: 0x4778, symBinAddr: 0x62AEC, symSize: 0x28 }
  - { offset: 0x39C6C1, size: 0x8, addend: 0x0, symName: __ZNK18llama_model_loader13get_arch_nameEv, symObjAddr: 0x4778, symBinAddr: 0x62AEC, symSize: 0x28 }
  - { offset: 0x39C6F9, size: 0x8, addend: 0x0, symName: __ZNK18llama_model_loader8get_archEv, symObjAddr: 0x47A0, symBinAddr: 0x62B14, symSize: 0x8 }
  - { offset: 0x39C7DA, size: 0x8, addend: 0x0, symName: __ZNK18llama_model_loader10get_weightEPKc, symObjAddr: 0x47A8, symBinAddr: 0x62B1C, symSize: 0x150 }
  - { offset: 0x39CDEA, size: 0x8, addend: 0x0, symName: __ZNK18llama_model_loader14require_weightEPKc, symObjAddr: 0x48F8, symBinAddr: 0x62C6C, symSize: 0xC4 }
  - { offset: 0x39CF89, size: 0x8, addend: 0x0, symName: __ZNK18llama_model_loader15get_tensor_metaEPKc, symObjAddr: 0x49BC, symBinAddr: 0x62D30, symSize: 0x1C }
  - { offset: 0x39D00F, size: 0x8, addend: 0x0, symName: __ZNK18llama_model_loader19require_tensor_metaERKNSt3__112basic_stringIcNS0_11char_traitsIcEENS0_9allocatorIcEEEE, symObjAddr: 0x49D8, symBinAddr: 0x62D4C, symSize: 0xEC }
  - { offset: 0x39D2C0, size: 0x8, addend: 0x0, symName: __ZNK18llama_model_loader17check_tensor_dimsERKNSt3__112basic_stringIcNS0_11char_traitsIcEENS0_9allocatorIcEEEERKNS0_6vectorIxNS4_IxEEEEb, symObjAddr: 0x4AC4, symBinAddr: 0x62E38, symSize: 0x2E0 }
  - { offset: 0x39DD5E, size: 0x8, addend: 0x0, symName: __ZN18llama_model_loader13create_tensorEP12ggml_contextRKNSt3__112basic_stringIcNS2_11char_traitsIcEENS2_9allocatorIcEEEERKSt16initializer_listIxEi, symObjAddr: 0x4DA4, symBinAddr: 0x63118, symSize: 0x16C }
  - { offset: 0x39E347, size: 0x8, addend: 0x0, symName: __ZNKSt3__16vectorIxNS_9allocatorIxEEE20__throw_length_errorB8ne190102Ev, symObjAddr: 0xADEC, symBinAddr: 0x68900, symSize: 0x14 }
  - { offset: 0x39E371, size: 0x8, addend: 0x0, symName: __ZNKSt3__16vectorINS_10unique_ptrI10llama_mmapNS_14default_deleteIS2_EEEENS_9allocatorIS5_EEE20__throw_length_errorB8ne190102Ev, symObjAddr: 0xAE00, symBinAddr: 0x68914, symSize: 0x14 }
  - { offset: 0x39E37C, size: 0x8, addend: 0x0, symName: __ZN18llama_model_loader21create_tensor_as_viewEP12ggml_contextP11ggml_tensorRKNSt3__112basic_stringIcNS4_11char_traitsIcEENS4_9allocatorIcEEEERKSt16initializer_listIxEmb, symObjAddr: 0x4F10, symBinAddr: 0x63284, symSize: 0x25C }
  - { offset: 0x39EB3D, size: 0x8, addend: 0x0, symName: __ZNK18llama_model_loader20done_getting_tensorsEv, symObjAddr: 0x516C, symBinAddr: 0x634E0, symSize: 0xD0 }
  - { offset: 0x39FBC3, size: 0x8, addend: 0x0, symName: __ZN18llama_model_loader13init_mappingsEbPNSt3__16vectorINS0_10unique_ptrI11llama_mlockNS0_14default_deleteIS3_EEEENS0_9allocatorIS6_EEEE, symObjAddr: 0x523C, symBinAddr: 0x635B0, symSize: 0x54C }
  - { offset: 0x3A1525, size: 0x8, addend: 0x0, symName: __ZNKSt3__16vectorINS_10unique_ptrI10llama_mmapNS_14default_deleteIS2_EEEENS_9allocatorIS5_EEE20__throw_length_errorB8ne190102Ev, symObjAddr: 0xAE00, symBinAddr: 0x68914, symSize: 0x14 }
  - { offset: 0x3A1572, size: 0x8, addend: 0x0, symName: __ZNKSt3__16vectorINS_10unique_ptrI11llama_mlockNS_14default_deleteIS2_EEEENS_9allocatorIS5_EEE20__throw_length_errorB8ne190102Ev, symObjAddr: 0xAE28, symBinAddr: 0x68928, symSize: 0x14 }
  - { offset: 0x3A157D, size: 0x8, addend: 0x0, symName: __ZNKSt3__16vectorINS_10unique_ptrI11llama_mlockNS_14default_deleteIS2_EEEENS_9allocatorIS5_EEE20__throw_length_errorB8ne190102Ev, symObjAddr: 0xAE28, symBinAddr: 0x68928, symSize: 0x14 }
  - { offset: 0x3A15A7, size: 0x8, addend: 0x0, symName: __ZNKSt3__16vectorINS_10unique_ptrI10llama_mmapNS_14default_deleteIS2_EEEENS_9allocatorIS5_EEE20__throw_out_of_rangeB8ne190102Ev, symObjAddr: 0xAE3C, symBinAddr: 0x6893C, symSize: 0x14 }
  - { offset: 0x3A15B2, size: 0x8, addend: 0x0, symName: __ZNSt3__110unique_ptrI10llama_mmapNS_14default_deleteIS1_EEED1B8ne190102Ev, symObjAddr: 0x57C4, symBinAddr: 0x63B38, symSize: 0x3C }
  - { offset: 0x3A164A, size: 0x8, addend: 0x0, symName: __ZNSt3__110unique_ptrI11llama_mlockNS_14default_deleteIS1_EEED1B8ne190102Ev, symObjAddr: 0x5788, symBinAddr: 0x63AFC, symSize: 0x3C }
  - { offset: 0x3A17F6, size: 0x8, addend: 0x0, symName: __ZNK18llama_model_loader17get_mapping_rangeEPmS0_PPviP12ggml_context, symObjAddr: 0x5800, symBinAddr: 0x63B74, symSize: 0x134 }
  - { offset: 0x3A1A81, size: 0x8, addend: 0x0, symName: __ZNK18llama_model_loader13load_data_forEP11ggml_tensor, symObjAddr: 0x5934, symBinAddr: 0x63CA8, symSize: 0x220 }
  - { offset: 0x3A1A8C, size: 0x8, addend: 0x0, symName: __ZNKSt3__16vectorINS_10unique_ptrI10llama_mmapNS_14default_deleteIS2_EEEENS_9allocatorIS5_EEE20__throw_out_of_rangeB8ne190102Ev, symObjAddr: 0xAE3C, symBinAddr: 0x6893C, symSize: 0x14 }
  - { offset: 0x3A1AB6, size: 0x8, addend: 0x0, symName: __ZNKSt3__16vectorINS_10unique_ptrI10llama_fileNS_14default_deleteIS2_EEEENS_9allocatorIS5_EEE20__throw_out_of_rangeB8ne190102Ev, symObjAddr: 0xAE50, symBinAddr: 0x68950, symSize: 0x14 }
  - { offset: 0x3A1AD7, size: 0x8, addend: 0x0, symName: __ZNK18llama_model_loader13load_data_forEP11ggml_tensor, symObjAddr: 0x5934, symBinAddr: 0x63CA8, symSize: 0x220 }
  - { offset: 0x3A4A62, size: 0x8, addend: 0x0, symName: __ZNSt3__113__assoc_stateINS_4pairIP11ggml_tensorbEEE4moveEv, symObjAddr: 0xB488, symBinAddr: 0x68F88, symSize: 0xCC }
  - { offset: 0x3A4C60, size: 0x8, addend: 0x0, symName: __ZNSt3__16vectorIP18ggml_backend_eventNS_9allocatorIS2_EEE12emplace_backIJRS2_EEES7_DpOT_, symObjAddr: 0x7B20, symBinAddr: 0x65D48, symSize: 0xF4 }
  - { offset: 0x3A506D, size: 0x8, addend: 0x0, symName: __ZNKSt3__16vectorIP19ggml_backend_bufferNS_9allocatorIS2_EEE20__throw_length_errorB8ne190102Ev, symObjAddr: 0x7C14, symBinAddr: 0x65E3C, symSize: 0x14 }
  - { offset: 0x3A50BE, size: 0x8, addend: 0x0, symName: __ZNKSt3__16vectorINS_10unique_ptrI10llama_fileNS_14default_deleteIS2_EEEENS_9allocatorIS5_EEE20__throw_out_of_rangeB8ne190102Ev, symObjAddr: 0xAE50, symBinAddr: 0x68950, symSize: 0x14 }
  - { offset: 0x3A50E8, size: 0x8, addend: 0x0, symName: '__ZNSt3__119__async_assoc_stateINS_4pairIP11ggml_tensorbEENS_12__async_funcIZN18llama_model_loader13load_all_dataEP12ggml_contextRNS_13unordered_mapIjP19ggml_backend_bufferNS_4hashIjEENS_8equal_toIjEENS_9allocatorINS1_IKjSB_EEEEEEPNS_6vectorINS_10unique_ptrI11llama_mlockNS_14default_deleteISO_EEEENSG_ISR_EEEEPFbfPvESV_E3$_1JEEEED1Ev', symObjAddr: 0xAE64, symBinAddr: 0x68964, symSize: 0x4C }
  - { offset: 0x3A50F3, size: 0x8, addend: 0x0, symName: __ZNKSt3__16vectorINS_4pairImmEENS_9allocatorIS2_EEE20__throw_out_of_rangeB8ne190102Ev, symObjAddr: 0xB554, symBinAddr: 0x69054, symSize: 0x14 }
  - { offset: 0x3A5128, size: 0x8, addend: 0x0, symName: __ZNKSt3__16vectorINS_6futureINS_4pairIP11ggml_tensorbEEEENS_9allocatorIS6_EEE20__throw_length_errorB8ne190102Ev, symObjAddr: 0xB1A4, symBinAddr: 0x68CA4, symSize: 0x14 }
  - { offset: 0x3A5152, size: 0x8, addend: 0x0, symName: __ZNKSt3__16vectorINS_10unique_ptrI11llama_mlockNS_14default_deleteIS2_EEEENS_9allocatorIS5_EEE20__throw_out_of_rangeB8ne190102Ev, symObjAddr: 0xB1B8, symBinAddr: 0x68CB8, symSize: 0x14 }
  - { offset: 0x3A515D, size: 0x8, addend: 0x0, symName: __ZNKSt3__16vectorINS_10unique_ptrI11llama_mlockNS_14default_deleteIS2_EEEENS_9allocatorIS5_EEE20__throw_out_of_rangeB8ne190102Ev, symObjAddr: 0xB1B8, symBinAddr: 0x68CB8, symSize: 0x14 }
  - { offset: 0x3A5187, size: 0x8, addend: 0x0, symName: '__ZNSt3__119__async_assoc_stateINS_4pairIP11ggml_tensorbEENS_12__async_funcIZN18llama_model_loader13load_all_dataEP12ggml_contextRNS_13unordered_mapIjP19ggml_backend_bufferNS_4hashIjEENS_8equal_toIjEENS_9allocatorINS1_IKjSB_EEEEEEPNS_6vectorINS_10unique_ptrI11llama_mlockNS_14default_deleteISO_EEEENSG_ISR_EEEEPFbfPvESV_E3$_2JEEEED1Ev', symObjAddr: 0xB1CC, symBinAddr: 0x68CCC, symSize: 0x4C }
  - { offset: 0x3A5192, size: 0x8, addend: 0x0, symName: __ZNKSt3__16vectorI7no_initIhENS_9allocatorIS2_EEE20__throw_length_errorB8ne190102Ev, symObjAddr: 0xB474, symBinAddr: 0x68F74, symSize: 0x14 }
  - { offset: 0x3A51BC, size: 0x8, addend: 0x0, symName: __ZNSt3__113__assoc_stateINS_4pairIP11ggml_tensorbEEE4moveEv, symObjAddr: 0xB488, symBinAddr: 0x68F88, symSize: 0xCC }
  - { offset: 0x3A51C7, size: 0x8, addend: 0x0, symName: __ZNKSt3__16vectorIP19ggml_backend_bufferNS_9allocatorIS2_EEE20__throw_length_errorB8ne190102Ev, symObjAddr: 0x7C14, symBinAddr: 0x65E3C, symSize: 0x14 }
  - { offset: 0x3A51F1, size: 0x8, addend: 0x0, symName: __ZNKSt3__16vectorIPvNS_9allocatorIS1_EEE20__throw_length_errorB8ne190102Ev, symObjAddr: 0x7C28, symBinAddr: 0x65E50, symSize: 0x14 }
  - { offset: 0x3A51FC, size: 0x8, addend: 0x0, symName: __ZNKSt3__16vectorIPvNS_9allocatorIS1_EEE20__throw_length_errorB8ne190102Ev, symObjAddr: 0x7C28, symBinAddr: 0x65E50, symSize: 0x14 }
  - { offset: 0x3A5226, size: 0x8, addend: 0x0, symName: __ZNKSt3__16vectorIP18ggml_backend_eventNS_9allocatorIS2_EEE20__throw_length_errorB8ne190102Ev, symObjAddr: 0x7C3C, symBinAddr: 0x65E64, symSize: 0x14 }
  - { offset: 0x3A5231, size: 0x8, addend: 0x0, symName: '__ZNSt3__110unique_ptrINS_5tupleIJNS0_INS_15__thread_structENS_14default_deleteIS2_EEEEMNS_19__async_assoc_stateINS_4pairIP11ggml_tensorbEENS_12__async_funcIZN18llama_model_loader13load_all_dataEP12ggml_contextRNS_13unordered_mapIjP19ggml_backend_bufferNS_4hashIjEENS_8equal_toIjEENS_9allocatorINS7_IKjSH_EEEEEEPNS_6vectorINS0_I11llama_mlockNS3_IST_EEEENSM_ISV_EEEEPFbfPvESZ_E3$_2JEEEEEFvvEPS14_EEENS3_IS18_EEED1B8ne190102Ev', symObjAddr: 0xB42C, symBinAddr: 0x68F2C, symSize: 0x48 }
  - { offset: 0x3A53D9, size: 0x8, addend: 0x0, symName: __ZNSt3__110unique_ptrINS_15__thread_structENS_14default_deleteIS1_EEED1B8ne190102Ev, symObjAddr: 0xB168, symBinAddr: 0x68C68, symSize: 0x3C }
  - { offset: 0x3A5471, size: 0x8, addend: 0x0, symName: '__ZNSt3__110unique_ptrINS_5tupleIJNS0_INS_15__thread_structENS_14default_deleteIS2_EEEEMNS_19__async_assoc_stateINS_4pairIP11ggml_tensorbEENS_12__async_funcIZN18llama_model_loader13load_all_dataEP12ggml_contextRNS_13unordered_mapIjP19ggml_backend_bufferNS_4hashIjEENS_8equal_toIjEENS_9allocatorINS7_IKjSH_EEEEEEPNS_6vectorINS0_I11llama_mlockNS3_IST_EEEENSM_ISV_EEEEPFbfPvESZ_E3$_1JEEEEEFvvEPS14_EEENS3_IS18_EEED1B8ne190102Ev', symObjAddr: 0xB120, symBinAddr: 0x68C20, symSize: 0x48 }
  - { offset: 0x3A5619, size: 0x8, addend: 0x0, symName: __ZNSt3__16vectorINS_6futureINS_4pairIP11ggml_tensorbEEEENS_9allocatorIS6_EEED1B8ne190102Ev, symObjAddr: 0x7254, symBinAddr: 0x655C8, symSize: 0x80 }
  - { offset: 0x3A5819, size: 0x8, addend: 0x0, symName: __ZNK18llama_model_loader10ftype_nameEv, symObjAddr: 0x72D4, symBinAddr: 0x65648, symSize: 0xC }
  - { offset: 0x3A5859, size: 0x8, addend: 0x0, symName: __ZL22llama_model_ftype_name11llama_ftype, symObjAddr: 0x72E0, symBinAddr: 0x65654, symSize: 0x3EC }
  - { offset: 0x3A5D1E, size: 0x8, addend: 0x0, symName: __ZNK18llama_model_loader10print_infoEv, symObjAddr: 0x76CC, symBinAddr: 0x65A40, symSize: 0x150 }
  - { offset: 0x3A657F, size: 0x8, addend: 0x0, symName: __ZNKSt3__16vectorIP18ggml_backend_eventNS_9allocatorIS2_EEE20__throw_length_errorB8ne190102Ev, symObjAddr: 0x7C3C, symBinAddr: 0x65E64, symSize: 0x14 }
  - { offset: 0x3A65A9, size: 0x8, addend: 0x0, symName: __ZN8GGUFMeta3GKVINS_9ArrayInfoEE6get_kvEPK12gguf_contexti, symObjAddr: 0x7C50, symBinAddr: 0x65E78, symSize: 0x150 }
  - { offset: 0x3A7809, size: 0x8, addend: 0x0, symName: __ZNSt3__112__hash_tableINS_17__hash_value_typeINS_12basic_stringIcNS_11char_traitsIcEENS_9allocatorIcEEEE23llama_model_kv_overrideEENS_22__unordered_map_hasherIS7_S9_NS_4hashIS7_EENS_8equal_toIS7_EELb1EEENS_21__unordered_map_equalIS7_S9_SE_SC_Lb1EEENS5_IS9_EEE11__do_rehashILb1EEEvm, symObjAddr: 0xA084, symBinAddr: 0x67DD4, symSize: 0x1A0 }
  - { offset: 0x3A7C67, size: 0x8, addend: 0x0, symName: __ZNKSt3__16vectorINS_10unique_ptrI10llama_fileNS_14default_deleteIS2_EEEENS_9allocatorIS5_EEE20__throw_length_errorB8ne190102Ev, symObjAddr: 0xA224, symBinAddr: 0x67F74, symSize: 0x14 }
  - { offset: 0x3A7C7C, size: 0x8, addend: 0x0, symName: __ZNSt3__110unique_ptrINS_11__hash_nodeINS_17__hash_value_typeINS_12basic_stringIcNS_11char_traitsIcEENS_9allocatorIcEEEE23llama_model_kv_overrideEEPvEENS_22__hash_node_destructorINS6_ISC_EEEEED1B8ne190102Ev, symObjAddr: 0xA024, symBinAddr: 0x67D74, symSize: 0x60 }
  - { offset: 0x3A827F, size: 0x8, addend: 0x0, symName: '__ZNSt3__119__async_assoc_stateINS_4pairIP11ggml_tensorbEENS_12__async_funcIZN18llama_model_loader13load_all_dataEP12ggml_contextRNS_13unordered_mapIjP19ggml_backend_bufferNS_4hashIjEENS_8equal_toIjEENS_9allocatorINS1_IKjSB_EEEEEEPNS_6vectorINS_10unique_ptrI11llama_mlockNS_14default_deleteISO_EEEENSG_ISR_EEEEPFbfPvESV_E3$_1JEEEED1Ev', symObjAddr: 0xAE64, symBinAddr: 0x68964, symSize: 0x4C }
  - { offset: 0x3A831B, size: 0x8, addend: 0x0, symName: '__ZNSt3__119__async_assoc_stateINS_4pairIP11ggml_tensorbEENS_12__async_funcIZN18llama_model_loader13load_all_dataEP12ggml_contextRNS_13unordered_mapIjP19ggml_backend_bufferNS_4hashIjEENS_8equal_toIjEENS_9allocatorINS1_IKjSB_EEEEEEPNS_6vectorINS_10unique_ptrI11llama_mlockNS_14default_deleteISO_EEEENSG_ISR_EEEEPFbfPvESV_E3$_1JEEEED0Ev', symObjAddr: 0xAEB0, symBinAddr: 0x689B0, symSize: 0x50 }
  - { offset: 0x3A83D5, size: 0x8, addend: 0x0, symName: '__ZNSt3__119__async_assoc_stateINS_4pairIP11ggml_tensorbEENS_12__async_funcIZN18llama_model_loader13load_all_dataEP12ggml_contextRNS_13unordered_mapIjP19ggml_backend_bufferNS_4hashIjEENS_8equal_toIjEENS_9allocatorINS1_IKjSB_EEEEEEPNS_6vectorINS_10unique_ptrI11llama_mlockNS_14default_deleteISO_EEEENSG_ISR_EEEEPFbfPvESV_E3$_1JEEEE16__on_zero_sharedEv', symObjAddr: 0xAF00, symBinAddr: 0x68A00, symSize: 0x30 }
  - { offset: 0x3A863C, size: 0x8, addend: 0x0, symName: '__ZNSt3__119__async_assoc_stateINS_4pairIP11ggml_tensorbEENS_12__async_funcIZN18llama_model_loader13load_all_dataEP12ggml_contextRNS_13unordered_mapIjP19ggml_backend_bufferNS_4hashIjEENS_8equal_toIjEENS_9allocatorINS1_IKjSB_EEEEEEPNS_6vectorINS_10unique_ptrI11llama_mlockNS_14default_deleteISO_EEEENSG_ISR_EEEEPFbfPvESV_E3$_1JEEEE9__executeEv', symObjAddr: 0xAF30, symBinAddr: 0x68A30, symSize: 0x108 }
  - { offset: 0x3A8AF9, size: 0x8, addend: 0x0, symName: '__ZNSt3__119__async_assoc_stateINS_4pairIP11ggml_tensorbEENS_12__async_funcIZN18llama_model_loader13load_all_dataEP12ggml_contextRNS_13unordered_mapIjP19ggml_backend_bufferNS_4hashIjEENS_8equal_toIjEENS_9allocatorINS1_IKjSB_EEEEEEPNS_6vectorINS_10unique_ptrI11llama_mlockNS_14default_deleteISO_EEEENSG_ISR_EEEEPFbfPvESV_E3$_2JEEEED1Ev', symObjAddr: 0xB1CC, symBinAddr: 0x68CCC, symSize: 0x4C }
  - { offset: 0x3A8B95, size: 0x8, addend: 0x0, symName: '__ZNSt3__119__async_assoc_stateINS_4pairIP11ggml_tensorbEENS_12__async_funcIZN18llama_model_loader13load_all_dataEP12ggml_contextRNS_13unordered_mapIjP19ggml_backend_bufferNS_4hashIjEENS_8equal_toIjEENS_9allocatorINS1_IKjSB_EEEEEEPNS_6vectorINS_10unique_ptrI11llama_mlockNS_14default_deleteISO_EEEENSG_ISR_EEEEPFbfPvESV_E3$_2JEEEED0Ev', symObjAddr: 0xB218, symBinAddr: 0x68D18, symSize: 0x50 }
  - { offset: 0x3A8C37, size: 0x8, addend: 0x0, symName: '__ZNSt3__119__async_assoc_stateINS_4pairIP11ggml_tensorbEENS_12__async_funcIZN18llama_model_loader13load_all_dataEP12ggml_contextRNS_13unordered_mapIjP19ggml_backend_bufferNS_4hashIjEENS_8equal_toIjEENS_9allocatorINS1_IKjSB_EEEEEEPNS_6vectorINS_10unique_ptrI11llama_mlockNS_14default_deleteISO_EEEENSG_ISR_EEEEPFbfPvESV_E3$_2JEEEE16__on_zero_sharedEv', symObjAddr: 0xB268, symBinAddr: 0x68D68, symSize: 0x30 }
  - { offset: 0x3A8CE7, size: 0x8, addend: 0x0, symName: '__ZNSt3__119__async_assoc_stateINS_4pairIP11ggml_tensorbEENS_12__async_funcIZN18llama_model_loader13load_all_dataEP12ggml_contextRNS_13unordered_mapIjP19ggml_backend_bufferNS_4hashIjEENS_8equal_toIjEENS_9allocatorINS1_IKjSB_EEEEEEPNS_6vectorINS_10unique_ptrI11llama_mlockNS_14default_deleteISO_EEEENSG_ISR_EEEEPFbfPvESV_E3$_2JEEEE9__executeEv', symObjAddr: 0xB298, symBinAddr: 0x68D98, symSize: 0x108 }
  - { offset: 0x3BE91C, size: 0x8, addend: 0x0, symName: __ZN17llama_model_saverC2ERK11llama_model, symObjAddr: 0x0, symBinAddr: 0x69068, symSize: 0x38 }
  - { offset: 0x3BE98D, size: 0x8, addend: 0x0, symName: __ZN17llama_model_saverC1ERK11llama_model, symObjAddr: 0x38, symBinAddr: 0x690A0, symSize: 0x38 }
  - { offset: 0x3BE9FC, size: 0x8, addend: 0x0, symName: __ZN17llama_model_saverD2Ev, symObjAddr: 0x70, symBinAddr: 0x690D8, symSize: 0x2C }
  - { offset: 0x3BEA55, size: 0x8, addend: 0x0, symName: __ZN17llama_model_saverD1Ev, symObjAddr: 0xAC, symBinAddr: 0x69104, symSize: 0x2C }
  - { offset: 0x3BEBAA, size: 0x8, addend: 0x0, symName: __ZN17llama_model_saver6add_kvE6llm_kvj, symObjAddr: 0xD8, symBinAddr: 0x69130, symSize: 0x98 }
  - { offset: 0x3BEEC2, size: 0x8, addend: 0x0, symName: __ZN17llama_model_saver6add_kvE6llm_kvi, symObjAddr: 0x170, symBinAddr: 0x691C8, symSize: 0x98 }
  - { offset: 0x3BF1DA, size: 0x8, addend: 0x0, symName: __ZN17llama_model_saver6add_kvE6llm_kvf, symObjAddr: 0x208, symBinAddr: 0x69260, symSize: 0x98 }
  - { offset: 0x3BF4EC, size: 0x8, addend: 0x0, symName: __ZN17llama_model_saver6add_kvE6llm_kvb, symObjAddr: 0x2A0, symBinAddr: 0x692F8, symSize: 0x98 }
  - { offset: 0x3BF804, size: 0x8, addend: 0x0, symName: __ZN17llama_model_saver6add_kvE6llm_kvPKc, symObjAddr: 0x338, symBinAddr: 0x69390, symSize: 0x98 }
  - { offset: 0x3BFB2F, size: 0x8, addend: 0x0, symName: __ZN17llama_model_saver6add_kvE6llm_kvc, symObjAddr: 0x3D0, symBinAddr: 0x69428, symSize: 0x20 }
  - { offset: 0x3BFB6C, size: 0x8, addend: 0x0, symName: __ZN17llama_model_saver6add_kvE6llm_kvRKNSt3__16vectorINS1_12basic_stringIcNS1_11char_traitsIcEENS1_9allocatorIcEEEENS6_IS8_EEEE, symObjAddr: 0x3F0, symBinAddr: 0x69448, symSize: 0x168 }
  - { offset: 0x3BFE81, size: 0x8, addend: 0x0, symName: __ZN17llama_model_saver6add_kvE6llm_kvRKNSt3__16vectorINS1_12basic_stringIcNS1_11char_traitsIcEENS1_9allocatorIcEEEENS6_IS8_EEEE, symObjAddr: 0x3F0, symBinAddr: 0x69448, symSize: 0x168 }
  - { offset: 0x3C06EE, size: 0x8, addend: 0x0, symName: __ZNKSt3__16vectorIPKcNS_9allocatorIS2_EEE20__throw_length_errorB8ne190102Ev, symObjAddr: 0x27E0, symBinAddr: 0x6B7C8, symSize: 0x14 }
  - { offset: 0x3C0998, size: 0x8, addend: 0x0, symName: __ZN17llama_model_saver10add_tensorEPK11ggml_tensor, symObjAddr: 0x558, symBinAddr: 0x695B0, symSize: 0x1A4 }
  - { offset: 0x3C0D98, size: 0x8, addend: 0x0, symName: __ZN17llama_model_saver17add_kv_from_modelEv, symObjAddr: 0x6FC, symBinAddr: 0x69754, symSize: 0x1AE0 }
  - { offset: 0x3C1922, size: 0x8, addend: 0x0, symName: __ZN17llama_model_saver17add_kv_from_modelEv, symObjAddr: 0x6FC, symBinAddr: 0x69754, symSize: 0x1AE0 }
  - { offset: 0x3CB1FC, size: 0x8, addend: 0x0, symName: __ZN17llama_model_saver6add_kvINSt3__112basic_stringIcNS1_11char_traitsIcEENS1_9allocatorIcEEEEEEv6llm_kvRKT_b, symObjAddr: 0x21DC, symBinAddr: 0x6B234, symSize: 0x148 }
  - { offset: 0x3CB66E, size: 0x8, addend: 0x0, symName: __ZN17llama_model_saver6add_kvINSt3__15arrayIjLm512EEEEEv6llm_kvRKT_b, symObjAddr: 0x2324, symBinAddr: 0x6B37C, symSize: 0x13C }
  - { offset: 0x3CBC4E, size: 0x8, addend: 0x0, symName: __ZN17llama_model_saver22add_tensors_from_modelEv, symObjAddr: 0x24D0, symBinAddr: 0x6B4B8, symSize: 0x2F4 }
  - { offset: 0x3CC77B, size: 0x8, addend: 0x0, symName: __ZN17llama_model_saver4saveERKNSt3__112basic_stringIcNS0_11char_traitsIcEENS0_9allocatorIcEEEE, symObjAddr: 0x27C4, symBinAddr: 0x6B7AC, symSize: 0x1C }
  - { offset: 0x3CE7BA, size: 0x8, addend: 0x0, symName: __ZL24LLAMA_ROPE_SCALING_TYPES, symObjAddr: 0x4BF080, symBinAddr: 0x302F30, symSize: 0x0 }
  - { offset: 0x43189A, size: 0x8, addend: 0x0, symName: __ZNSt3__111make_uniqueB8ne190102I14llm_build_lfm2JRK11llama_modelRK16llm_graph_paramsEEENS_11__unique_ifIT_E15__unique_singleEDpOT0_, symObjAddr: 0x2EB0C, symBinAddr: 0x9A268, symSize: 0x5C }
  - { offset: 0x43198E, size: 0x8, addend: 0x0, symName: __ZNSt3__111make_uniqueB8ne190102I14llm_build_phi3ILb1EEJRK11llama_modelRK16llm_graph_paramsEEENS_11__unique_ifIT_E15__unique_singleEDpOT0_, symObjAddr: 0x2D4C4, symBinAddr: 0x98C20, symSize: 0x5C }
  - { offset: 0x431A82, size: 0x8, addend: 0x0, symName: __ZNSt3__111make_uniqueB8ne190102I15llm_build_mambaJRK11llama_modelRK16llm_graph_paramsEEENS_11__unique_ifIT_E15__unique_singleEDpOT0_, symObjAddr: 0x2DA28, symBinAddr: 0x99184, symSize: 0x5C }
  - { offset: 0x431B76, size: 0x8, addend: 0x0, symName: __ZNSt3__111make_uniqueB8ne190102I25llm_build_openai_moe_iswaJRK11llama_modelRK16llm_graph_paramsEEENS_11__unique_ifIT_E15__unique_singleEDpOT0_, symObjAddr: 0x2EA54, symBinAddr: 0x9A1B0, symSize: 0x5C }
  - { offset: 0x431C6A, size: 0x8, addend: 0x0, symName: __ZNSt3__111make_uniqueB8ne190102I21llm_build_bailingmoe2JRK11llama_modelRK16llm_graph_paramsEEENS_11__unique_ifIT_E15__unique_singleEDpOT0_, symObjAddr: 0x2E718, symBinAddr: 0x99E74, symSize: 0x5C }
  - { offset: 0x431D5E, size: 0x8, addend: 0x0, symName: __ZNSt3__111make_uniqueB8ne190102I16llm_build_bitnetJRK11llama_modelRK16llm_graph_paramsEEENS_11__unique_ifIT_E15__unique_singleEDpOT0_, symObjAddr: 0x2E0A0, symBinAddr: 0x997FC, symSize: 0x5C }
  - { offset: 0x431E52, size: 0x8, addend: 0x0, symName: __ZNSt3__111make_uniqueB8ne190102I14llm_build_glm4JRK11llama_modelRK16llm_graph_paramsEEENS_11__unique_ifIT_E15__unique_singleEDpOT0_, symObjAddr: 0x2DFE8, symBinAddr: 0x99744, symSize: 0x5C }
  - { offset: 0x431F46, size: 0x8, addend: 0x0, symName: __ZNSt3__111make_uniqueB8ne190102I16llm_build_t5_decJRK11llama_modelRK16llm_graph_paramsEEENS_11__unique_ifIT_E15__unique_singleEDpOT0_, symObjAddr: 0x2E158, symBinAddr: 0x998B4, symSize: 0x5C }
  - { offset: 0x43203A, size: 0x8, addend: 0x0, symName: __ZNSt3__111make_uniqueB8ne190102I18llm_build_glm4_moeJRK11llama_modelRK16llm_graph_paramsEEENS_11__unique_ifIT_E15__unique_singleEDpOT0_, symObjAddr: 0x2E044, symBinAddr: 0x997A0, symSize: 0x5C }
  - { offset: 0x43212E, size: 0x8, addend: 0x0, symName: __ZNSt3__111make_uniqueB8ne190102I15llm_build_arceeJRK11llama_modelRK16llm_graph_paramsEEENS_11__unique_ifIT_E15__unique_singleEDpOT0_, symObjAddr: 0x2E82C, symBinAddr: 0x99F88, symSize: 0x5C }
  - { offset: 0x432222, size: 0x8, addend: 0x0, symName: __ZNSt3__111make_uniqueB8ne190102I15llm_build_dots1JRK11llama_modelRK16llm_graph_paramsEEENS_11__unique_ifIT_E15__unique_singleEDpOT0_, symObjAddr: 0x2E7D0, symBinAddr: 0x99F2C, symSize: 0x5C }
  - { offset: 0x432316, size: 0x8, addend: 0x0, symName: __ZNSt3__111make_uniqueB8ne190102I16llm_build_arcticJRK11llama_modelRK16llm_graph_paramsEEENS_11__unique_ifIT_E15__unique_singleEDpOT0_, symObjAddr: 0x2DE78, symBinAddr: 0x995D4, symSize: 0x5C }
  - { offset: 0x43240A, size: 0x8, addend: 0x0, symName: __ZNSt3__111make_uniqueB8ne190102I19llm_build_deepseek2JRK11llama_modelRK16llm_graph_paramsEEENS_11__unique_ifIT_E15__unique_singleEDpOT0_, symObjAddr: 0x2DF30, symBinAddr: 0x9968C, symSize: 0x5C }
  - { offset: 0x4324FE, size: 0x8, addend: 0x0, symName: __ZNSt3__111make_uniqueB8ne190102I19llm_build_chameleonJRK11llama_modelRK16llm_graph_paramsEEENS_11__unique_ifIT_E15__unique_singleEDpOT0_, symObjAddr: 0x2E5A8, symBinAddr: 0x99D04, symSize: 0x5C }
  - { offset: 0x4325F2, size: 0x8, addend: 0x0, symName: __ZNSt3__111make_uniqueB8ne190102I22llm_build_smallthinkerILb1EEJRK11llama_modelRK16llm_graph_paramsEEENS_11__unique_ifIT_E15__unique_singleEDpOT0_, symObjAddr: 0x2EB68, symBinAddr: 0x9A2C4, symSize: 0x5C }
  - { offset: 0x4326E6, size: 0x8, addend: 0x0, symName: __ZNSt3__111make_uniqueB8ne190102I15llm_build_olmo2ILb1EEJRK11llama_modelRK16llm_graph_paramsEEENS_11__unique_ifIT_E15__unique_singleEDpOT0_, symObjAddr: 0x2DCAC, symBinAddr: 0x99408, symSize: 0x5C }
  - { offset: 0x4327DA, size: 0x8, addend: 0x0, symName: __ZNSt3__111make_uniqueB8ne190102I19llm_build_llada_moeJRK11llama_modelRK16llm_graph_paramsEEENS_11__unique_ifIT_E15__unique_singleEDpOT0_, symObjAddr: 0x2D1E4, symBinAddr: 0x98940, symSize: 0x5C }
  - { offset: 0x4328CE, size: 0x8, addend: 0x0, symName: __ZNSt3__111make_uniqueB8ne190102I20llm_build_minimax_m2JRK11llama_modelRK16llm_graph_paramsEEENS_11__unique_ifIT_E15__unique_singleEDpOT0_, symObjAddr: 0x2ECD8, symBinAddr: 0x9A434, symSize: 0x5C }
  - { offset: 0x4329C2, size: 0x8, addend: 0x0, symName: __ZNSt3__111make_uniqueB8ne190102I15llm_build_olmoeJRK11llama_modelRK16llm_graph_paramsEEENS_11__unique_ifIT_E15__unique_singleEDpOT0_, symObjAddr: 0x2DD64, symBinAddr: 0x994C0, symSize: 0x5C }
  - { offset: 0x432AB6, size: 0x8, addend: 0x0, symName: __ZNSt3__111make_uniqueB8ne190102I15llm_build_plamoJRK11llama_modelRK16llm_graph_paramsEEENS_11__unique_ifIT_E15__unique_singleEDpOT0_, symObjAddr: 0x2D57C, symBinAddr: 0x98CD8, symSize: 0x5C }
  - { offset: 0x432BAA, size: 0x8, addend: 0x0, symName: __ZNSt3__111make_uniqueB8ne190102I16llm_build_plamo2JRK11llama_modelRK16llm_graph_paramsEEENS_11__unique_ifIT_E15__unique_singleEDpOT0_, symObjAddr: 0x2D5D8, symBinAddr: 0x98D34, symSize: 0x5C }
  - { offset: 0x432C9E, size: 0x8, addend: 0x0, symName: __ZNSt3__111make_uniqueB8ne190102I21llm_build_hunyuan_moeJRK11llama_modelRK16llm_graph_paramsEEENS_11__unique_ifIT_E15__unique_singleEDpOT0_, symObjAddr: 0x2E940, symBinAddr: 0x9A09C, symSize: 0x5C }
  - { offset: 0x432D92, size: 0x8, addend: 0x0, symName: __ZNSt3__111make_uniqueB8ne190102I23llm_build_hunyuan_denseJRK11llama_modelRK16llm_graph_paramsEEENS_11__unique_ifIT_E15__unique_singleEDpOT0_, symObjAddr: 0x2E99C, symBinAddr: 0x9A0F8, symSize: 0x5C }
  - { offset: 0x432E86, size: 0x8, addend: 0x0, symName: __ZNSt3__111make_uniqueB8ne190102I14llm_build_dbrxJRK11llama_modelRK16llm_graph_paramsEEENS_11__unique_ifIT_E15__unique_singleEDpOT0_, symObjAddr: 0x2DBF4, symBinAddr: 0x99350, symSize: 0x5C }
  - { offset: 0x432F7A, size: 0x8, addend: 0x0, symName: __ZNSt3__111make_uniqueB8ne190102I25llm_build_gemma_embeddingJRK11llama_modelRK16llm_graph_paramsEEENS_11__unique_ifIT_E15__unique_singleEDpOT0_, symObjAddr: 0x2D970, symBinAddr: 0x990CC, symSize: 0x5C }
  - { offset: 0x43306E, size: 0x8, addend: 0x0, symName: __ZNSt3__111make_uniqueB8ne190102I22llm_build_cohere2_iswaJRK11llama_modelRK16llm_graph_paramsEEENS_11__unique_ifIT_E15__unique_singleEDpOT0_, symObjAddr: 0x2DB98, symBinAddr: 0x992F4, symSize: 0x5C }
  - { offset: 0x433162, size: 0x8, addend: 0x0, symName: __ZNSt3__111make_uniqueB8ne190102I19llm_build_codeshellJRK11llama_modelRK16llm_graph_paramsEEENS_11__unique_ifIT_E15__unique_singleEDpOT0_, symObjAddr: 0x2D690, symBinAddr: 0x98DEC, symSize: 0x5C }
  - { offset: 0x433256, size: 0x8, addend: 0x0, symName: __ZNSt3__111make_uniqueB8ne190102I20llm_build_rwkv6qwen2JRK11llama_modelRK16llm_graph_paramsEEENS_11__unique_ifIT_E15__unique_singleEDpOT0_, symObjAddr: 0x2E438, symBinAddr: 0x99B94, symSize: 0x5C }
  - { offset: 0x43334A, size: 0x8, addend: 0x0, symName: __ZNSt3__111make_uniqueB8ne190102I19llm_build_command_rJRK11llama_modelRK16llm_graph_paramsEEENS_11__unique_ifIT_E15__unique_singleEDpOT0_, symObjAddr: 0x2DB3C, symBinAddr: 0x99298, symSize: 0x5C }
  - { offset: 0x43343E, size: 0x8, addend: 0x0, symName: __ZNSt3__111make_uniqueB8ne190102I20llm_build_qwen3vlmoeJRK11llama_modelRK16llm_graph_paramsEEENS_11__unique_ifIT_E15__unique_singleEDpOT0_, symObjAddr: 0x2D40C, symBinAddr: 0x98B68, symSize: 0x5C }
  - { offset: 0x433532, size: 0x8, addend: 0x0, symName: __ZNSt3__111make_uniqueB8ne190102I18llm_build_stablelmJRK11llama_modelRK16llm_graph_paramsEEENS_11__unique_ifIT_E15__unique_singleEDpOT0_, symObjAddr: 0x2D018, symBinAddr: 0x98774, symSize: 0x5C }
  - { offset: 0x433626, size: 0x8, addend: 0x0, symName: __ZNSt3__111make_uniqueB8ne190102I15llm_build_jambaJRK11llama_modelRK16llm_graph_paramsEEENS_11__unique_ifIT_E15__unique_singleEDpOT0_, symObjAddr: 0x2DA84, symBinAddr: 0x991E0, symSize: 0x5C }
  - { offset: 0x43371A, size: 0x8, addend: 0x0, symName: __ZNSt3__111make_uniqueB8ne190102I15llm_build_rwkv7JRK11llama_modelRK16llm_graph_paramsEEENS_11__unique_ifIT_E15__unique_singleEDpOT0_, symObjAddr: 0x2E494, symBinAddr: 0x99BF0, symSize: 0x5C }
  - { offset: 0x43380E, size: 0x8, addend: 0x0, symName: __ZNSt3__111make_uniqueB8ne190102I17llm_build_qwen2vlJRK11llama_modelRK16llm_graph_paramsEEENS_11__unique_ifIT_E15__unique_singleEDpOT0_, symObjAddr: 0x2D240, symBinAddr: 0x9899C, symSize: 0x5C }
  - { offset: 0x433902, size: 0x8, addend: 0x0, symName: __ZNSt3__111make_uniqueB8ne190102I18llm_build_qwen3moeJRK11llama_modelRK16llm_graph_paramsEEENS_11__unique_ifIT_E15__unique_singleEDpOT0_, symObjAddr: 0x2D354, symBinAddr: 0x98AB0, symSize: 0x5C }
  - { offset: 0x4339F6, size: 0x8, addend: 0x0, symName: __ZNSt3__111make_uniqueB8ne190102I16llm_build_arwkv7JRK11llama_modelRK16llm_graph_paramsEEENS_11__unique_ifIT_E15__unique_singleEDpOT0_, symObjAddr: 0x2E4F0, symBinAddr: 0x99C4C, symSize: 0x5C }
  - { offset: 0x433AEA, size: 0x8, addend: 0x0, symName: __ZNSt3__111make_uniqueB8ne190102I14llm_build_grokJRK11llama_modelRK16llm_graph_paramsEEENS_11__unique_ifIT_E15__unique_singleEDpOT0_, symObjAddr: 0x2CDF0, symBinAddr: 0x9854C, symSize: 0x5C }
  - { offset: 0x433BDE, size: 0x8, addend: 0x0, symName: __ZNSt3__111make_uniqueB8ne190102I14llm_build_phi2JRK11llama_modelRK16llm_graph_paramsEEENS_11__unique_ifIT_E15__unique_singleEDpOT0_, symObjAddr: 0x2D468, symBinAddr: 0x98BC4, symSize: 0x5C }
  - { offset: 0x433CD2, size: 0x8, addend: 0x0, symName: __ZNSt3__111make_uniqueB8ne190102I21llm_build_gemma2_iswaJRK11llama_modelRK16llm_graph_paramsEEENS_11__unique_ifIT_E15__unique_singleEDpOT0_, symObjAddr: 0x2D85C, symBinAddr: 0x98FB8, symSize: 0x5C }
  - { offset: 0x433DC6, size: 0x8, addend: 0x0, symName: __ZNSt3__111make_uniqueB8ne190102I19llm_build_starcoderJRK11llama_modelRK16llm_graph_paramsEEENS_11__unique_ifIT_E15__unique_singleEDpOT0_, symObjAddr: 0x2CE4C, symBinAddr: 0x985A8, symSize: 0x5C }
  - { offset: 0x433EBA, size: 0x8, addend: 0x0, symName: __ZNSt3__111make_uniqueB8ne190102I18llm_build_baichuanJRK11llama_modelRK16llm_graph_paramsEEENS_11__unique_ifIT_E15__unique_singleEDpOT0_, symObjAddr: 0x2CD38, symBinAddr: 0x98494, symSize: 0x5C }
  - { offset: 0x433FAE, size: 0x8, addend: 0x0, symName: __ZNSt3__111make_uniqueB8ne190102I16llm_build_refactJRK11llama_modelRK16llm_graph_paramsEEENS_11__unique_ifIT_E15__unique_singleEDpOT0_, symObjAddr: 0x2CEA8, symBinAddr: 0x98604, symSize: 0x5C }
  - { offset: 0x4340A2, size: 0x8, addend: 0x0, symName: __ZNSt3__111make_uniqueB8ne190102I14llm_build_gpt2JRK11llama_modelRK16llm_graph_paramsEEENS_11__unique_ifIT_E15__unique_singleEDpOT0_, symObjAddr: 0x2D634, symBinAddr: 0x98D90, symSize: 0x5C }
  - { offset: 0x434196, size: 0x8, addend: 0x0, symName: __ZNSt3__111make_uniqueB8ne190102I16llm_build_falconJRK11llama_modelRK16llm_graph_paramsEEENS_11__unique_ifIT_E15__unique_singleEDpOT0_, symObjAddr: 0x2CD94, symBinAddr: 0x984F0, symSize: 0x5C }
  - { offset: 0x43428A, size: 0x8, addend: 0x0, symName: __ZNSt3__111make_uniqueB8ne190102I13llm_build_mptJRK11llama_modelRK16llm_graph_paramsEEENS_11__unique_ifIT_E15__unique_singleEDpOT0_, symObjAddr: 0x2CFBC, symBinAddr: 0x98718, symSize: 0x5C }
  - { offset: 0x43437E, size: 0x8, addend: 0x0, symName: __ZNSt3__111make_uniqueB8ne190102I20llm_build_nemotron_hJRK11llama_modelRK16llm_graph_paramsEEENS_11__unique_ifIT_E15__unique_singleEDpOT0_, symObjAddr: 0x2E26C, symBinAddr: 0x999C8, symSize: 0x5C }
  - { offset: 0x434472, size: 0x8, addend: 0x0, symName: __ZNSt3__111make_uniqueB8ne190102I14llm_build_deciJRK11llama_modelRK16llm_graph_paramsEEENS_11__unique_ifIT_E15__unique_singleEDpOT0_, symObjAddr: 0x2CCDC, symBinAddr: 0x98438, symSize: 0x5C }
  - { offset: 0x434566, size: 0x8, addend: 0x0, symName: __ZNSt3__111make_uniqueB8ne190102I13llm_build_plmJRK11llama_modelRK16llm_graph_paramsEEENS_11__unique_ifIT_E15__unique_singleEDpOT0_, symObjAddr: 0x2E660, symBinAddr: 0x99DBC, symSize: 0x5C }
  - { offset: 0x43465A, size: 0x8, addend: 0x0, symName: __ZNSt3__111make_uniqueB8ne190102I20llm_build_starcoder2JRK11llama_modelRK16llm_graph_paramsEEENS_11__unique_ifIT_E15__unique_singleEDpOT0_, symObjAddr: 0x2D9CC, symBinAddr: 0x99128, symSize: 0x5C }
  - { offset: 0x43474E, size: 0x8, addend: 0x0, symName: __ZNSt3__111make_uniqueB8ne190102I17llm_build_qwen3vlJRK11llama_modelRK16llm_graph_paramsEEENS_11__unique_ifIT_E15__unique_singleEDpOT0_, symObjAddr: 0x2D3B0, symBinAddr: 0x98B0C, symSize: 0x5C }
  - { offset: 0x434842, size: 0x8, addend: 0x0, symName: __ZNSt3__111make_uniqueB8ne190102I18llm_build_neo_bertJRK11llama_modelRK16llm_graph_paramsEEENS_11__unique_ifIT_E15__unique_singleEDpOT0_, symObjAddr: 0x2CF04, symBinAddr: 0x98660, symSize: 0x5C }
  - { offset: 0x434936, size: 0x8, addend: 0x0, symName: __ZNSt3__111make_uniqueB8ne190102I17llm_build_smollm3JRK11llama_modelRK16llm_graph_paramsEEENS_11__unique_ifIT_E15__unique_singleEDpOT0_, symObjAddr: 0x2E9F8, symBinAddr: 0x9A154, symSize: 0x5C }
  - { offset: 0x434A2A, size: 0x8, addend: 0x0, symName: __ZNSt3__111make_uniqueB8ne190102I15llm_build_bloomJRK11llama_modelRK16llm_graph_paramsEEENS_11__unique_ifIT_E15__unique_singleEDpOT0_, symObjAddr: 0x2CF60, symBinAddr: 0x986BC, symSize: 0x5C }
  - { offset: 0x434B1E, size: 0x8, addend: 0x0, symName: __ZNSt3__111make_uniqueB8ne190102I20llm_build_llama_iswaJRK11llama_modelRK16llm_graph_paramsEEENS_11__unique_ifIT_E15__unique_singleEDpOT0_, symObjAddr: 0x2CC80, symBinAddr: 0x983DC, symSize: 0x5C }
  - { offset: 0x434C12, size: 0x8, addend: 0x0, symName: __ZNSt3__111make_uniqueB8ne190102I15llm_build_llamaJRK11llama_modelRK16llm_graph_paramsEEENS_11__unique_ifIT_E15__unique_singleEDpOT0_, symObjAddr: 0x2CC24, symBinAddr: 0x98380, symSize: 0x5C }
  - { offset: 0x434D06, size: 0x8, addend: 0x0, symName: __ZNSt3__111make_uniqueB8ne190102I15llm_build_qwen3JRK11llama_modelRK16llm_graph_paramsEEENS_11__unique_ifIT_E15__unique_singleEDpOT0_, symObjAddr: 0x2D2F8, symBinAddr: 0x98A54, symSize: 0x5C }
  - { offset: 0x434DFA, size: 0x8, addend: 0x0, symName: __ZNSt3__111make_uniqueB8ne190102I14llm_build_olmoJRK11llama_modelRK16llm_graph_paramsEEENS_11__unique_ifIT_E15__unique_singleEDpOT0_, symObjAddr: 0x2DC50, symBinAddr: 0x993AC, symSize: 0x5C }
  - { offset: 0x434EEE, size: 0x8, addend: 0x0, symName: __ZNSt3__111make_uniqueB8ne190102I14llm_build_qwenJRK11llama_modelRK16llm_graph_paramsEEENS_11__unique_ifIT_E15__unique_singleEDpOT0_, symObjAddr: 0x2D074, symBinAddr: 0x987D0, symSize: 0x5C }
  - { offset: 0x434FE2, size: 0x8, addend: 0x0, symName: __ZNSt3__111make_uniqueB8ne190102I17llm_build_gptneoxJRK11llama_modelRK16llm_graph_paramsEEENS_11__unique_ifIT_E15__unique_singleEDpOT0_, symObjAddr: 0x2DE1C, symBinAddr: 0x99578, symSize: 0x5C }
  - { offset: 0x4350D6, size: 0x8, addend: 0x0, symName: __ZNSt3__111make_uniqueB8ne190102I15llm_build_qwen2JRK11llama_modelRK16llm_graph_paramsEEENS_11__unique_ifIT_E15__unique_singleEDpOT0_, symObjAddr: 0x2D0D0, symBinAddr: 0x9882C, symSize: 0x5C }
  - { offset: 0x4351CA, size: 0x8, addend: 0x0, symName: __ZNSt3__111make_uniqueB8ne190102I21llm_build_gemma3_iswaJRK11llama_modelRK16llm_graph_paramsEEENS_11__unique_ifIT_E15__unique_singleEDpOT0_, symObjAddr: 0x2D8B8, symBinAddr: 0x99014, symSize: 0x5C }
  - { offset: 0x4352BE, size: 0x8, addend: 0x0, symName: __ZNSt3__111make_uniqueB8ne190102I15llm_build_gemmaJRK11llama_modelRK16llm_graph_paramsEEENS_11__unique_ifIT_E15__unique_singleEDpOT0_, symObjAddr: 0x2D800, symBinAddr: 0x98F5C, symSize: 0x5C }
  - { offset: 0x4353B2, size: 0x8, addend: 0x0, symName: __ZNSt3__111make_uniqueB8ne190102I19llm_build_falcon_h1JRK11llama_modelRK16llm_graph_paramsEEENS_11__unique_ifIT_E15__unique_singleEDpOT0_, symObjAddr: 0x2EAB0, symBinAddr: 0x9A20C, symSize: 0x5C }
  - { offset: 0x4354A6, size: 0x8, addend: 0x0, symName: __ZNSt3__111make_uniqueB8ne190102I18llm_build_minicpm3JRK11llama_modelRK16llm_graph_paramsEEENS_11__unique_ifIT_E15__unique_singleEDpOT0_, symObjAddr: 0x2D7A4, symBinAddr: 0x98F00, symSize: 0x5C }
  - { offset: 0x43559A, size: 0x8, addend: 0x0, symName: __ZNSt3__111make_uniqueB8ne190102I17llm_build_openelmJRK11llama_modelRK16llm_graph_paramsEEENS_11__unique_ifIT_E15__unique_singleEDpOT0_, symObjAddr: 0x2DDC0, symBinAddr: 0x9951C, symSize: 0x5C }
  - { offset: 0x43568E, size: 0x8, addend: 0x0, symName: __ZNSt3__111make_uniqueB8ne190102I18llm_build_seed_ossJRK11llama_modelRK16llm_graph_paramsEEENS_11__unique_ifIT_E15__unique_singleEDpOT0_, symObjAddr: 0x2E774, symBinAddr: 0x99ED0, symSize: 0x5C }
  - { offset: 0x435782, size: 0x8, addend: 0x0, symName: __ZNSt3__111make_uniqueB8ne190102I18llm_build_qwen2moeJRK11llama_modelRK16llm_graph_paramsEEENS_11__unique_ifIT_E15__unique_singleEDpOT0_, symObjAddr: 0x2D29C, symBinAddr: 0x989F8, symSize: 0x5C }
  - { offset: 0x435876, size: 0x8, addend: 0x0, symName: __ZNSt3__111make_uniqueB8ne190102I16llm_build_xverseJRK11llama_modelRK16llm_graph_paramsEEENS_11__unique_ifIT_E15__unique_singleEDpOT0_, symObjAddr: 0x2DAE0, symBinAddr: 0x9923C, symSize: 0x5C }
  - { offset: 0x43596A, size: 0x8, addend: 0x0, symName: __ZNSt3__111make_uniqueB8ne190102I17llm_build_exaone4ILb1EEJRK11llama_modelRK16llm_graph_paramsEEENS_11__unique_ifIT_E15__unique_singleEDpOT0_, symObjAddr: 0x2E324, symBinAddr: 0x99A80, symSize: 0x5C }
  - { offset: 0x435A5E, size: 0x8, addend: 0x0, symName: __ZNSt3__111make_uniqueB8ne190102I22llm_build_gemma3n_iswaJRK11llama_modelRK16llm_graph_paramsEEENS_11__unique_ifIT_E15__unique_singleEDpOT0_, symObjAddr: 0x2D914, symBinAddr: 0x99070, symSize: 0x5C }
  - { offset: 0x435B52, size: 0x8, addend: 0x0, symName: __ZNSt3__111make_uniqueB8ne190102I19llm_build_internlm2JRK11llama_modelRK16llm_graph_paramsEEENS_11__unique_ifIT_E15__unique_singleEDpOT0_, symObjAddr: 0x2D748, symBinAddr: 0x98EA4, symSize: 0x5C }
  - { offset: 0x435C46, size: 0x8, addend: 0x0, symName: __ZNSt3__111make_uniqueB8ne190102I15llm_build_orionJRK11llama_modelRK16llm_graph_paramsEEENS_11__unique_ifIT_E15__unique_singleEDpOT0_, symObjAddr: 0x2D6EC, symBinAddr: 0x98E48, symSize: 0x5C }
  - { offset: 0x435D3A, size: 0x8, addend: 0x0, symName: __ZNSt3__111make_uniqueB8ne190102I14llm_build_jaisJRK11llama_modelRK16llm_graph_paramsEEENS_11__unique_ifIT_E15__unique_singleEDpOT0_, symObjAddr: 0x2E1B4, symBinAddr: 0x99910, symSize: 0x5C }
  - { offset: 0x435E2E, size: 0x8, addend: 0x0, symName: __ZNSt3__111make_uniqueB8ne190102I22llm_build_ernie4_5_moeJRK11llama_modelRK16llm_graph_paramsEEENS_11__unique_ifIT_E15__unique_singleEDpOT0_, symObjAddr: 0x2E8E4, symBinAddr: 0x9A040, symSize: 0x5C }
  - { offset: 0x435F22, size: 0x8, addend: 0x0, symName: __ZNSt3__111make_uniqueB8ne190102I18llm_build_ernie4_5JRK11llama_modelRK16llm_graph_paramsEEENS_11__unique_ifIT_E15__unique_singleEDpOT0_, symObjAddr: 0x2E888, symBinAddr: 0x99FE4, symSize: 0x5C }
  - { offset: 0x436016, size: 0x8, addend: 0x0, symName: __ZNSt3__111make_uniqueB8ne190102I17llm_build_apertusJRK11llama_modelRK16llm_graph_paramsEEENS_11__unique_ifIT_E15__unique_singleEDpOT0_, symObjAddr: 0x2EC7C, symBinAddr: 0x9A3D8, symSize: 0x5C }
  - { offset: 0x43610A, size: 0x8, addend: 0x0, symName: __ZNSt3__111make_uniqueB8ne190102I18llm_build_deepseekJRK11llama_modelRK16llm_graph_paramsEEENS_11__unique_ifIT_E15__unique_singleEDpOT0_, symObjAddr: 0x2DED4, symBinAddr: 0x99630, symSize: 0x5C }
  - { offset: 0x4361FE, size: 0x8, addend: 0x0, symName: __ZNSt3__111make_uniqueB8ne190102I20llm_build_bailingmoeJRK11llama_modelRK16llm_graph_paramsEEENS_11__unique_ifIT_E15__unique_singleEDpOT0_, symObjAddr: 0x2E6BC, symBinAddr: 0x99E18, symSize: 0x5C }
  - { offset: 0x4362F2, size: 0x8, addend: 0x0, symName: __ZNSt3__111make_uniqueB8ne190102I26llm_build_wavtokenizer_decJRK11llama_modelRK16llm_graph_paramsEEENS_11__unique_ifIT_E15__unique_singleEDpOT0_, symObjAddr: 0x2E604, symBinAddr: 0x99D60, symSize: 0x5C }
  - { offset: 0x4363E6, size: 0x8, addend: 0x0, symName: __ZNSt3__111make_uniqueB8ne190102I16llm_build_cogvlmJRK11llama_modelRK16llm_graph_paramsEEENS_11__unique_ifIT_E15__unique_singleEDpOT0_, symObjAddr: 0x2ED34, symBinAddr: 0x9A490, symSize: 0x5C }
  - { offset: 0x4364DA, size: 0x8, addend: 0x0, symName: __ZNSt3__111make_uniqueB8ne190102I15llm_build_dreamJRK11llama_modelRK16llm_graph_paramsEEENS_11__unique_ifIT_E15__unique_singleEDpOT0_, symObjAddr: 0x2D12C, symBinAddr: 0x98888, symSize: 0x5C }
  - { offset: 0x4365CE, size: 0x8, addend: 0x0, symName: __ZNSt3__111make_uniqueB8ne190102I17llm_build_chatglmJRK11llama_modelRK16llm_graph_paramsEEENS_11__unique_ifIT_E15__unique_singleEDpOT0_, symObjAddr: 0x2DF8C, symBinAddr: 0x996E8, symSize: 0x5C }
  - { offset: 0x4366C2, size: 0x8, addend: 0x0, symName: __ZNSt3__111make_uniqueB8ne190102I15llm_build_rwkv6JRK11llama_modelRK16llm_graph_paramsEEENS_11__unique_ifIT_E15__unique_singleEDpOT0_, symObjAddr: 0x2E3DC, symBinAddr: 0x99B38, symSize: 0x5C }
  - { offset: 0x4367B6, size: 0x8, addend: 0x0, symName: __ZNSt3__111make_uniqueB8ne190102I16llm_build_exaoneJRK11llama_modelRK16llm_graph_paramsEEENS_11__unique_ifIT_E15__unique_singleEDpOT0_, symObjAddr: 0x2E2C8, symBinAddr: 0x99A24, symSize: 0x5C }
  - { offset: 0x4368AA, size: 0x8, addend: 0x0, symName: __ZNSt3__111make_uniqueB8ne190102I18llm_build_nemotronJRK11llama_modelRK16llm_graph_paramsEEENS_11__unique_ifIT_E15__unique_singleEDpOT0_, symObjAddr: 0x2E210, symBinAddr: 0x9996C, symSize: 0x5C }
  - { offset: 0x43699E, size: 0x8, addend: 0x0, symName: __ZNSt3__111make_uniqueB8ne190102I24llm_build_granite_hybridJRK11llama_modelRK16llm_graph_paramsEEENS_11__unique_ifIT_E15__unique_singleEDpOT0_, symObjAddr: 0x2E54C, symBinAddr: 0x99CA8, symSize: 0x5C }
  - { offset: 0x436A92, size: 0x8, addend: 0x0, symName: __ZNSt3__111make_uniqueB8ne190102I18llm_build_grovemoeJRK11llama_modelRK16llm_graph_paramsEEENS_11__unique_ifIT_E15__unique_singleEDpOT0_, symObjAddr: 0x2EC20, symBinAddr: 0x9A37C, symSize: 0x5C }
  - { offset: 0x436B86, size: 0x8, addend: 0x0, symName: __ZNSt3__111make_uniqueB8ne190102I15llm_build_lladaJRK11llama_modelRK16llm_graph_paramsEEENS_11__unique_ifIT_E15__unique_singleEDpOT0_, symObjAddr: 0x2D188, symBinAddr: 0x988E4, symSize: 0x5C }
  - { offset: 0x436C7A, size: 0x8, addend: 0x0, symName: __ZNSt3__111make_uniqueB8ne190102I14llm_build_phi3ILb0EEJRK11llama_modelRK16llm_graph_paramsEEENS_11__unique_ifIT_E15__unique_singleEDpOT0_, symObjAddr: 0x2D520, symBinAddr: 0x98C7C, symSize: 0x5C }
  - { offset: 0x436D6E, size: 0x8, addend: 0x0, symName: __ZNSt3__111make_uniqueB8ne190102I22llm_build_smallthinkerILb0EEJRK11llama_modelRK16llm_graph_paramsEEENS_11__unique_ifIT_E15__unique_singleEDpOT0_, symObjAddr: 0x2EBC4, symBinAddr: 0x9A320, symSize: 0x5C }
  - { offset: 0x436E62, size: 0x8, addend: 0x0, symName: __ZNSt3__111make_uniqueB8ne190102I15llm_build_olmo2ILb0EEJRK11llama_modelRK16llm_graph_paramsEEENS_11__unique_ifIT_E15__unique_singleEDpOT0_, symObjAddr: 0x2DD08, symBinAddr: 0x99464, symSize: 0x5C }
  - { offset: 0x436F56, size: 0x8, addend: 0x0, symName: __ZNSt3__111make_uniqueB8ne190102I17llm_build_exaone4ILb0EEJRK11llama_modelRK16llm_graph_paramsEEENS_11__unique_ifIT_E15__unique_singleEDpOT0_, symObjAddr: 0x2E380, symBinAddr: 0x99ADC, symSize: 0x5C }
  - { offset: 0x43704A, size: 0x8, addend: 0x0, symName: __ZNSt3__111make_uniqueB8ne190102I16llm_build_t5_encJRK11llama_modelRK16llm_graph_paramsEEENS_11__unique_ifIT_E15__unique_singleEDpOT0_, symObjAddr: 0x2E0FC, symBinAddr: 0x99858, symSize: 0x5C }
  - { offset: 0x446333, size: 0x8, addend: 0x0, symName: __ZN11llama_model12load_tensorsER18llama_model_loader, symObjAddr: 0x4CF8, symBinAddr: 0x70464, symSize: 0x243A4 }
  - { offset: 0x477C1C, size: 0x8, addend: 0x0, symName: __ZNK11llama_model10print_infoEv, symObjAddr: 0x2A388, symBinAddr: 0x95AE4, symSize: 0x1140 }
  - { offset: 0x47AEF6, size: 0x8, addend: 0x0, symName: __ZNK11llama_model13create_memoryERK19llama_memory_paramsRK13llama_cparams, symObjAddr: 0x2BC90, symBinAddr: 0x973EC, symSize: 0x51C }
  - { offset: 0x48438D, size: 0x8, addend: 0x0, symName: __Z13llm_type_name8llm_type, symObjAddr: 0x0, symBinAddr: 0x6B7DC, symSize: 0x28 }
  - { offset: 0x48442D, size: 0x8, addend: 0x0, symName: __ZNSt3__13mapI23llama_rope_scaling_typePKcNS_4lessIS1_EENS_9allocatorINS_4pairIKS1_S3_EEEEED1B8ne190102Ev, symObjAddr: 0x28, symBinAddr: 0x6B804, symSize: 0x28 }
  - { offset: 0x4844E1, size: 0x8, addend: 0x0, symName: __ZNSt3__16__treeINS_12__value_typeI23llama_rope_scaling_typePKcEENS_19__map_value_compareIS2_S5_NS_4lessIS2_EELb1EEENS_9allocatorIS5_EEE7destroyEPNS_11__tree_nodeIS5_PvEE, symObjAddr: 0x3B874, symBinAddr: 0x9EF98, symSize: 0x44 }
  - { offset: 0x484907, size: 0x8, addend: 0x0, symName: __Z28llama_rope_scaling_type_name23llama_rope_scaling_type, symObjAddr: 0x50, symBinAddr: 0x6B82C, symSize: 0xE4 }
  - { offset: 0x484C39, size: 0x8, addend: 0x0, symName: __ZN11llama_modelC2ERK18llama_model_params, symObjAddr: 0x134, symBinAddr: 0x6B910, symSize: 0x2C0 }
  - { offset: 0x4853DB, size: 0x8, addend: 0x0, symName: __ZN11llama_modelC2ERK18llama_model_params, symObjAddr: 0x134, symBinAddr: 0x6B910, symSize: 0x2C0 }
  - { offset: 0x485BFB, size: 0x8, addend: 0x0, symName: __ZNSt3__16vectorINS_4pairINS_12basic_stringIcNS_11char_traitsIcEENS_9allocatorIcEEEEP11ggml_tensorEENS5_ISA_EEED1B8ne190102Ev, symObjAddr: 0x3F4, symBinAddr: 0x6BBD0, symSize: 0x70 }
  - { offset: 0x485EA1, size: 0x8, addend: 0x0, symName: __ZNSt3__113unordered_mapINS_12basic_stringIcNS_11char_traitsIcEENS_9allocatorIcEEEES6_NS_4hashIS6_EENS_8equal_toIS6_EENS4_INS_4pairIKS6_S6_EEEEED1B8ne190102Ev, symObjAddr: 0x464, symBinAddr: 0x6BC40, symSize: 0x84 }
  - { offset: 0x486A4D, size: 0x8, addend: 0x0, symName: __ZN11llama_modelC1ERK18llama_model_params, symObjAddr: 0x558, symBinAddr: 0x6BCC4, symSize: 0x4 }
  - { offset: 0x486A8A, size: 0x8, addend: 0x0, symName: __ZN11llama_modelC1ERK18llama_model_params, symObjAddr: 0x558, symBinAddr: 0x6BCC4, symSize: 0x4 }
  - { offset: 0x486B94, size: 0x8, addend: 0x0, symName: __ZN11llama_modelD2Ev, symObjAddr: 0x55C, symBinAddr: 0x6BCC8, symSize: 0x178 }
  - { offset: 0x487AAD, size: 0x8, addend: 0x0, symName: __ZN11llama_model4implD2Ev, symObjAddr: 0x3B8B8, symBinAddr: 0x9EFDC, symSize: 0x16C }
  - { offset: 0x48863E, size: 0x8, addend: 0x0, symName: __ZN11llama_modelD1Ev, symObjAddr: 0x6D4, symBinAddr: 0x6BE40, symSize: 0x4 }
  - { offset: 0x488661, size: 0x8, addend: 0x0, symName: __ZN11llama_modelD1Ev, symObjAddr: 0x6D4, symBinAddr: 0x6BE40, symSize: 0x4 }
  - { offset: 0x48868F, size: 0x8, addend: 0x0, symName: __ZN11llama_model10load_statsER18llama_model_loader, symObjAddr: 0x6D8, symBinAddr: 0x6BE44, symSize: 0x10 }
  - { offset: 0x4886C7, size: 0x8, addend: 0x0, symName: __ZN11llama_model10load_statsER18llama_model_loader, symObjAddr: 0x6D8, symBinAddr: 0x6BE44, symSize: 0x10 }
  - { offset: 0x488738, size: 0x8, addend: 0x0, symName: __ZN11llama_model9load_archER18llama_model_loader, symObjAddr: 0x6E8, symBinAddr: 0x6BE54, symSize: 0x174 }
  - { offset: 0x488E60, size: 0x8, addend: 0x0, symName: __ZN11llama_model12load_hparamsER18llama_model_loader, symObjAddr: 0x85C, symBinAddr: 0x6BFC8, symSize: 0x4288 }
  - { offset: 0x48BA86, size: 0x8, addend: 0x0, symName: _llama_model_rope_type, symObjAddr: 0x4C3C, symBinAddr: 0x703A8, symSize: 0x6C }
  - { offset: 0x48BAB4, size: 0x8, addend: 0x0, symName: __ZN11llama_model10load_vocabER18llama_model_loader, symObjAddr: 0x4CA8, symBinAddr: 0x70414, symSize: 0x50 }
  - { offset: 0x48BAEA, size: 0x8, addend: 0x0, symName: __ZNK11llama_model9arch_nameEv, symObjAddr: 0x4AE4, symBinAddr: 0x70250, symSize: 0xAC }
  - { offset: 0x48BD4C, size: 0x8, addend: 0x0, symName: __ZNK11llama_model9type_nameEv, symObjAddr: 0x4B90, symBinAddr: 0x702FC, symSize: 0xAC }
  - { offset: 0x48BD5E, size: 0x8, addend: 0x0, symName: __ZNK11llama_model9type_nameEv, symObjAddr: 0x4B90, symBinAddr: 0x702FC, symSize: 0xAC }
  - { offset: 0x48BFC0, size: 0x8, addend: 0x0, symName: _llama_model_rope_type, symObjAddr: 0x4C3C, symBinAddr: 0x703A8, symSize: 0x6C }
  - { offset: 0x48BFD2, size: 0x8, addend: 0x0, symName: __ZN11llama_model10load_vocabER18llama_model_loader, symObjAddr: 0x4CA8, symBinAddr: 0x70414, symSize: 0x50 }
  - { offset: 0x48F94D, size: 0x8, addend: 0x0, symName: __ZNSt3__16vectorINS_4pairIP19ggml_backend_deviceP24ggml_backend_buffer_typeEENS_9allocatorIS6_EEE18__insert_with_sizeB8ne190102INS_11__wrap_iterIPS6_EESD_EESD_NSB_IPKS6_EET_T0_l, symObjAddr: 0x3C83C, symBinAddr: 0x9F240, symSize: 0x354 }
  - { offset: 0x490273, size: 0x8, addend: 0x0, symName: __ZNSt3__16vectorIN11llama_model4impl9layer_devENS_9allocatorIS3_EEE8__appendEm, symObjAddr: 0x3CBA4, symBinAddr: 0x9F594, symSize: 0x124 }
  - { offset: 0x490670, size: 0x8, addend: 0x0, symName: __ZNKSt3__16vectorIN11llama_model4impl9layer_devENS_9allocatorIS3_EEE20__throw_length_errorB8ne190102Ev, symObjAddr: 0x3CCC8, symBinAddr: 0x9F6B8, symSize: 0x14 }
  - { offset: 0x49068A, size: 0x8, addend: 0x0, symName: '__ZZN11llama_model12load_tensorsER18llama_model_loaderENK3$_1clEi', symObjAddr: 0x290B0, symBinAddr: 0x9481C, symSize: 0x1C0 }
  - { offset: 0x4909C8, size: 0x8, addend: 0x0, symName: __ZNSt3__16vectorI11llama_layerNS_9allocatorIS1_EEE6resizeEm, symObjAddr: 0x29270, symBinAddr: 0x949DC, symSize: 0x44 }
  - { offset: 0x4909E0, size: 0x8, addend: 0x0, symName: __ZNSt3__16vectorI11llama_layerNS_9allocatorIS1_EEE8__appendEm, symObjAddr: 0x3CD44, symBinAddr: 0x9F734, symSize: 0x1B0 }
  - { offset: 0x490E0A, size: 0x8, addend: 0x0, symName: __ZNKSt3__16vectorI11llama_layerNS_9allocatorIS1_EEE20__throw_length_errorB8ne190102Ev, symObjAddr: 0x3CEF4, symBinAddr: 0x9F8E4, symSize: 0x14 }
  - { offset: 0x490E3D, size: 0x8, addend: 0x0, symName: '__ZZN11llama_model12load_tensorsER18llama_model_loaderENK3$_3clERK11LLM_TN_IMPLRKSt16initializer_listIxEi', symObjAddr: 0x292B4, symBinAddr: 0x94A20, symSize: 0xB0C }
  - { offset: 0x493085, size: 0x8, addend: 0x0, symName: __ZNSt3__16vectorI11llama_layerNS_9allocatorIS1_EEE6resizeEm, symObjAddr: 0x29270, symBinAddr: 0x949DC, symSize: 0x44 }
  - { offset: 0x4930B9, size: 0x8, addend: 0x0, symName: __ZNSt3__16vectorI11llama_layerNS_9allocatorIS1_EEE6resizeEm, symObjAddr: 0x29270, symBinAddr: 0x949DC, symSize: 0x44 }
  - { offset: 0x49314F, size: 0x8, addend: 0x0, symName: __ZNSt3__16vectorINS_4pairIP12ggml_contextNS_13unordered_mapIjP19ggml_backend_bufferNS_4hashIjEENS_8equal_toIjEENS_9allocatorINS1_IKjS6_EEEEEEEENSB_ISG_EEE7reserveEm, symObjAddr: 0x29DD0, symBinAddr: 0x9552C, symSize: 0x108 }
  - { offset: 0x4937A9, size: 0x8, addend: 0x0, symName: __ZNSt3__114__split_bufferINS_4pairINS_10unique_ptrI12ggml_context20ggml_context_deleterEENS_6vectorINS2_I19ggml_backend_buffer27ggml_backend_buffer_deleterEENS_9allocatorIS9_EEEEEERNSA_ISD_EEE17__destruct_at_endB8ne190102EPSD_, symObjAddr: 0x3D10C, symBinAddr: 0x9FAE8, symSize: 0xB4 }
  - { offset: 0x493AD4, size: 0x8, addend: 0x0, symName: __ZNSt3__112__hash_tableINS_17__hash_value_typeIjP19ggml_backend_bufferEENS_22__unordered_map_hasherIjS4_NS_4hashIjEENS_8equal_toIjEELb1EEENS_21__unordered_map_equalIjS4_S9_S7_Lb1EEENS_9allocatorIS4_EEE11__do_rehashILb1EEEvm, symObjAddr: 0x3D208, symBinAddr: 0x9FBE4, symSize: 0x1A0 }
  - { offset: 0x493F70, size: 0x8, addend: 0x0, symName: __ZNSt3__112__hash_tableINS_17__hash_value_typeIjP19ggml_backend_bufferEENS_22__unordered_map_hasherIjS4_NS_4hashIjEENS_8equal_toIjEELb1EEENS_21__unordered_map_equalIjS4_S9_S7_Lb1EEENS_9allocatorIS4_EEE25__emplace_unique_key_argsIjJRjRS3_EEENS_4pairINS_15__hash_iteratorIPNS_11__hash_nodeIS4_PvEEEEbEERKT_DpOT0_, symObjAddr: 0x3D3F0, symBinAddr: 0x9FD84, symSize: 0x304 }
  - { offset: 0x49476C, size: 0x8, addend: 0x0, symName: __ZNSt3__16vectorINS_4pairINS_10unique_ptrI12ggml_context20ggml_context_deleterEENS0_INS2_I19ggml_backend_buffer27ggml_backend_buffer_deleterEENS_9allocatorIS8_EEEEEENS9_ISC_EEE24__emplace_back_slow_pathIJS5_SB_EEEPSC_DpOT_, symObjAddr: 0x3D708, symBinAddr: 0xA0088, symSize: 0x120 }
  - { offset: 0x494D13, size: 0x8, addend: 0x0, symName: __ZNSt3__16vectorINS_4pairIP12ggml_contextNS_13unordered_mapIjP19ggml_backend_bufferNS_4hashIjEENS_8equal_toIjEENS_9allocatorINS1_IKjS6_EEEEEEEENSB_ISG_EEE24__emplace_back_slow_pathIJRS3_RSF_EEEPSG_DpOT_, symObjAddr: 0x3D828, symBinAddr: 0xA01A8, symSize: 0x174 }
  - { offset: 0x494D40, size: 0x8, addend: 0x0, symName: __ZNSt3__113unordered_mapIjP19ggml_backend_bufferNS_4hashIjEENS_8equal_toIjEENS_9allocatorINS_4pairIKjS2_EEEEEC2ERKSC_, symObjAddr: 0x3D99C, symBinAddr: 0xA031C, symSize: 0x140 }
  - { offset: 0x49512E, size: 0x8, addend: 0x0, symName: __ZNSt3__16vectorINS_4pairIP12ggml_contextNS_13unordered_mapIjP19ggml_backend_bufferNS_4hashIjEENS_8equal_toIjEENS_9allocatorINS1_IKjS6_EEEEEEEENSB_ISG_EEE24__emplace_back_slow_pathIJRS3_RSF_EEEPSG_DpOT_, symObjAddr: 0x3D828, symBinAddr: 0xA01A8, symSize: 0x174 }
  - { offset: 0x49596B, size: 0x8, addend: 0x0, symName: __ZNSt3__16vectorINS_4pairINS_12basic_stringIcNS_11char_traitsIcEENS_9allocatorIcEEEEP11ggml_tensorEENS5_ISA_EEE24__emplace_back_slow_pathIJPKcRS9_EEEPSA_DpOT_, symObjAddr: 0x3DDE0, symBinAddr: 0xA0760, symSize: 0x190 }
  - { offset: 0x49600A, size: 0x8, addend: 0x0, symName: __ZNSt3__16__treeINS_12__value_typeIP24ggml_backend_buffer_typeNS_10unique_ptrI12ggml_context20ggml_context_deleterEEEENS_19__map_value_compareIS3_S8_ZN11llama_model12load_tensorsER18llama_model_loaderE28ggml_backend_buft_comparatorLb1EEENS_9allocatorIS8_EEE7destroyEPNS_11__tree_nodeIS8_PvEE, symObjAddr: 0x3CCDC, symBinAddr: 0x9F6CC, symSize: 0x54 }
  - { offset: 0x496228, size: 0x8, addend: 0x0, symName: __ZNKSt3__16vectorINS_4pairIP19ggml_backend_deviceP24ggml_backend_buffer_typeEENS_9allocatorIS6_EEE20__throw_length_errorB8ne190102Ev, symObjAddr: 0x2F3DC, symBinAddr: 0x9AAB0, symSize: 0x14 }
  - { offset: 0x496275, size: 0x8, addend: 0x0, symName: __ZNSt3__112__hash_tableINS_17__hash_value_typeIjP19ggml_backend_bufferEENS_22__unordered_map_hasherIjS4_NS_4hashIjEENS_8equal_toIjEELb1EEENS_21__unordered_map_equalIjS4_S9_S7_Lb1EEENS_9allocatorIS4_EEE25__emplace_unique_key_argsIjJRjRS3_EEENS_4pairINS_15__hash_iteratorIPNS_11__hash_nodeIS4_PvEEEEbEERKT_DpOT0_, symObjAddr: 0x3D3F0, symBinAddr: 0x9FD84, symSize: 0x304 }
  - { offset: 0x496298, size: 0x8, addend: 0x0, symName: __ZNKSt3__16vectorINS_4pairIP12ggml_contextNS_13unordered_mapIjP19ggml_backend_bufferNS_4hashIjEENS_8equal_toIjEENS_9allocatorINS1_IKjS6_EEEEEEEENSB_ISG_EEE20__throw_length_errorB8ne190102Ev, symObjAddr: 0x3CF1C, symBinAddr: 0x9F8F8, symSize: 0x14 }
  - { offset: 0x4962BB, size: 0x8, addend: 0x0, symName: __ZNSt3__16vectorINS_4pairINS_10unique_ptrI12ggml_context20ggml_context_deleterEENS0_INS2_I19ggml_backend_buffer27ggml_backend_buffer_deleterEENS_9allocatorIS8_EEEEEENS9_ISC_EEE24__emplace_back_slow_pathIJS5_SB_EEEPSC_DpOT_, symObjAddr: 0x3D708, symBinAddr: 0xA0088, symSize: 0x120 }
  - { offset: 0x4962C6, size: 0x8, addend: 0x0, symName: __ZNKSt3__16vectorINS_4pairINS_10unique_ptrI12ggml_context20ggml_context_deleterEENS0_INS2_I19ggml_backend_buffer27ggml_backend_buffer_deleterEENS_9allocatorIS8_EEEEEENS9_ISC_EEE20__throw_length_errorB8ne190102Ev, symObjAddr: 0x3D0F8, symBinAddr: 0x9FAD4, symSize: 0x14 }
  - { offset: 0x4962F0, size: 0x8, addend: 0x0, symName: __ZNSt3__114__split_bufferINS_4pairINS_10unique_ptrI12ggml_context20ggml_context_deleterEENS_6vectorINS2_I19ggml_backend_buffer27ggml_backend_buffer_deleterEENS_9allocatorIS9_EEEEEERNSA_ISD_EEE17__destruct_at_endB8ne190102EPSD_, symObjAddr: 0x3D10C, symBinAddr: 0x9FAE8, symSize: 0xB4 }
  - { offset: 0x496313, size: 0x8, addend: 0x0, symName: __ZNSt3__16vectorIN11llama_model4impl9layer_devENS_9allocatorIS3_EEE8__appendEm, symObjAddr: 0x3CBA4, symBinAddr: 0x9F594, symSize: 0x124 }
  - { offset: 0x49631E, size: 0x8, addend: 0x0, symName: __ZNSt3__16vectorINS_10unique_ptrI19ggml_backend_buffer27ggml_backend_buffer_deleterEENS_9allocatorIS4_EEED1B8ne190102Ev, symObjAddr: 0x29ED8, symBinAddr: 0x95634, symSize: 0x70 }
  - { offset: 0x496506, size: 0x8, addend: 0x0, symName: __ZNSt3__113unordered_mapIjP19ggml_backend_bufferNS_4hashIjEENS_8equal_toIjEENS_9allocatorINS_4pairIKjS2_EEEEED1B8ne190102Ev, symObjAddr: 0x29F48, symBinAddr: 0x956A4, symSize: 0x48 }
  - { offset: 0x4967DA, size: 0x8, addend: 0x0, symName: __ZNSt3__16vectorINS_4pairIP12ggml_contextNS_13unordered_mapIjP19ggml_backend_bufferNS_4hashIjEENS_8equal_toIjEENS_9allocatorINS1_IKjS6_EEEEEEEENSB_ISG_EEED1B8ne190102Ev, symObjAddr: 0x29F90, symBinAddr: 0x956EC, symSize: 0x88 }
  - { offset: 0x496C64, size: 0x8, addend: 0x0, symName: __ZNK11llama_model9n_devicesEv, symObjAddr: 0x2909C, symBinAddr: 0x94808, symSize: 0x14 }
  - { offset: 0x496C88, size: 0x8, addend: 0x0, symName: __ZNK11llama_model9n_devicesEv, symObjAddr: 0x2909C, symBinAddr: 0x94808, symSize: 0x14 }
  - { offset: 0x496D9F, size: 0x8, addend: 0x0, symName: __ZNKSt3__16vectorIP19ggml_backend_deviceNS_9allocatorIS2_EEE20__throw_out_of_rangeB8ne190102Ev, symObjAddr: 0x2F48C, symBinAddr: 0x9AAC4, symSize: 0x14 }
  - { offset: 0x496DC9, size: 0x8, addend: 0x0, symName: __ZL18select_weight_buftRK13llama_hparamsP11ggml_tensor7ggml_opRKNSt3__16vectorINS5_4pairIP19ggml_backend_deviceP24ggml_backend_buffer_typeEENS5_9allocatorISC_EEEE, symObjAddr: 0x2F4A0, symBinAddr: 0x9AAD8, symSize: 0x6CC }
  - { offset: 0x4976E7, size: 0x8, addend: 0x0, symName: __ZNSt3__111basic_regexIcNS_12regex_traitsIcEEEC2B8ne190102EPKcNS_15regex_constants18syntax_option_typeE, symObjAddr: 0x2FBC8, symBinAddr: 0x9B1A4, symSize: 0xC8 }
  - { offset: 0x497C96, size: 0x8, addend: 0x0, symName: __ZL18select_weight_buftRK13llama_hparamsP11ggml_tensor7ggml_opRKNSt3__16vectorINS5_4pairIP19ggml_backend_deviceP24ggml_backend_buffer_typeEENS5_9allocatorISC_EEEE, symObjAddr: 0x2F4A0, symBinAddr: 0x9AAD8, symSize: 0x6CC }
  - { offset: 0x4988AF, size: 0x8, addend: 0x0, symName: __ZNKSt3__16vectorIN11llama_model4impl9layer_devENS_9allocatorIS3_EEE20__throw_out_of_rangeB8ne190102Ev, symObjAddr: 0x3CD30, symBinAddr: 0x9F720, symSize: 0x14 }
  - { offset: 0x4988D9, size: 0x8, addend: 0x0, symName: __ZNSt3__16vectorI11llama_layerNS_9allocatorIS1_EEE8__appendEm, symObjAddr: 0x3CD44, symBinAddr: 0x9F734, symSize: 0x1B0 }
  - { offset: 0x498BBD, size: 0x8, addend: 0x0, symName: __ZNSt3__16vectorINS_4pairIP12ggml_contextNS_13unordered_mapIjP19ggml_backend_bufferNS_4hashIjEENS_8equal_toIjEENS_9allocatorINS1_IKjS6_EEEEEEEENSB_ISG_EEE26__swap_out_circular_bufferERNS_14__split_bufferISG_RSH_EE, symObjAddr: 0x3CF30, symBinAddr: 0x9F90C, symSize: 0x14C }
  - { offset: 0x499322, size: 0x8, addend: 0x0, symName: __ZNKSt3__16vectorINS_4pairIP12ggml_contextNS_13unordered_mapIjP19ggml_backend_bufferNS_4hashIjEENS_8equal_toIjEENS_9allocatorINS1_IKjS6_EEEEEEEENSB_ISG_EEE20__throw_length_errorB8ne190102Ev, symObjAddr: 0x3CF1C, symBinAddr: 0x9F8F8, symSize: 0x14 }
  - { offset: 0x49934C, size: 0x8, addend: 0x0, symName: __ZNSt3__16vectorINS_4pairIP12ggml_contextNS_13unordered_mapIjP19ggml_backend_bufferNS_4hashIjEENS_8equal_toIjEENS_9allocatorINS1_IKjS6_EEEEEEEENSB_ISG_EEE26__swap_out_circular_bufferERNS_14__split_bufferISG_RSH_EE, symObjAddr: 0x3CF30, symBinAddr: 0x9F90C, symSize: 0x14C }
  - { offset: 0x499357, size: 0x8, addend: 0x0, symName: __ZNSt3__114__split_bufferINS_4pairIP12ggml_contextNS_13unordered_mapIjP19ggml_backend_bufferNS_4hashIjEENS_8equal_toIjEENS_9allocatorINS1_IKjS6_EEEEEEEERNSB_ISG_EEED1Ev, symObjAddr: 0x3D07C, symBinAddr: 0x9FA58, symSize: 0x7C }
  - { offset: 0x49981D, size: 0x8, addend: 0x0, symName: __ZNK11llama_model4descEv, symObjAddr: 0x2A018, symBinAddr: 0x95774, symSize: 0x2C }
  - { offset: 0x499841, size: 0x8, addend: 0x0, symName: __ZNK11llama_model4descEv, symObjAddr: 0x2A018, symBinAddr: 0x95774, symSize: 0x2C }
  - { offset: 0x4999D1, size: 0x8, addend: 0x0, symName: __ZNSt3__16vectorINS_4pairIP19ggml_backend_deviceP24ggml_backend_buffer_typeEENS_9allocatorIS6_EEE18__insert_with_sizeB8ne190102INS_11__wrap_iterIPS6_EESD_EESD_NSB_IPKS6_EET_T0_l, symObjAddr: 0x3C83C, symBinAddr: 0x9F240, symSize: 0x354 }
  - { offset: 0x4999E2, size: 0x8, addend: 0x0, symName: __ZNK11llama_model4sizeEv, symObjAddr: 0x2A044, symBinAddr: 0x957A0, symSize: 0xC }
  - { offset: 0x499A06, size: 0x8, addend: 0x0, symName: __ZNK11llama_model4sizeEv, symObjAddr: 0x2A044, symBinAddr: 0x957A0, symSize: 0xC }
  - { offset: 0x499A40, size: 0x8, addend: 0x0, symName: __ZNK11llama_model9n_tensorsEv, symObjAddr: 0x2A050, symBinAddr: 0x957AC, symSize: 0x14 }
  - { offset: 0x499A6C, size: 0x8, addend: 0x0, symName: __ZNK11llama_model9n_tensorsEv, symObjAddr: 0x2A050, symBinAddr: 0x957AC, symSize: 0x14 }
  - { offset: 0x49A0F7, size: 0x8, addend: 0x0, symName: __ZNK11llama_model16memory_breakdownEv, symObjAddr: 0x2A064, symBinAddr: 0x957C0, symSize: 0x318 }
  - { offset: 0x49AA9F, size: 0x8, addend: 0x0, symName: __ZNK11llama_model10n_elementsEv, symObjAddr: 0x2A37C, symBinAddr: 0x95AD8, symSize: 0xC }
  - { offset: 0x49AAC3, size: 0x8, addend: 0x0, symName: __ZNK11llama_model10n_elementsEv, symObjAddr: 0x2A37C, symBinAddr: 0x95AD8, symSize: 0xC }
  - { offset: 0x49B76A, size: 0x8, addend: 0x0, symName: '__ZZNK11llama_model10print_infoEvENK3$_0clERKNSt3__18functionIFjjEEEj', symObjAddr: 0x2B4C8, symBinAddr: 0x96C24, symSize: 0x2F4 }
  - { offset: 0x49C83B, size: 0x8, addend: 0x0, symName: __ZNK11llama_model9dev_layerEi, symObjAddr: 0x2B7BC, symBinAddr: 0x96F18, symSize: 0x30 }
  - { offset: 0x49C877, size: 0x8, addend: 0x0, symName: __ZNK11llama_model9dev_layerEi, symObjAddr: 0x2B7BC, symBinAddr: 0x96F18, symSize: 0x30 }
  - { offset: 0x49C8D0, size: 0x8, addend: 0x0, symName: __ZNK11llama_model10dev_outputEv, symObjAddr: 0x2B7EC, symBinAddr: 0x96F48, symSize: 0xC }
  - { offset: 0x49C8DB, size: 0x8, addend: 0x0, symName: __ZNK11llama_model10dev_outputEv, symObjAddr: 0x2B7EC, symBinAddr: 0x96F48, symSize: 0xC }
  - { offset: 0x49C907, size: 0x8, addend: 0x0, symName: __ZNK11llama_model10dev_outputEv, symObjAddr: 0x2B7EC, symBinAddr: 0x96F48, symSize: 0xC }
  - { offset: 0x49C9A2, size: 0x8, addend: 0x0, symName: __ZNK11llama_model11select_buftEi, symObjAddr: 0x2B7F8, symBinAddr: 0x96F54, symSize: 0x2E0 }
  - { offset: 0x49D4B7, size: 0x8, addend: 0x0, symName: __ZNK11llama_model20has_tensor_overridesEv, symObjAddr: 0x2BAD8, symBinAddr: 0x97234, symSize: 0xC }
  - { offset: 0x49D4E3, size: 0x8, addend: 0x0, symName: __ZNK11llama_model20has_tensor_overridesEv, symObjAddr: 0x2BAD8, symBinAddr: 0x97234, symSize: 0xC }
  - { offset: 0x49D532, size: 0x8, addend: 0x0, symName: __ZNK11llama_model10get_tensorEPKc, symObjAddr: 0x2BAE4, symBinAddr: 0x97240, symSize: 0xE4 }
  - { offset: 0x49D7F9, size: 0x8, addend: 0x0, symName: __ZNK11llama_model18get_rope_freq_baseERK13llama_cparamsi, symObjAddr: 0x2BBC8, symBinAddr: 0x97324, symSize: 0x44 }
  - { offset: 0x49D843, size: 0x8, addend: 0x0, symName: __ZNK11llama_model19get_rope_freq_scaleERK13llama_cparamsi, symObjAddr: 0x2BC0C, symBinAddr: 0x97368, symSize: 0x44 }
  - { offset: 0x49D8B1, size: 0x8, addend: 0x0, symName: __ZNK11llama_model16get_rope_factorsERK13llama_cparamsi, symObjAddr: 0x2BC50, symBinAddr: 0x973AC, symSize: 0x40 }
  - { offset: 0x49D909, size: 0x8, addend: 0x0, symName: __ZNK11llama_model16get_rope_factorsERK13llama_cparamsi, symObjAddr: 0x2BC50, symBinAddr: 0x973AC, symSize: 0x40 }
  - { offset: 0x49DB5C, size: 0x8, addend: 0x0, symName: '__ZNSt3__18functionIFbiEEaSIZNK11llama_model13create_memoryERK19llama_memory_paramsRK13llama_cparamsE3$_0vEERS2_OT_', symObjAddr: 0x2C1AC, symBinAddr: 0x97908, symSize: 0x9C }
  - { offset: 0x49DD50, size: 0x8, addend: 0x0, symName: '__ZNSt3__18functionIFbiEEaSIZNK11llama_model13create_memoryERK19llama_memory_paramsRK13llama_cparamsE3$_1vEERS2_OT_', symObjAddr: 0x2C248, symBinAddr: 0x979A4, symSize: 0x9C }
  - { offset: 0x49DF44, size: 0x8, addend: 0x0, symName: '__ZNSt3__18functionIFiiEEaSIZNK11llama_model13create_memoryERK19llama_memory_paramsRK13llama_cparamsE3$_4vEERS2_OT_', symObjAddr: 0x2C41C, symBinAddr: 0x97B78, symSize: 0x9C }
  - { offset: 0x49E146, size: 0x8, addend: 0x0, symName: '__ZNSt3__18functionIFbiEEaSIZNK11llama_model13create_memoryERK19llama_memory_paramsRK13llama_cparamsE3$_2vEERS2_OT_', symObjAddr: 0x2C2E4, symBinAddr: 0x97A40, symSize: 0x9C }
  - { offset: 0x49E348, size: 0x8, addend: 0x0, symName: '__ZNSt3__18functionIFbiEEaSIZNK11llama_model13create_memoryERK19llama_memory_paramsRK13llama_cparamsE3$_3vEERS2_OT_', symObjAddr: 0x2C380, symBinAddr: 0x97ADC, symSize: 0x9C }
  - { offset: 0x49E731, size: 0x8, addend: 0x0, symName: __ZNSt3__110__function12__value_funcIFbiEE4swapB8ne190102ERS3_, symObjAddr: 0x3E5F8, symBinAddr: 0xA0F34, symSize: 0x1A0 }
  - { offset: 0x49EF95, size: 0x8, addend: 0x0, symName: __ZNSt3__110__function12__value_funcIFiiEE4swapB8ne190102ERS3_, symObjAddr: 0x3EB98, symBinAddr: 0xA14D4, symSize: 0x1A0 }
  - { offset: 0x49F20D, size: 0x8, addend: 0x0, symName: __ZNK11llama_model11build_graphERK16llm_graph_params, symObjAddr: 0x2C4B8, symBinAddr: 0x97C14, symSize: 0x76C }
  - { offset: 0x4A64E5, size: 0x8, addend: 0x0, symName: _llama_model_default_params, symObjAddr: 0x2ED90, symBinAddr: 0x9A4EC, symSize: 0x2C }
  - { offset: 0x4A6511, size: 0x8, addend: 0x0, symName: _llama_model_get_vocab, symObjAddr: 0x2EDBC, symBinAddr: 0x9A518, symSize: 0xC }
  - { offset: 0x4A6571, size: 0x8, addend: 0x0, symName: _llama_free_model, symObjAddr: 0x2EDC8, symBinAddr: 0x9A524, symSize: 0x1C }
  - { offset: 0x4A6599, size: 0x8, addend: 0x0, symName: _llama_free_model, symObjAddr: 0x2EDC8, symBinAddr: 0x9A524, symSize: 0x1C }
  - { offset: 0x4A65DF, size: 0x8, addend: 0x0, symName: _llama_model_free, symObjAddr: 0x2EDE4, symBinAddr: 0x9A540, symSize: 0x1C }
  - { offset: 0x4A6626, size: 0x8, addend: 0x0, symName: _llama_model_n_ctx_train, symObjAddr: 0x2EE00, symBinAddr: 0x9A55C, symSize: 0x8 }
  - { offset: 0x4A6644, size: 0x8, addend: 0x0, symName: _llama_model_n_embd, symObjAddr: 0x2EE08, symBinAddr: 0x9A564, symSize: 0x8 }
  - { offset: 0x4A6662, size: 0x8, addend: 0x0, symName: _llama_model_n_layer, symObjAddr: 0x2EE10, symBinAddr: 0x9A56C, symSize: 0x8 }
  - { offset: 0x4A6680, size: 0x8, addend: 0x0, symName: _llama_model_n_head, symObjAddr: 0x2EE18, symBinAddr: 0x9A574, symSize: 0xC }
  - { offset: 0x4A669E, size: 0x8, addend: 0x0, symName: _llama_model_n_head_kv, symObjAddr: 0x2EE24, symBinAddr: 0x9A580, symSize: 0xC }
  - { offset: 0x4A66CA, size: 0x8, addend: 0x0, symName: _llama_model_n_swa, symObjAddr: 0x2EE30, symBinAddr: 0x9A58C, symSize: 0x8 }
  - { offset: 0x4A66F6, size: 0x8, addend: 0x0, symName: _llama_model_n_cls_out, symObjAddr: 0x2EE38, symBinAddr: 0x9A594, symSize: 0x8 }
  - { offset: 0x4A6746, size: 0x8, addend: 0x0, symName: _llama_model_cls_label, symObjAddr: 0x2EE40, symBinAddr: 0x9A59C, symSize: 0x4C }
  - { offset: 0x4A6858, size: 0x8, addend: 0x0, symName: _llama_n_ctx_train, symObjAddr: 0x2EE8C, symBinAddr: 0x9A5E8, symSize: 0x8 }
  - { offset: 0x4A6886, size: 0x8, addend: 0x0, symName: _llama_n_ctx_train, symObjAddr: 0x2EE8C, symBinAddr: 0x9A5E8, symSize: 0x8 }
  - { offset: 0x4A68BC, size: 0x8, addend: 0x0, symName: _llama_n_embd, symObjAddr: 0x2EE94, symBinAddr: 0x9A5F0, symSize: 0x8 }
  - { offset: 0x4A68EA, size: 0x8, addend: 0x0, symName: _llama_n_embd, symObjAddr: 0x2EE94, symBinAddr: 0x9A5F0, symSize: 0x8 }
  - { offset: 0x4A6920, size: 0x8, addend: 0x0, symName: _llama_n_layer, symObjAddr: 0x2EE9C, symBinAddr: 0x9A5F8, symSize: 0x8 }
  - { offset: 0x4A694E, size: 0x8, addend: 0x0, symName: _llama_n_layer, symObjAddr: 0x2EE9C, symBinAddr: 0x9A5F8, symSize: 0x8 }
  - { offset: 0x4A6984, size: 0x8, addend: 0x0, symName: _llama_n_head, symObjAddr: 0x2EEA4, symBinAddr: 0x9A600, symSize: 0xC }
  - { offset: 0x4A69B2, size: 0x8, addend: 0x0, symName: _llama_n_head, symObjAddr: 0x2EEA4, symBinAddr: 0x9A600, symSize: 0xC }
  - { offset: 0x4A69CF, size: 0x8, addend: 0x0, symName: _llama_model_rope_freq_scale_train, symObjAddr: 0x2EEB0, symBinAddr: 0x9A60C, symSize: 0x8 }
  - { offset: 0x4A6A20, size: 0x8, addend: 0x0, symName: _llama_model_meta_val_str, symObjAddr: 0x2EEB8, symBinAddr: 0x9A614, symSize: 0x144 }
  - { offset: 0x4A7287, size: 0x8, addend: 0x0, symName: _llama_model_meta_count, symObjAddr: 0x2EFFC, symBinAddr: 0x9A758, symSize: 0x8 }
  - { offset: 0x4A72B5, size: 0x8, addend: 0x0, symName: _llama_model_meta_count, symObjAddr: 0x2EFFC, symBinAddr: 0x9A758, symSize: 0x8 }
  - { offset: 0x4A72D5, size: 0x8, addend: 0x0, symName: _llama_model_meta_count, symObjAddr: 0x2EFFC, symBinAddr: 0x9A758, symSize: 0x8 }
  - { offset: 0x4A73A5, size: 0x8, addend: 0x0, symName: _llama_model_meta_key_by_index, symObjAddr: 0x2F004, symBinAddr: 0x9A760, symSize: 0x84 }
  - { offset: 0x4A75E3, size: 0x8, addend: 0x0, symName: _llama_model_meta_val_str_by_index, symObjAddr: 0x2F088, symBinAddr: 0x9A7E4, symSize: 0x84 }
  - { offset: 0x4A77F1, size: 0x8, addend: 0x0, symName: _llama_model_desc, symObjAddr: 0x2F10C, symBinAddr: 0x9A868, symSize: 0xAC }
  - { offset: 0x4A7AC7, size: 0x8, addend: 0x0, symName: _llama_model_size, symObjAddr: 0x2F1B8, symBinAddr: 0x9A914, symSize: 0xC }
  - { offset: 0x4A7AF5, size: 0x8, addend: 0x0, symName: _llama_model_size, symObjAddr: 0x2F1B8, symBinAddr: 0x9A914, symSize: 0xC }
  - { offset: 0x4A7B11, size: 0x8, addend: 0x0, symName: _llama_model_size, symObjAddr: 0x2F1B8, symBinAddr: 0x9A914, symSize: 0xC }
  - { offset: 0x4A7B31, size: 0x8, addend: 0x0, symName: _llama_model_chat_template, symObjAddr: 0x2F1C4, symBinAddr: 0x9A920, symSize: 0x134 }
  - { offset: 0x4A7ECA, size: 0x8, addend: 0x0, symName: _llama_model_n_params, symObjAddr: 0x2F2F8, symBinAddr: 0x9AA54, symSize: 0xC }
  - { offset: 0x4A7EF8, size: 0x8, addend: 0x0, symName: _llama_model_n_params, symObjAddr: 0x2F2F8, symBinAddr: 0x9AA54, symSize: 0xC }
  - { offset: 0x4A7F14, size: 0x8, addend: 0x0, symName: _llama_model_n_params, symObjAddr: 0x2F2F8, symBinAddr: 0x9AA54, symSize: 0xC }
  - { offset: 0x4A7F34, size: 0x8, addend: 0x0, symName: _llama_model_has_encoder, symObjAddr: 0x2F304, symBinAddr: 0x9AA60, symSize: 0x14 }
  - { offset: 0x4A7F60, size: 0x8, addend: 0x0, symName: _llama_model_has_decoder, symObjAddr: 0x2F318, symBinAddr: 0x9AA74, symSize: 0x10 }
  - { offset: 0x4A7F8C, size: 0x8, addend: 0x0, symName: _llama_model_decoder_start_token, symObjAddr: 0x2F328, symBinAddr: 0x9AA84, symSize: 0x8 }
  - { offset: 0x4A7FB8, size: 0x8, addend: 0x0, symName: _llama_model_is_recurrent, symObjAddr: 0x2F330, symBinAddr: 0x9AA8C, symSize: 0x8 }
  - { offset: 0x4A7FF2, size: 0x8, addend: 0x0, symName: _llama_model_is_hybrid, symObjAddr: 0x2F338, symBinAddr: 0x9AA94, symSize: 0x8 }
  - { offset: 0x4A802C, size: 0x8, addend: 0x0, symName: _llama_model_is_diffusion, symObjAddr: 0x2F340, symBinAddr: 0x9AA9C, symSize: 0x8 }
  - { offset: 0x4A807C, size: 0x8, addend: 0x0, symName: __Z29llama_internal_get_tensor_mapPK11llama_model, symObjAddr: 0x2F348, symBinAddr: 0x9AAA4, symSize: 0xC }
  - { offset: 0x4A870B, size: 0x8, addend: 0x0, symName: __ZNSt3__111basic_regexIcNS_12regex_traitsIcEEE7__parseIPKcEET_S7_S7_, symObjAddr: 0x2FCEC, symBinAddr: 0x9B26C, symSize: 0x358 }
  - { offset: 0x4A95E3, size: 0x8, addend: 0x0, symName: __ZNSt3__111basic_regexIcNS_12regex_traitsIcEEE13__parse_egrepIPKcEET_S7_S7_, symObjAddr: 0x306F8, symBinAddr: 0x9BC2C, symSize: 0x1B8 }
  - { offset: 0x4A9B30, size: 0x8, addend: 0x0, symName: __ZNSt3__111basic_regexIcNS_12regex_traitsIcEEE24__parse_extended_reg_expIPKcEET_S7_S7_, symObjAddr: 0x303DC, symBinAddr: 0x9B910, symSize: 0x164 }
  - { offset: 0x4A9E50, size: 0x8, addend: 0x0, symName: __ZNSt3__111basic_regexIcNS_12regex_traitsIcEEE12__parse_grepIPKcEET_S7_S7_, symObjAddr: 0x30540, symBinAddr: 0x9BA74, symSize: 0x1B8 }
  - { offset: 0x4A9E64, size: 0x8, addend: 0x0, symName: __ZNSt3__111basic_regexIcNS_12regex_traitsIcEEE21__parse_basic_reg_expIPKcEET_S7_S7_, symObjAddr: 0x30254, symBinAddr: 0x9B788, symSize: 0x188 }
  - { offset: 0x4AA1C0, size: 0x8, addend: 0x0, symName: __ZNSt3__111basic_regexIcNS_12regex_traitsIcEEE24__parse_extended_reg_expIPKcEET_S7_S7_, symObjAddr: 0x303DC, symBinAddr: 0x9B910, symSize: 0x164 }
  - { offset: 0x4AA1D4, size: 0x8, addend: 0x0, symName: __ZNSt3__111basic_regexIcNS_12regex_traitsIcEEE12__parse_grepIPKcEET_S7_S7_, symObjAddr: 0x30540, symBinAddr: 0x9BA74, symSize: 0x1B8 }
  - { offset: 0x4AA721, size: 0x8, addend: 0x0, symName: __ZNSt3__111basic_regexIcNS_12regex_traitsIcEEE19__parse_alternativeIPKcEET_S7_S7_, symObjAddr: 0x30AF4, symBinAddr: 0x9BDE4, symSize: 0xA0 }
  - { offset: 0x4AA866, size: 0x8, addend: 0x0, symName: __ZNSt3__111basic_regexIcNS_12regex_traitsIcEEE16__parse_ecma_expIPKcEET_S7_S7_, symObjAddr: 0x30090, symBinAddr: 0x9B5C4, symSize: 0x1C4 }
  - { offset: 0x4AAC64, size: 0x8, addend: 0x0, symName: __ZNSt3__111basic_regexIcNS_12regex_traitsIcEEE12__parse_termIPKcEET_S7_S7_, symObjAddr: 0x30B94, symBinAddr: 0x9BE84, symSize: 0x94 }
  - { offset: 0x4AAEF6, size: 0x8, addend: 0x0, symName: __ZNSt3__111basic_regexIcNS_12regex_traitsIcEEE18__parse_nondupl_REIPKcEET_S7_S7_, symObjAddr: 0x37E1C, symBinAddr: 0x9E328, symSize: 0x1FC }
  - { offset: 0x4AB41B, size: 0x8, addend: 0x0, symName: __ZNSt3__111basic_regexIcNS_12regex_traitsIcEEE22__parse_RE_dupl_symbolIPKcEET_S7_S7_PNS_16__owns_one_stateIcEEjj, symObjAddr: 0x38018, symBinAddr: 0x9E524, symSize: 0x274 }
  - { offset: 0x4AB42F, size: 0x8, addend: 0x0, symName: __ZNSt3__111basic_regexIcNS_12regex_traitsIcEEE22__parse_RE_dupl_symbolIPKcEET_S7_S7_PNS_16__owns_one_stateIcEEjj, symObjAddr: 0x38018, symBinAddr: 0x9E524, symSize: 0x274 }
  - { offset: 0x4AB987, size: 0x8, addend: 0x0, symName: __ZNSt3__111basic_regexIcNS_12regex_traitsIcEEE32__parse_one_char_or_coll_elem_REIPKcEET_S7_S7_, symObjAddr: 0x3828C, symBinAddr: 0x9E798, symSize: 0x11C }
  - { offset: 0x4AB9DE, size: 0x8, addend: 0x0, symName: __ZNSt3__111basic_regexIcNS_12regex_traitsIcEEE22__parse_ERE_expressionIPKcEET_S7_S7_, symObjAddr: 0x384D8, symBinAddr: 0x9E8B4, symSize: 0x208 }
  - { offset: 0x4ABD66, size: 0x8, addend: 0x0, symName: __ZNSt3__111basic_regexIcNS_12regex_traitsIcEEE33__parse_one_char_or_coll_elem_EREIPKcEET_S7_S7_, symObjAddr: 0x386E0, symBinAddr: 0x9EABC, symSize: 0x160 }
  - { offset: 0x4ABE50, size: 0x8, addend: 0x0, symName: __ZNSt3__111basic_regexIcNS_12regex_traitsIcEEE23__parse_ERE_dupl_symbolIPKcEET_S7_S7_PNS_16__owns_one_stateIcEEjj, symObjAddr: 0x31204, symBinAddr: 0x9C4F4, symSize: 0x3E4 }
  - { offset: 0x4AC3EF, size: 0x8, addend: 0x0, symName: __ZNSt3__111basic_regexIcNS_12regex_traitsIcEEE17__parse_assertionIPKcEET_S7_S7_, symObjAddr: 0x30C28, symBinAddr: 0x9BF18, symSize: 0x38C }
  - { offset: 0x4ACA05, size: 0x8, addend: 0x0, symName: __ZNSt3__111basic_regexIcNS_12regex_traitsIcEEE12__parse_atomIPKcEET_S7_S7_, symObjAddr: 0x30FB4, symBinAddr: 0x9C2A4, symSize: 0x250 }
  - { offset: 0x4ACD66, size: 0x8, addend: 0x0, symName: __ZNSt3__111basic_regexIcNS_12regex_traitsIcEEE23__parse_ERE_dupl_symbolIPKcEET_S7_S7_PNS_16__owns_one_stateIcEEjj, symObjAddr: 0x31204, symBinAddr: 0x9C4F4, symSize: 0x3E4 }
  - { offset: 0x4AD1E5, size: 0x8, addend: 0x0, symName: __ZNSt3__111basic_regexIcNS_12regex_traitsIcEEE26__parse_bracket_expressionIPKcEET_S7_S7_, symObjAddr: 0x32E68, symBinAddr: 0x9CA58, symSize: 0x160 }
  - { offset: 0x4AD3B9, size: 0x8, addend: 0x0, symName: __ZNSt3__111basic_regexIcNS_12regex_traitsIcEEE19__parse_atom_escapeIPKcEET_S7_S7_, symObjAddr: 0x32CE8, symBinAddr: 0x9C8D8, symSize: 0x180 }
  - { offset: 0x4AD545, size: 0x8, addend: 0x0, symName: __ZNSt3__111basic_regexIcNS_12regex_traitsIcEEE26__parse_bracket_expressionIPKcEET_S7_S7_, symObjAddr: 0x32E68, symBinAddr: 0x9CA58, symSize: 0x160 }
  - { offset: 0x4AD559, size: 0x8, addend: 0x0, symName: __ZNSt3__111basic_regexIcNS_12regex_traitsIcEEE25__parse_pattern_characterIPKcEET_S7_S7_, symObjAddr: 0x33014, symBinAddr: 0x9CBB8, symSize: 0x7C }
  - { offset: 0x4B1A46, size: 0x8, addend: 0x0, symName: __ZNSt3__111basic_regexIcNS_12regex_traitsIcEEE30__parse_character_class_escapeIPKcEET_S7_S7_, symObjAddr: 0x3316C, symBinAddr: 0x9CC34, symSize: 0x25C }
  - { offset: 0x4B1EA1, size: 0x8, addend: 0x0, symName: __ZNSt3__111basic_regexIcNS_12regex_traitsIcEEE24__parse_character_escapeIPKcEET_S7_S7_PNS_12basic_stringIcNS_11char_traitsIcEENS_9allocatorIcEEEE, symObjAddr: 0x333C8, symBinAddr: 0x9CE90, symSize: 0x40C }
  - { offset: 0x4B29AC, size: 0x8, addend: 0x0, symName: __ZNSt3__111basic_regexIcNS_12regex_traitsIcEEE23__parse_expression_termIPKcEET_S7_S7_PNS_20__bracket_expressionIcS2_EE, symObjAddr: 0x35500, symBinAddr: 0x9D29C, symSize: 0x54C }
  - { offset: 0x4B4F43, size: 0x8, addend: 0x0, symName: __ZNSt3__111basic_regexIcNS_12regex_traitsIcEEE25__parse_equivalence_classIPKcEET_S7_S7_PNS_20__bracket_expressionIcS2_EE, symObjAddr: 0x35A4C, symBinAddr: 0x9D7E8, symSize: 0x270 }
  - { offset: 0x4B5A11, size: 0x8, addend: 0x0, symName: __ZNSt3__111basic_regexIcNS_12regex_traitsIcEEE18__parse_awk_escapeIPKcEET_S7_S7_PNS_12basic_stringIcNS_11char_traitsIcEENS_9allocatorIcEEEE, symObjAddr: 0x35F10, symBinAddr: 0x9DCAC, symSize: 0x2E4 }
  - { offset: 0x4B5B36, size: 0x8, addend: 0x0, symName: __ZNSt3__111basic_regexIcNS_12regex_traitsIcEEE24__parse_collating_symbolIPKcEET_S7_S7_RNS_12basic_stringIcNS_11char_traitsIcEENS_9allocatorIcEEEE, symObjAddr: 0x35CBC, symBinAddr: 0x9DA58, symSize: 0xD0 }
  - { offset: 0x4B5ECA, size: 0x8, addend: 0x0, symName: __ZNSt3__111basic_regexIcNS_12regex_traitsIcEEE20__parse_class_escapeIPKcEET_S7_S7_RNS_12basic_stringIcNS_11char_traitsIcEENS_9allocatorIcEEEEPNS_20__bracket_expressionIcS2_EE, symObjAddr: 0x35D8C, symBinAddr: 0x9DB28, symSize: 0x184 }
  - { offset: 0x4B5ED5, size: 0x8, addend: 0x0, symName: __ZNKSt3__112regex_traitsIcE20__lookup_collatenameIPKcEENS_12basic_stringIcNS_11char_traitsIcEENS_9allocatorIcEEEET_SB_c, symObjAddr: 0x36A6C, symBinAddr: 0x9DF90, symSize: 0x240 }
  - { offset: 0x4B6A9F, size: 0x8, addend: 0x0, symName: __ZNKSt3__112regex_traitsIcE18__lookup_classnameIPKcEEjT_S5_bc, symObjAddr: 0x3706C, symBinAddr: 0x9E1D0, symSize: 0x158 }
  - { offset: 0x4B76E1, size: 0x8, addend: 0x0, symName: __ZNSt3__111basic_regexIcNS_12regex_traitsIcEEE20__parse_class_escapeIPKcEET_S7_S7_RNS_12basic_stringIcNS_11char_traitsIcEENS_9allocatorIcEEEEPNS_20__bracket_expressionIcS2_EE, symObjAddr: 0x35D8C, symBinAddr: 0x9DB28, symSize: 0x184 }
  - { offset: 0x4B7879, size: 0x8, addend: 0x0, symName: __ZNSt3__111basic_regexIcNS_12regex_traitsIcEEE18__parse_awk_escapeIPKcEET_S7_S7_PNS_12basic_stringIcNS_11char_traitsIcEENS_9allocatorIcEEEE, symObjAddr: 0x35F10, symBinAddr: 0x9DCAC, symSize: 0x2E4 }
  - { offset: 0x4BA8FE, size: 0x8, addend: 0x0, symName: __ZNSt3__111basic_regexIcNS_12regex_traitsIcEEE32__parse_one_char_or_coll_elem_REIPKcEET_S7_S7_, symObjAddr: 0x3828C, symBinAddr: 0x9E798, symSize: 0x11C }
  - { offset: 0x4BACCE, size: 0x8, addend: 0x0, symName: __ZNSt3__111basic_regexIcNS_12regex_traitsIcEEE22__parse_ERE_expressionIPKcEET_S7_S7_, symObjAddr: 0x384D8, symBinAddr: 0x9E8B4, symSize: 0x208 }
  - { offset: 0x4BACD9, size: 0x8, addend: 0x0, symName: __ZNSt3__111basic_regexIcNS_12regex_traitsIcEEE33__parse_one_char_or_coll_elem_EREIPKcEET_S7_S7_, symObjAddr: 0x386E0, symBinAddr: 0x9EABC, symSize: 0x160 }
  - { offset: 0x4BAEC2, size: 0x8, addend: 0x0, symName: __ZNSt3__111basic_regexIcNS_12regex_traitsIcEEE23__parse_QUOTED_CHAR_EREIPKcEET_S7_S7_, symObjAddr: 0x38840, symBinAddr: 0x9EC1C, symSize: 0xD8 }
  - { offset: 0x4C1408, size: 0x8, addend: 0x0, symName: __ZNSt3__13mapI23llama_rope_scaling_typePKcNS_4lessIS1_EENS_9allocatorINS_4pairIKS1_S3_EEEEEC2B8ne190102ESt16initializer_listIS9_ERKS5_, symObjAddr: 0x3B5D0, symBinAddr: 0x9ECF4, symSize: 0xF4 }
  - { offset: 0x4C17DF, size: 0x8, addend: 0x0, symName: __ZNSt3__16__treeINS_12__value_typeI23llama_rope_scaling_typePKcEENS_19__map_value_compareIS2_S5_NS_4lessIS2_EELb1EEENS_9allocatorIS5_EEE12__find_equalIS2_EERPNS_16__tree_node_baseIPvEENS_21__tree_const_iteratorIS5_PNS_11__tree_nodeIS5_SF_EElEERPNS_15__tree_end_nodeISH_EESI_RKT_, symObjAddr: 0x3B6C4, symBinAddr: 0x9EDE8, symSize: 0x1B0 }
  - { offset: 0x4C1842, size: 0x8, addend: 0x0, symName: __ZNSt3__16__treeINS_12__value_typeI23llama_rope_scaling_typePKcEENS_19__map_value_compareIS2_S5_NS_4lessIS2_EELb1EEENS_9allocatorIS5_EEE12__find_equalIS2_EERPNS_16__tree_node_baseIPvEENS_21__tree_const_iteratorIS5_PNS_11__tree_nodeIS5_SF_EElEERPNS_15__tree_end_nodeISH_EESI_RKT_, symObjAddr: 0x3B6C4, symBinAddr: 0x9EDE8, symSize: 0x1B0 }
  - { offset: 0x4C185E, size: 0x8, addend: 0x0, symName: __ZNSt3__16__treeINS_12__value_typeI23llama_rope_scaling_typePKcEENS_19__map_value_compareIS2_S5_NS_4lessIS2_EELb1EEENS_9allocatorIS5_EEE12__find_equalIS2_EERPNS_16__tree_node_baseIPvEENS_21__tree_const_iteratorIS5_PNS_11__tree_nodeIS5_SF_EElEERPNS_15__tree_end_nodeISH_EESI_RKT_, symObjAddr: 0x3B6C4, symBinAddr: 0x9EDE8, symSize: 0x1B0 }
  - { offset: 0x4C20E2, size: 0x8, addend: 0x0, symName: __ZNSt3__16__treeINS_12__value_typeIP19ggml_backend_deviceNS_6vectorINS_4pairIS3_P24ggml_backend_buffer_typeEENS_9allocatorIS8_EEEEEENS_19__map_value_compareIS3_SC_NS_4lessIS3_EELb1EEENS9_ISC_EEE7destroyEPNS_11__tree_nodeISC_PvEE, symObjAddr: 0x3BA24, symBinAddr: 0x9F148, symSize: 0x50 }
  - { offset: 0x4C23DA, size: 0x8, addend: 0x0, symName: __ZNSt3__16vectorINS_4pairINS_10unique_ptrI12ggml_context20ggml_context_deleterEENS0_INS2_I19ggml_backend_buffer27ggml_backend_buffer_deleterEENS_9allocatorIS8_EEEEEENS9_ISC_EEE22__base_destruct_at_endB8ne190102EPSC_, symObjAddr: 0x3BA74, symBinAddr: 0x9F198, symSize: 0xA8 }
  - { offset: 0x4C4AC5, size: 0x8, addend: 0x0, symName: __ZNKSt3__16vectorIN11llama_model4impl9layer_devENS_9allocatorIS3_EEE20__throw_length_errorB8ne190102Ev, symObjAddr: 0x3CCC8, symBinAddr: 0x9F6B8, symSize: 0x14 }
  - { offset: 0x4C4AEF, size: 0x8, addend: 0x0, symName: __ZNSt3__16__treeINS_12__value_typeIP24ggml_backend_buffer_typeNS_10unique_ptrI12ggml_context20ggml_context_deleterEEEENS_19__map_value_compareIS3_S8_ZN11llama_model12load_tensorsER18llama_model_loaderE28ggml_backend_buft_comparatorLb1EEENS_9allocatorIS8_EEE7destroyEPNS_11__tree_nodeIS8_PvEE, symObjAddr: 0x3CCDC, symBinAddr: 0x9F6CC, symSize: 0x54 }
  - { offset: 0x4C4E99, size: 0x8, addend: 0x0, symName: __ZNKSt3__16vectorI11llama_layerNS_9allocatorIS1_EEE20__throw_length_errorB8ne190102Ev, symObjAddr: 0x3CEF4, symBinAddr: 0x9F8E4, symSize: 0x14 }
  - { offset: 0x4C5227, size: 0x8, addend: 0x0, symName: __ZNSt3__112__hash_tableINS_17__hash_value_typeIjP19ggml_backend_bufferEENS_22__unordered_map_hasherIjS4_NS_4hashIjEENS_8equal_toIjEELb1EEENS_21__unordered_map_equalIjS4_S9_S7_Lb1EEENS_9allocatorIS4_EEED1Ev, symObjAddr: 0x3D1C0, symBinAddr: 0x9FB9C, symSize: 0x48 }
  - { offset: 0x4C5BD2, size: 0x8, addend: 0x0, symName: __ZNSt3__112__hash_tableINS_17__hash_value_typeIjP19ggml_backend_bufferEENS_22__unordered_map_hasherIjS4_NS_4hashIjEENS_8equal_toIjEELb1EEENS_21__unordered_map_equalIjS4_S9_S7_Lb1EEENS_9allocatorIS4_EEE25__emplace_unique_key_argsIjJRKNS_4pairIKjS3_EEEEENSH_INS_15__hash_iteratorIPNS_11__hash_nodeIS4_PvEEEEbEERKT_DpOT0_, symObjAddr: 0x3DADC, symBinAddr: 0xA045C, symSize: 0x304 }
  - { offset: 0x4C65BF, size: 0x8, addend: 0x0, symName: __ZNKSt3__16vectorINS_4pairINS_12basic_stringIcNS_11char_traitsIcEENS_9allocatorIcEEEEP11ggml_tensorEENS5_ISA_EEE20__throw_length_errorB8ne190102Ev, symObjAddr: 0x3DFD4, symBinAddr: 0xA0954, symSize: 0x14 }
  - { offset: 0x4C65F4, size: 0x8, addend: 0x0, symName: __ZNSt3__114__split_bufferINS_4pairINS_12basic_stringIcNS_11char_traitsIcEENS_9allocatorIcEEEEP11ggml_tensorEERNS5_ISA_EEED1Ev, symObjAddr: 0x3DF70, symBinAddr: 0xA08F0, symSize: 0x64 }
  - { offset: 0x4C691C, size: 0x8, addend: 0x0, symName: '__ZNSt3__110__function6__funcIZNK11llama_model10print_infoEvE3$_1NS_9allocatorIS3_EEFjjEED1Ev', symObjAddr: 0x3E02C, symBinAddr: 0xA0968, symSize: 0x4 }
  - { offset: 0x4C6947, size: 0x8, addend: 0x0, symName: '__ZNSt3__110__function6__funcIZNK11llama_model10print_infoEvE3$_1NS_9allocatorIS3_EEFjjEED0Ev', symObjAddr: 0x3E030, symBinAddr: 0xA096C, symSize: 0x4 }
  - { offset: 0x4C69FC, size: 0x8, addend: 0x0, symName: '__ZNKSt3__110__function6__funcIZNK11llama_model10print_infoEvE3$_1NS_9allocatorIS3_EEFjjEE7__cloneEv', symObjAddr: 0x3E034, symBinAddr: 0xA0970, symSize: 0x34 }
  - { offset: 0x4C6B48, size: 0x8, addend: 0x0, symName: '__ZNKSt3__110__function6__funcIZNK11llama_model10print_infoEvE3$_1NS_9allocatorIS3_EEFjjEE7__cloneEPNS0_6__baseIS6_EE', symObjAddr: 0x3E068, symBinAddr: 0xA09A4, symSize: 0x14 }
  - { offset: 0x4C6BB5, size: 0x8, addend: 0x0, symName: '__ZNSt3__110__function6__funcIZNK11llama_model10print_infoEvE3$_1NS_9allocatorIS3_EEFjjEE7destroyEv', symObjAddr: 0x3E07C, symBinAddr: 0xA09B8, symSize: 0x4 }
  - { offset: 0x4C6C04, size: 0x8, addend: 0x0, symName: '__ZNSt3__110__function6__funcIZNK11llama_model10print_infoEvE3$_1NS_9allocatorIS3_EEFjjEE18destroy_deallocateEv', symObjAddr: 0x3E080, symBinAddr: 0xA09BC, symSize: 0x4 }
  - { offset: 0x4C6C39, size: 0x8, addend: 0x0, symName: '__ZNSt3__110__function6__funcIZNK11llama_model10print_infoEvE3$_1NS_9allocatorIS3_EEFjjEE18destroy_deallocateEv', symObjAddr: 0x3E080, symBinAddr: 0xA09BC, symSize: 0x4 }
  - { offset: 0x4C6C5C, size: 0x8, addend: 0x0, symName: '__ZNSt3__110__function6__funcIZNK11llama_model10print_infoEvE3$_1NS_9allocatorIS3_EEFjjEE18destroy_deallocateEv', symObjAddr: 0x3E080, symBinAddr: 0xA09BC, symSize: 0x4 }
  - { offset: 0x4C6C88, size: 0x8, addend: 0x0, symName: '__ZNSt3__110__function6__funcIZNK11llama_model10print_infoEvE3$_1NS_9allocatorIS3_EEFjjEE18destroy_deallocateEv', symObjAddr: 0x3E080, symBinAddr: 0xA09BC, symSize: 0x4 }
  - { offset: 0x4C6CAE, size: 0x8, addend: 0x0, symName: '__ZNSt3__110__function6__funcIZNK11llama_model10print_infoEvE3$_1NS_9allocatorIS3_EEFjjEE18destroy_deallocateEv', symObjAddr: 0x3E080, symBinAddr: 0xA09BC, symSize: 0x4 }
  - { offset: 0x4C6D52, size: 0x8, addend: 0x0, symName: '__ZNSt3__110__function6__funcIZNK11llama_model10print_infoEvE3$_1NS_9allocatorIS3_EEFjjEEclEOj', symObjAddr: 0x3E084, symBinAddr: 0xA09C0, symSize: 0x10 }
  - { offset: 0x4C6DE5, size: 0x8, addend: 0x0, symName: '__ZNKSt3__110__function6__funcIZNK11llama_model10print_infoEvE3$_1NS_9allocatorIS3_EEFjjEE6targetERKSt9type_info', symObjAddr: 0x3E094, symBinAddr: 0xA09D0, symSize: 0x64 }
  - { offset: 0x4C6E99, size: 0x8, addend: 0x0, symName: '__ZNKSt3__110__function6__funcIZNK11llama_model10print_infoEvE3$_1NS_9allocatorIS3_EEFjjEE11target_typeEv', symObjAddr: 0x3E0F8, symBinAddr: 0xA0A34, symSize: 0xC }
  - { offset: 0x4C6EBC, size: 0x8, addend: 0x0, symName: '__ZNSt3__110__function6__funcIZNK11llama_model10print_infoEvE3$_2NS_9allocatorIS3_EEFjjEED1Ev', symObjAddr: 0x3E104, symBinAddr: 0xA0A40, symSize: 0x4 }
  - { offset: 0x4C6EE7, size: 0x8, addend: 0x0, symName: '__ZNSt3__110__function6__funcIZNK11llama_model10print_infoEvE3$_2NS_9allocatorIS3_EEFjjEED0Ev', symObjAddr: 0x3E108, symBinAddr: 0xA0A44, symSize: 0x4 }
  - { offset: 0x4C6F9C, size: 0x8, addend: 0x0, symName: '__ZNKSt3__110__function6__funcIZNK11llama_model10print_infoEvE3$_2NS_9allocatorIS3_EEFjjEE7__cloneEv', symObjAddr: 0x3E10C, symBinAddr: 0xA0A48, symSize: 0x34 }
  - { offset: 0x4C70E8, size: 0x8, addend: 0x0, symName: '__ZNKSt3__110__function6__funcIZNK11llama_model10print_infoEvE3$_2NS_9allocatorIS3_EEFjjEE7__cloneEPNS0_6__baseIS6_EE', symObjAddr: 0x3E140, symBinAddr: 0xA0A7C, symSize: 0x14 }
  - { offset: 0x4C7155, size: 0x8, addend: 0x0, symName: '__ZNSt3__110__function6__funcIZNK11llama_model10print_infoEvE3$_2NS_9allocatorIS3_EEFjjEE7destroyEv', symObjAddr: 0x3E154, symBinAddr: 0xA0A90, symSize: 0x4 }
  - { offset: 0x4C71A4, size: 0x8, addend: 0x0, symName: '__ZNSt3__110__function6__funcIZNK11llama_model10print_infoEvE3$_2NS_9allocatorIS3_EEFjjEE18destroy_deallocateEv', symObjAddr: 0x3E158, symBinAddr: 0xA0A94, symSize: 0x4 }
  - { offset: 0x4C71D9, size: 0x8, addend: 0x0, symName: '__ZNSt3__110__function6__funcIZNK11llama_model10print_infoEvE3$_2NS_9allocatorIS3_EEFjjEE18destroy_deallocateEv', symObjAddr: 0x3E158, symBinAddr: 0xA0A94, symSize: 0x4 }
  - { offset: 0x4C71FC, size: 0x8, addend: 0x0, symName: '__ZNSt3__110__function6__funcIZNK11llama_model10print_infoEvE3$_2NS_9allocatorIS3_EEFjjEE18destroy_deallocateEv', symObjAddr: 0x3E158, symBinAddr: 0xA0A94, symSize: 0x4 }
  - { offset: 0x4C7228, size: 0x8, addend: 0x0, symName: '__ZNSt3__110__function6__funcIZNK11llama_model10print_infoEvE3$_2NS_9allocatorIS3_EEFjjEE18destroy_deallocateEv', symObjAddr: 0x3E158, symBinAddr: 0xA0A94, symSize: 0x4 }
  - { offset: 0x4C724E, size: 0x8, addend: 0x0, symName: '__ZNSt3__110__function6__funcIZNK11llama_model10print_infoEvE3$_2NS_9allocatorIS3_EEFjjEE18destroy_deallocateEv', symObjAddr: 0x3E158, symBinAddr: 0xA0A94, symSize: 0x4 }
  - { offset: 0x4C72F2, size: 0x8, addend: 0x0, symName: '__ZNSt3__110__function6__funcIZNK11llama_model10print_infoEvE3$_2NS_9allocatorIS3_EEFjjEEclEOj', symObjAddr: 0x3E15C, symBinAddr: 0xA0A98, symSize: 0x10 }
  - { offset: 0x4C7385, size: 0x8, addend: 0x0, symName: '__ZNKSt3__110__function6__funcIZNK11llama_model10print_infoEvE3$_2NS_9allocatorIS3_EEFjjEE6targetERKSt9type_info', symObjAddr: 0x3E16C, symBinAddr: 0xA0AA8, symSize: 0x64 }
  - { offset: 0x4C7439, size: 0x8, addend: 0x0, symName: '__ZNKSt3__110__function6__funcIZNK11llama_model10print_infoEvE3$_2NS_9allocatorIS3_EEFjjEE11target_typeEv', symObjAddr: 0x3E1D0, symBinAddr: 0xA0B0C, symSize: 0xC }
  - { offset: 0x4C745C, size: 0x8, addend: 0x0, symName: '__ZNSt3__110__function6__funcIZNK11llama_model10print_infoEvE3$_3NS_9allocatorIS3_EEFjjEED1Ev', symObjAddr: 0x3E1DC, symBinAddr: 0xA0B18, symSize: 0x4 }
  - { offset: 0x4C7487, size: 0x8, addend: 0x0, symName: '__ZNSt3__110__function6__funcIZNK11llama_model10print_infoEvE3$_3NS_9allocatorIS3_EEFjjEED0Ev', symObjAddr: 0x3E1E0, symBinAddr: 0xA0B1C, symSize: 0x4 }
  - { offset: 0x4C753C, size: 0x8, addend: 0x0, symName: '__ZNKSt3__110__function6__funcIZNK11llama_model10print_infoEvE3$_3NS_9allocatorIS3_EEFjjEE7__cloneEv', symObjAddr: 0x3E1E4, symBinAddr: 0xA0B20, symSize: 0x34 }
  - { offset: 0x4C7688, size: 0x8, addend: 0x0, symName: '__ZNKSt3__110__function6__funcIZNK11llama_model10print_infoEvE3$_3NS_9allocatorIS3_EEFjjEE7__cloneEPNS0_6__baseIS6_EE', symObjAddr: 0x3E218, symBinAddr: 0xA0B54, symSize: 0x14 }
  - { offset: 0x4C76F5, size: 0x8, addend: 0x0, symName: '__ZNSt3__110__function6__funcIZNK11llama_model10print_infoEvE3$_3NS_9allocatorIS3_EEFjjEE7destroyEv', symObjAddr: 0x3E22C, symBinAddr: 0xA0B68, symSize: 0x4 }
  - { offset: 0x4C7744, size: 0x8, addend: 0x0, symName: '__ZNSt3__110__function6__funcIZNK11llama_model10print_infoEvE3$_3NS_9allocatorIS3_EEFjjEE18destroy_deallocateEv', symObjAddr: 0x3E230, symBinAddr: 0xA0B6C, symSize: 0x4 }
  - { offset: 0x4C7779, size: 0x8, addend: 0x0, symName: '__ZNSt3__110__function6__funcIZNK11llama_model10print_infoEvE3$_3NS_9allocatorIS3_EEFjjEE18destroy_deallocateEv', symObjAddr: 0x3E230, symBinAddr: 0xA0B6C, symSize: 0x4 }
  - { offset: 0x4C779C, size: 0x8, addend: 0x0, symName: '__ZNSt3__110__function6__funcIZNK11llama_model10print_infoEvE3$_3NS_9allocatorIS3_EEFjjEE18destroy_deallocateEv', symObjAddr: 0x3E230, symBinAddr: 0xA0B6C, symSize: 0x4 }
  - { offset: 0x4C77C8, size: 0x8, addend: 0x0, symName: '__ZNSt3__110__function6__funcIZNK11llama_model10print_infoEvE3$_3NS_9allocatorIS3_EEFjjEE18destroy_deallocateEv', symObjAddr: 0x3E230, symBinAddr: 0xA0B6C, symSize: 0x4 }
  - { offset: 0x4C77EE, size: 0x8, addend: 0x0, symName: '__ZNSt3__110__function6__funcIZNK11llama_model10print_infoEvE3$_3NS_9allocatorIS3_EEFjjEE18destroy_deallocateEv', symObjAddr: 0x3E230, symBinAddr: 0xA0B6C, symSize: 0x4 }
  - { offset: 0x4C7892, size: 0x8, addend: 0x0, symName: '__ZNSt3__110__function6__funcIZNK11llama_model10print_infoEvE3$_3NS_9allocatorIS3_EEFjjEEclEOj', symObjAddr: 0x3E234, symBinAddr: 0xA0B70, symSize: 0x10 }
  - { offset: 0x4C7925, size: 0x8, addend: 0x0, symName: '__ZNKSt3__110__function6__funcIZNK11llama_model10print_infoEvE3$_3NS_9allocatorIS3_EEFjjEE6targetERKSt9type_info', symObjAddr: 0x3E244, symBinAddr: 0xA0B80, symSize: 0x64 }
  - { offset: 0x4C79D9, size: 0x8, addend: 0x0, symName: '__ZNKSt3__110__function6__funcIZNK11llama_model10print_infoEvE3$_3NS_9allocatorIS3_EEFjjEE11target_typeEv', symObjAddr: 0x3E2A8, symBinAddr: 0xA0BE4, symSize: 0xC }
  - { offset: 0x4C79FC, size: 0x8, addend: 0x0, symName: '__ZNSt3__110__function6__funcIZNK11llama_model10print_infoEvE3$_4NS_9allocatorIS3_EEFjjEED1Ev', symObjAddr: 0x3E2B4, symBinAddr: 0xA0BF0, symSize: 0x4 }
  - { offset: 0x4C7A27, size: 0x8, addend: 0x0, symName: '__ZNSt3__110__function6__funcIZNK11llama_model10print_infoEvE3$_4NS_9allocatorIS3_EEFjjEED0Ev', symObjAddr: 0x3E2B8, symBinAddr: 0xA0BF4, symSize: 0x4 }
  - { offset: 0x4C7ADC, size: 0x8, addend: 0x0, symName: '__ZNKSt3__110__function6__funcIZNK11llama_model10print_infoEvE3$_4NS_9allocatorIS3_EEFjjEE7__cloneEv', symObjAddr: 0x3E2BC, symBinAddr: 0xA0BF8, symSize: 0x34 }
  - { offset: 0x4C7C28, size: 0x8, addend: 0x0, symName: '__ZNKSt3__110__function6__funcIZNK11llama_model10print_infoEvE3$_4NS_9allocatorIS3_EEFjjEE7__cloneEPNS0_6__baseIS6_EE', symObjAddr: 0x3E2F0, symBinAddr: 0xA0C2C, symSize: 0x14 }
  - { offset: 0x4C7C95, size: 0x8, addend: 0x0, symName: '__ZNSt3__110__function6__funcIZNK11llama_model10print_infoEvE3$_4NS_9allocatorIS3_EEFjjEE7destroyEv', symObjAddr: 0x3E304, symBinAddr: 0xA0C40, symSize: 0x4 }
  - { offset: 0x4C7CE4, size: 0x8, addend: 0x0, symName: '__ZNSt3__110__function6__funcIZNK11llama_model10print_infoEvE3$_4NS_9allocatorIS3_EEFjjEE18destroy_deallocateEv', symObjAddr: 0x3E308, symBinAddr: 0xA0C44, symSize: 0x4 }
  - { offset: 0x4C7D19, size: 0x8, addend: 0x0, symName: '__ZNSt3__110__function6__funcIZNK11llama_model10print_infoEvE3$_4NS_9allocatorIS3_EEFjjEE18destroy_deallocateEv', symObjAddr: 0x3E308, symBinAddr: 0xA0C44, symSize: 0x4 }
  - { offset: 0x4C7D3C, size: 0x8, addend: 0x0, symName: '__ZNSt3__110__function6__funcIZNK11llama_model10print_infoEvE3$_4NS_9allocatorIS3_EEFjjEE18destroy_deallocateEv', symObjAddr: 0x3E308, symBinAddr: 0xA0C44, symSize: 0x4 }
  - { offset: 0x4C7D68, size: 0x8, addend: 0x0, symName: '__ZNSt3__110__function6__funcIZNK11llama_model10print_infoEvE3$_4NS_9allocatorIS3_EEFjjEE18destroy_deallocateEv', symObjAddr: 0x3E308, symBinAddr: 0xA0C44, symSize: 0x4 }
  - { offset: 0x4C7D8E, size: 0x8, addend: 0x0, symName: '__ZNSt3__110__function6__funcIZNK11llama_model10print_infoEvE3$_4NS_9allocatorIS3_EEFjjEE18destroy_deallocateEv', symObjAddr: 0x3E308, symBinAddr: 0xA0C44, symSize: 0x4 }
  - { offset: 0x4C7E32, size: 0x8, addend: 0x0, symName: '__ZNSt3__110__function6__funcIZNK11llama_model10print_infoEvE3$_4NS_9allocatorIS3_EEFjjEEclEOj', symObjAddr: 0x3E30C, symBinAddr: 0xA0C48, symSize: 0x10 }
  - { offset: 0x4C7EC5, size: 0x8, addend: 0x0, symName: '__ZNKSt3__110__function6__funcIZNK11llama_model10print_infoEvE3$_4NS_9allocatorIS3_EEFjjEE6targetERKSt9type_info', symObjAddr: 0x3E31C, symBinAddr: 0xA0C58, symSize: 0x64 }
  - { offset: 0x4C7F79, size: 0x8, addend: 0x0, symName: '__ZNKSt3__110__function6__funcIZNK11llama_model10print_infoEvE3$_4NS_9allocatorIS3_EEFjjEE11target_typeEv', symObjAddr: 0x3E380, symBinAddr: 0xA0CBC, symSize: 0xC }
  - { offset: 0x4C7F9C, size: 0x8, addend: 0x0, symName: '__ZNSt3__110__function6__funcIZNK11llama_model10print_infoEvE3$_5NS_9allocatorIS3_EEFjjEED1Ev', symObjAddr: 0x3E38C, symBinAddr: 0xA0CC8, symSize: 0x4 }
  - { offset: 0x4C7FC7, size: 0x8, addend: 0x0, symName: '__ZNSt3__110__function6__funcIZNK11llama_model10print_infoEvE3$_5NS_9allocatorIS3_EEFjjEED0Ev', symObjAddr: 0x3E390, symBinAddr: 0xA0CCC, symSize: 0x4 }
  - { offset: 0x4C807C, size: 0x8, addend: 0x0, symName: '__ZNKSt3__110__function6__funcIZNK11llama_model10print_infoEvE3$_5NS_9allocatorIS3_EEFjjEE7__cloneEv', symObjAddr: 0x3E394, symBinAddr: 0xA0CD0, symSize: 0x34 }
  - { offset: 0x4C81C8, size: 0x8, addend: 0x0, symName: '__ZNKSt3__110__function6__funcIZNK11llama_model10print_infoEvE3$_5NS_9allocatorIS3_EEFjjEE7__cloneEPNS0_6__baseIS6_EE', symObjAddr: 0x3E3C8, symBinAddr: 0xA0D04, symSize: 0x14 }
  - { offset: 0x4C8235, size: 0x8, addend: 0x0, symName: '__ZNSt3__110__function6__funcIZNK11llama_model10print_infoEvE3$_5NS_9allocatorIS3_EEFjjEE7destroyEv', symObjAddr: 0x3E3DC, symBinAddr: 0xA0D18, symSize: 0x4 }
  - { offset: 0x4C8284, size: 0x8, addend: 0x0, symName: '__ZNSt3__110__function6__funcIZNK11llama_model10print_infoEvE3$_5NS_9allocatorIS3_EEFjjEE18destroy_deallocateEv', symObjAddr: 0x3E3E0, symBinAddr: 0xA0D1C, symSize: 0x4 }
  - { offset: 0x4C82B9, size: 0x8, addend: 0x0, symName: '__ZNSt3__110__function6__funcIZNK11llama_model10print_infoEvE3$_5NS_9allocatorIS3_EEFjjEE18destroy_deallocateEv', symObjAddr: 0x3E3E0, symBinAddr: 0xA0D1C, symSize: 0x4 }
  - { offset: 0x4C82DC, size: 0x8, addend: 0x0, symName: '__ZNSt3__110__function6__funcIZNK11llama_model10print_infoEvE3$_5NS_9allocatorIS3_EEFjjEE18destroy_deallocateEv', symObjAddr: 0x3E3E0, symBinAddr: 0xA0D1C, symSize: 0x4 }
  - { offset: 0x4C8308, size: 0x8, addend: 0x0, symName: '__ZNSt3__110__function6__funcIZNK11llama_model10print_infoEvE3$_5NS_9allocatorIS3_EEFjjEE18destroy_deallocateEv', symObjAddr: 0x3E3E0, symBinAddr: 0xA0D1C, symSize: 0x4 }
  - { offset: 0x4C832E, size: 0x8, addend: 0x0, symName: '__ZNSt3__110__function6__funcIZNK11llama_model10print_infoEvE3$_5NS_9allocatorIS3_EEFjjEE18destroy_deallocateEv', symObjAddr: 0x3E3E0, symBinAddr: 0xA0D1C, symSize: 0x4 }
  - { offset: 0x4C83D2, size: 0x8, addend: 0x0, symName: '__ZNSt3__110__function6__funcIZNK11llama_model10print_infoEvE3$_5NS_9allocatorIS3_EEFjjEEclEOj', symObjAddr: 0x3E3E4, symBinAddr: 0xA0D20, symSize: 0x10 }
  - { offset: 0x4C8465, size: 0x8, addend: 0x0, symName: '__ZNKSt3__110__function6__funcIZNK11llama_model10print_infoEvE3$_5NS_9allocatorIS3_EEFjjEE6targetERKSt9type_info', symObjAddr: 0x3E3F4, symBinAddr: 0xA0D30, symSize: 0x64 }
  - { offset: 0x4C8519, size: 0x8, addend: 0x0, symName: '__ZNKSt3__110__function6__funcIZNK11llama_model10print_infoEvE3$_5NS_9allocatorIS3_EEFjjEE11target_typeEv', symObjAddr: 0x3E458, symBinAddr: 0xA0D94, symSize: 0xC }
  - { offset: 0x4C853C, size: 0x8, addend: 0x0, symName: '__ZNSt3__110__function6__funcIZNK11llama_model10print_infoEvE3$_6NS_9allocatorIS3_EEFjjEED1Ev', symObjAddr: 0x3E464, symBinAddr: 0xA0DA0, symSize: 0x4 }
  - { offset: 0x4C8567, size: 0x8, addend: 0x0, symName: '__ZNSt3__110__function6__funcIZNK11llama_model10print_infoEvE3$_6NS_9allocatorIS3_EEFjjEED0Ev', symObjAddr: 0x3E468, symBinAddr: 0xA0DA4, symSize: 0x4 }
  - { offset: 0x4C861C, size: 0x8, addend: 0x0, symName: '__ZNKSt3__110__function6__funcIZNK11llama_model10print_infoEvE3$_6NS_9allocatorIS3_EEFjjEE7__cloneEv', symObjAddr: 0x3E46C, symBinAddr: 0xA0DA8, symSize: 0x34 }
  - { offset: 0x4C8768, size: 0x8, addend: 0x0, symName: '__ZNKSt3__110__function6__funcIZNK11llama_model10print_infoEvE3$_6NS_9allocatorIS3_EEFjjEE7__cloneEPNS0_6__baseIS6_EE', symObjAddr: 0x3E4A0, symBinAddr: 0xA0DDC, symSize: 0x14 }
  - { offset: 0x4C87D5, size: 0x8, addend: 0x0, symName: '__ZNSt3__110__function6__funcIZNK11llama_model10print_infoEvE3$_6NS_9allocatorIS3_EEFjjEE7destroyEv', symObjAddr: 0x3E4B4, symBinAddr: 0xA0DF0, symSize: 0x4 }
  - { offset: 0x4C8824, size: 0x8, addend: 0x0, symName: '__ZNSt3__110__function6__funcIZNK11llama_model10print_infoEvE3$_6NS_9allocatorIS3_EEFjjEE18destroy_deallocateEv', symObjAddr: 0x3E4B8, symBinAddr: 0xA0DF4, symSize: 0x4 }
  - { offset: 0x4C8859, size: 0x8, addend: 0x0, symName: '__ZNSt3__110__function6__funcIZNK11llama_model10print_infoEvE3$_6NS_9allocatorIS3_EEFjjEE18destroy_deallocateEv', symObjAddr: 0x3E4B8, symBinAddr: 0xA0DF4, symSize: 0x4 }
  - { offset: 0x4C887C, size: 0x8, addend: 0x0, symName: '__ZNSt3__110__function6__funcIZNK11llama_model10print_infoEvE3$_6NS_9allocatorIS3_EEFjjEE18destroy_deallocateEv', symObjAddr: 0x3E4B8, symBinAddr: 0xA0DF4, symSize: 0x4 }
  - { offset: 0x4C88A8, size: 0x8, addend: 0x0, symName: '__ZNSt3__110__function6__funcIZNK11llama_model10print_infoEvE3$_6NS_9allocatorIS3_EEFjjEE18destroy_deallocateEv', symObjAddr: 0x3E4B8, symBinAddr: 0xA0DF4, symSize: 0x4 }
  - { offset: 0x4C88CE, size: 0x8, addend: 0x0, symName: '__ZNSt3__110__function6__funcIZNK11llama_model10print_infoEvE3$_6NS_9allocatorIS3_EEFjjEE18destroy_deallocateEv', symObjAddr: 0x3E4B8, symBinAddr: 0xA0DF4, symSize: 0x4 }
  - { offset: 0x4C8972, size: 0x8, addend: 0x0, symName: '__ZNSt3__110__function6__funcIZNK11llama_model10print_infoEvE3$_6NS_9allocatorIS3_EEFjjEEclEOj', symObjAddr: 0x3E4BC, symBinAddr: 0xA0DF8, symSize: 0x10 }
  - { offset: 0x4C8A05, size: 0x8, addend: 0x0, symName: '__ZNKSt3__110__function6__funcIZNK11llama_model10print_infoEvE3$_6NS_9allocatorIS3_EEFjjEE6targetERKSt9type_info', symObjAddr: 0x3E4CC, symBinAddr: 0xA0E08, symSize: 0x64 }
  - { offset: 0x4C8AB9, size: 0x8, addend: 0x0, symName: '__ZNKSt3__110__function6__funcIZNK11llama_model10print_infoEvE3$_6NS_9allocatorIS3_EEFjjEE11target_typeEv', symObjAddr: 0x3E530, symBinAddr: 0xA0E6C, symSize: 0xC }
  - { offset: 0x4C8ADC, size: 0x8, addend: 0x0, symName: '__ZNSt3__110__function6__funcIZNK11llama_model13create_memoryERK19llama_memory_paramsRK13llama_cparamsE3$_0NS_9allocatorIS9_EEFbiEED1Ev', symObjAddr: 0x3E53C, symBinAddr: 0xA0E78, symSize: 0x4 }
  - { offset: 0x4C8B07, size: 0x8, addend: 0x0, symName: '__ZNSt3__110__function6__funcIZNK11llama_model13create_memoryERK19llama_memory_paramsRK13llama_cparamsE3$_0NS_9allocatorIS9_EEFbiEED0Ev', symObjAddr: 0x3E540, symBinAddr: 0xA0E7C, symSize: 0x4 }
  - { offset: 0x4C8BBC, size: 0x8, addend: 0x0, symName: '__ZNKSt3__110__function6__funcIZNK11llama_model13create_memoryERK19llama_memory_paramsRK13llama_cparamsE3$_0NS_9allocatorIS9_EEFbiEE7__cloneEv', symObjAddr: 0x3E544, symBinAddr: 0xA0E80, symSize: 0x24 }
  - { offset: 0x4C8D04, size: 0x8, addend: 0x0, symName: '__ZNKSt3__110__function6__funcIZNK11llama_model13create_memoryERK19llama_memory_paramsRK13llama_cparamsE3$_0NS_9allocatorIS9_EEFbiEE7__cloneEPNS0_6__baseISC_EE', symObjAddr: 0x3E568, symBinAddr: 0xA0EA4, symSize: 0x10 }
  - { offset: 0x4C8D37, size: 0x8, addend: 0x0, symName: '__ZNKSt3__110__function6__funcIZNK11llama_model13create_memoryERK19llama_memory_paramsRK13llama_cparamsE3$_0NS_9allocatorIS9_EEFbiEE7__cloneEPNS0_6__baseISC_EE', symObjAddr: 0x3E568, symBinAddr: 0xA0EA4, symSize: 0x10 }
  - { offset: 0x4C8D53, size: 0x8, addend: 0x0, symName: '__ZNKSt3__110__function6__funcIZNK11llama_model13create_memoryERK19llama_memory_paramsRK13llama_cparamsE3$_0NS_9allocatorIS9_EEFbiEE7__cloneEPNS0_6__baseISC_EE', symObjAddr: 0x3E568, symBinAddr: 0xA0EA4, symSize: 0x10 }
  - { offset: 0x4C8D6F, size: 0x8, addend: 0x0, symName: '__ZNSt3__110__function6__funcIZNK11llama_model13create_memoryERK19llama_memory_paramsRK13llama_cparamsE3$_0NS_9allocatorIS9_EEFbiEE7destroyEv', symObjAddr: 0x3E578, symBinAddr: 0xA0EB4, symSize: 0x4 }
  - { offset: 0x4C8DBE, size: 0x8, addend: 0x0, symName: '__ZNSt3__110__function6__funcIZNK11llama_model13create_memoryERK19llama_memory_paramsRK13llama_cparamsE3$_0NS_9allocatorIS9_EEFbiEE18destroy_deallocateEv', symObjAddr: 0x3E57C, symBinAddr: 0xA0EB8, symSize: 0x4 }
  - { offset: 0x4C8DF3, size: 0x8, addend: 0x0, symName: '__ZNSt3__110__function6__funcIZNK11llama_model13create_memoryERK19llama_memory_paramsRK13llama_cparamsE3$_0NS_9allocatorIS9_EEFbiEE18destroy_deallocateEv', symObjAddr: 0x3E57C, symBinAddr: 0xA0EB8, symSize: 0x4 }
  - { offset: 0x4C8E16, size: 0x8, addend: 0x0, symName: '__ZNSt3__110__function6__funcIZNK11llama_model13create_memoryERK19llama_memory_paramsRK13llama_cparamsE3$_0NS_9allocatorIS9_EEFbiEE18destroy_deallocateEv', symObjAddr: 0x3E57C, symBinAddr: 0xA0EB8, symSize: 0x4 }
  - { offset: 0x4C8E42, size: 0x8, addend: 0x0, symName: '__ZNSt3__110__function6__funcIZNK11llama_model13create_memoryERK19llama_memory_paramsRK13llama_cparamsE3$_0NS_9allocatorIS9_EEFbiEE18destroy_deallocateEv', symObjAddr: 0x3E57C, symBinAddr: 0xA0EB8, symSize: 0x4 }
  - { offset: 0x4C8E68, size: 0x8, addend: 0x0, symName: '__ZNSt3__110__function6__funcIZNK11llama_model13create_memoryERK19llama_memory_paramsRK13llama_cparamsE3$_0NS_9allocatorIS9_EEFbiEE18destroy_deallocateEv', symObjAddr: 0x3E57C, symBinAddr: 0xA0EB8, symSize: 0x4 }
  - { offset: 0x4C8E92, size: 0x8, addend: 0x0, symName: '__ZNSt3__110__function6__funcIZNK11llama_model13create_memoryERK19llama_memory_paramsRK13llama_cparamsE3$_0NS_9allocatorIS9_EEFbiEEclEOi', symObjAddr: 0x3E580, symBinAddr: 0xA0EBC, symSize: 0x8 }
  - { offset: 0x4C8EC1, size: 0x8, addend: 0x0, symName: '__ZNKSt3__110__function6__funcIZNK11llama_model13create_memoryERK19llama_memory_paramsRK13llama_cparamsE3$_0NS_9allocatorIS9_EEFbiEE6targetERKSt9type_info', symObjAddr: 0x3E588, symBinAddr: 0xA0EC4, symSize: 0x64 }
  - { offset: 0x4C8F75, size: 0x8, addend: 0x0, symName: '__ZNKSt3__110__function6__funcIZNK11llama_model13create_memoryERK19llama_memory_paramsRK13llama_cparamsE3$_0NS_9allocatorIS9_EEFbiEE11target_typeEv', symObjAddr: 0x3E5EC, symBinAddr: 0xA0F28, symSize: 0xC }
  - { offset: 0x4C8F9D, size: 0x8, addend: 0x0, symName: '__ZNSt3__110__function6__funcIZNK11llama_model13create_memoryERK19llama_memory_paramsRK13llama_cparamsE3$_1NS_9allocatorIS9_EEFbiEED1Ev', symObjAddr: 0x3E798, symBinAddr: 0xA10D4, symSize: 0x4 }
  - { offset: 0x4C8FC8, size: 0x8, addend: 0x0, symName: '__ZNSt3__110__function6__funcIZNK11llama_model13create_memoryERK19llama_memory_paramsRK13llama_cparamsE3$_1NS_9allocatorIS9_EEFbiEED0Ev', symObjAddr: 0x3E79C, symBinAddr: 0xA10D8, symSize: 0x4 }
  - { offset: 0x4C907D, size: 0x8, addend: 0x0, symName: '__ZNKSt3__110__function6__funcIZNK11llama_model13create_memoryERK19llama_memory_paramsRK13llama_cparamsE3$_1NS_9allocatorIS9_EEFbiEE7__cloneEv', symObjAddr: 0x3E7A0, symBinAddr: 0xA10DC, symSize: 0x24 }
  - { offset: 0x4C91C5, size: 0x8, addend: 0x0, symName: '__ZNKSt3__110__function6__funcIZNK11llama_model13create_memoryERK19llama_memory_paramsRK13llama_cparamsE3$_1NS_9allocatorIS9_EEFbiEE7__cloneEPNS0_6__baseISC_EE', symObjAddr: 0x3E7C4, symBinAddr: 0xA1100, symSize: 0x10 }
  - { offset: 0x4C91F8, size: 0x8, addend: 0x0, symName: '__ZNKSt3__110__function6__funcIZNK11llama_model13create_memoryERK19llama_memory_paramsRK13llama_cparamsE3$_1NS_9allocatorIS9_EEFbiEE7__cloneEPNS0_6__baseISC_EE', symObjAddr: 0x3E7C4, symBinAddr: 0xA1100, symSize: 0x10 }
  - { offset: 0x4C9214, size: 0x8, addend: 0x0, symName: '__ZNKSt3__110__function6__funcIZNK11llama_model13create_memoryERK19llama_memory_paramsRK13llama_cparamsE3$_1NS_9allocatorIS9_EEFbiEE7__cloneEPNS0_6__baseISC_EE', symObjAddr: 0x3E7C4, symBinAddr: 0xA1100, symSize: 0x10 }
  - { offset: 0x4C9230, size: 0x8, addend: 0x0, symName: '__ZNSt3__110__function6__funcIZNK11llama_model13create_memoryERK19llama_memory_paramsRK13llama_cparamsE3$_1NS_9allocatorIS9_EEFbiEE7destroyEv', symObjAddr: 0x3E7D4, symBinAddr: 0xA1110, symSize: 0x4 }
  - { offset: 0x4C927F, size: 0x8, addend: 0x0, symName: '__ZNSt3__110__function6__funcIZNK11llama_model13create_memoryERK19llama_memory_paramsRK13llama_cparamsE3$_1NS_9allocatorIS9_EEFbiEE18destroy_deallocateEv', symObjAddr: 0x3E7D8, symBinAddr: 0xA1114, symSize: 0x4 }
  - { offset: 0x4C92B4, size: 0x8, addend: 0x0, symName: '__ZNSt3__110__function6__funcIZNK11llama_model13create_memoryERK19llama_memory_paramsRK13llama_cparamsE3$_1NS_9allocatorIS9_EEFbiEE18destroy_deallocateEv', symObjAddr: 0x3E7D8, symBinAddr: 0xA1114, symSize: 0x4 }
  - { offset: 0x4C92D7, size: 0x8, addend: 0x0, symName: '__ZNSt3__110__function6__funcIZNK11llama_model13create_memoryERK19llama_memory_paramsRK13llama_cparamsE3$_1NS_9allocatorIS9_EEFbiEE18destroy_deallocateEv', symObjAddr: 0x3E7D8, symBinAddr: 0xA1114, symSize: 0x4 }
  - { offset: 0x4C9303, size: 0x8, addend: 0x0, symName: '__ZNSt3__110__function6__funcIZNK11llama_model13create_memoryERK19llama_memory_paramsRK13llama_cparamsE3$_1NS_9allocatorIS9_EEFbiEE18destroy_deallocateEv', symObjAddr: 0x3E7D8, symBinAddr: 0xA1114, symSize: 0x4 }
  - { offset: 0x4C9329, size: 0x8, addend: 0x0, symName: '__ZNSt3__110__function6__funcIZNK11llama_model13create_memoryERK19llama_memory_paramsRK13llama_cparamsE3$_1NS_9allocatorIS9_EEFbiEE18destroy_deallocateEv', symObjAddr: 0x3E7D8, symBinAddr: 0xA1114, symSize: 0x4 }
  - { offset: 0x4C9353, size: 0x8, addend: 0x0, symName: '__ZNSt3__110__function6__funcIZNK11llama_model13create_memoryERK19llama_memory_paramsRK13llama_cparamsE3$_1NS_9allocatorIS9_EEFbiEEclEOi', symObjAddr: 0x3E7DC, symBinAddr: 0xA1118, symSize: 0x8 }
  - { offset: 0x4C9382, size: 0x8, addend: 0x0, symName: '__ZNKSt3__110__function6__funcIZNK11llama_model13create_memoryERK19llama_memory_paramsRK13llama_cparamsE3$_1NS_9allocatorIS9_EEFbiEE6targetERKSt9type_info', symObjAddr: 0x3E7E4, symBinAddr: 0xA1120, symSize: 0x64 }
  - { offset: 0x4C9436, size: 0x8, addend: 0x0, symName: '__ZNKSt3__110__function6__funcIZNK11llama_model13create_memoryERK19llama_memory_paramsRK13llama_cparamsE3$_1NS_9allocatorIS9_EEFbiEE11target_typeEv', symObjAddr: 0x3E848, symBinAddr: 0xA1184, symSize: 0xC }
  - { offset: 0x4C9459, size: 0x8, addend: 0x0, symName: '__ZNSt3__110__function6__funcIZNK11llama_model13create_memoryERK19llama_memory_paramsRK13llama_cparamsE3$_2NS_9allocatorIS9_EEFbiEED1Ev', symObjAddr: 0x3E854, symBinAddr: 0xA1190, symSize: 0x4 }
  - { offset: 0x4C9484, size: 0x8, addend: 0x0, symName: '__ZNSt3__110__function6__funcIZNK11llama_model13create_memoryERK19llama_memory_paramsRK13llama_cparamsE3$_2NS_9allocatorIS9_EEFbiEED0Ev', symObjAddr: 0x3E858, symBinAddr: 0xA1194, symSize: 0x4 }
  - { offset: 0x4C9539, size: 0x8, addend: 0x0, symName: '__ZNKSt3__110__function6__funcIZNK11llama_model13create_memoryERK19llama_memory_paramsRK13llama_cparamsE3$_2NS_9allocatorIS9_EEFbiEE7__cloneEv', symObjAddr: 0x3E85C, symBinAddr: 0xA1198, symSize: 0x34 }
  - { offset: 0x4C9685, size: 0x8, addend: 0x0, symName: '__ZNKSt3__110__function6__funcIZNK11llama_model13create_memoryERK19llama_memory_paramsRK13llama_cparamsE3$_2NS_9allocatorIS9_EEFbiEE7__cloneEPNS0_6__baseISC_EE', symObjAddr: 0x3E890, symBinAddr: 0xA11CC, symSize: 0x14 }
  - { offset: 0x4C96F2, size: 0x8, addend: 0x0, symName: '__ZNSt3__110__function6__funcIZNK11llama_model13create_memoryERK19llama_memory_paramsRK13llama_cparamsE3$_2NS_9allocatorIS9_EEFbiEE7destroyEv', symObjAddr: 0x3E8A4, symBinAddr: 0xA11E0, symSize: 0x4 }
  - { offset: 0x4C9741, size: 0x8, addend: 0x0, symName: '__ZNSt3__110__function6__funcIZNK11llama_model13create_memoryERK19llama_memory_paramsRK13llama_cparamsE3$_2NS_9allocatorIS9_EEFbiEE18destroy_deallocateEv', symObjAddr: 0x3E8A8, symBinAddr: 0xA11E4, symSize: 0x4 }
  - { offset: 0x4C9776, size: 0x8, addend: 0x0, symName: '__ZNSt3__110__function6__funcIZNK11llama_model13create_memoryERK19llama_memory_paramsRK13llama_cparamsE3$_2NS_9allocatorIS9_EEFbiEE18destroy_deallocateEv', symObjAddr: 0x3E8A8, symBinAddr: 0xA11E4, symSize: 0x4 }
  - { offset: 0x4C9799, size: 0x8, addend: 0x0, symName: '__ZNSt3__110__function6__funcIZNK11llama_model13create_memoryERK19llama_memory_paramsRK13llama_cparamsE3$_2NS_9allocatorIS9_EEFbiEE18destroy_deallocateEv', symObjAddr: 0x3E8A8, symBinAddr: 0xA11E4, symSize: 0x4 }
  - { offset: 0x4C97C5, size: 0x8, addend: 0x0, symName: '__ZNSt3__110__function6__funcIZNK11llama_model13create_memoryERK19llama_memory_paramsRK13llama_cparamsE3$_2NS_9allocatorIS9_EEFbiEE18destroy_deallocateEv', symObjAddr: 0x3E8A8, symBinAddr: 0xA11E4, symSize: 0x4 }
  - { offset: 0x4C97EB, size: 0x8, addend: 0x0, symName: '__ZNSt3__110__function6__funcIZNK11llama_model13create_memoryERK19llama_memory_paramsRK13llama_cparamsE3$_2NS_9allocatorIS9_EEFbiEE18destroy_deallocateEv', symObjAddr: 0x3E8A8, symBinAddr: 0xA11E4, symSize: 0x4 }
  - { offset: 0x4C988F, size: 0x8, addend: 0x0, symName: '__ZNSt3__110__function6__funcIZNK11llama_model13create_memoryERK19llama_memory_paramsRK13llama_cparamsE3$_2NS_9allocatorIS9_EEFbiEEclEOi', symObjAddr: 0x3E8AC, symBinAddr: 0xA11E8, symSize: 0x54 }
  - { offset: 0x4C9904, size: 0x8, addend: 0x0, symName: '__ZNKSt3__110__function6__funcIZNK11llama_model13create_memoryERK19llama_memory_paramsRK13llama_cparamsE3$_2NS_9allocatorIS9_EEFbiEE6targetERKSt9type_info', symObjAddr: 0x3E900, symBinAddr: 0xA123C, symSize: 0x64 }
  - { offset: 0x4C99B8, size: 0x8, addend: 0x0, symName: '__ZNKSt3__110__function6__funcIZNK11llama_model13create_memoryERK19llama_memory_paramsRK13llama_cparamsE3$_2NS_9allocatorIS9_EEFbiEE11target_typeEv', symObjAddr: 0x3E964, symBinAddr: 0xA12A0, symSize: 0xC }
  - { offset: 0x4C99DB, size: 0x8, addend: 0x0, symName: '__ZNSt3__110__function6__funcIZNK11llama_model13create_memoryERK19llama_memory_paramsRK13llama_cparamsE3$_3NS_9allocatorIS9_EEFbiEED1Ev', symObjAddr: 0x3E970, symBinAddr: 0xA12AC, symSize: 0x4 }
  - { offset: 0x4C9A06, size: 0x8, addend: 0x0, symName: '__ZNSt3__110__function6__funcIZNK11llama_model13create_memoryERK19llama_memory_paramsRK13llama_cparamsE3$_3NS_9allocatorIS9_EEFbiEED0Ev', symObjAddr: 0x3E974, symBinAddr: 0xA12B0, symSize: 0x4 }
  - { offset: 0x4C9ABB, size: 0x8, addend: 0x0, symName: '__ZNKSt3__110__function6__funcIZNK11llama_model13create_memoryERK19llama_memory_paramsRK13llama_cparamsE3$_3NS_9allocatorIS9_EEFbiEE7__cloneEv', symObjAddr: 0x3E978, symBinAddr: 0xA12B4, symSize: 0x34 }
  - { offset: 0x4C9C07, size: 0x8, addend: 0x0, symName: '__ZNKSt3__110__function6__funcIZNK11llama_model13create_memoryERK19llama_memory_paramsRK13llama_cparamsE3$_3NS_9allocatorIS9_EEFbiEE7__cloneEPNS0_6__baseISC_EE', symObjAddr: 0x3E9AC, symBinAddr: 0xA12E8, symSize: 0x14 }
  - { offset: 0x4C9C74, size: 0x8, addend: 0x0, symName: '__ZNSt3__110__function6__funcIZNK11llama_model13create_memoryERK19llama_memory_paramsRK13llama_cparamsE3$_3NS_9allocatorIS9_EEFbiEE7destroyEv', symObjAddr: 0x3E9C0, symBinAddr: 0xA12FC, symSize: 0x4 }
  - { offset: 0x4C9CC3, size: 0x8, addend: 0x0, symName: '__ZNSt3__110__function6__funcIZNK11llama_model13create_memoryERK19llama_memory_paramsRK13llama_cparamsE3$_3NS_9allocatorIS9_EEFbiEE18destroy_deallocateEv', symObjAddr: 0x3E9C4, symBinAddr: 0xA1300, symSize: 0x4 }
  - { offset: 0x4C9CF8, size: 0x8, addend: 0x0, symName: '__ZNSt3__110__function6__funcIZNK11llama_model13create_memoryERK19llama_memory_paramsRK13llama_cparamsE3$_3NS_9allocatorIS9_EEFbiEE18destroy_deallocateEv', symObjAddr: 0x3E9C4, symBinAddr: 0xA1300, symSize: 0x4 }
  - { offset: 0x4C9D1B, size: 0x8, addend: 0x0, symName: '__ZNSt3__110__function6__funcIZNK11llama_model13create_memoryERK19llama_memory_paramsRK13llama_cparamsE3$_3NS_9allocatorIS9_EEFbiEE18destroy_deallocateEv', symObjAddr: 0x3E9C4, symBinAddr: 0xA1300, symSize: 0x4 }
  - { offset: 0x4C9D47, size: 0x8, addend: 0x0, symName: '__ZNSt3__110__function6__funcIZNK11llama_model13create_memoryERK19llama_memory_paramsRK13llama_cparamsE3$_3NS_9allocatorIS9_EEFbiEE18destroy_deallocateEv', symObjAddr: 0x3E9C4, symBinAddr: 0xA1300, symSize: 0x4 }
  - { offset: 0x4C9D6D, size: 0x8, addend: 0x0, symName: '__ZNSt3__110__function6__funcIZNK11llama_model13create_memoryERK19llama_memory_paramsRK13llama_cparamsE3$_3NS_9allocatorIS9_EEFbiEE18destroy_deallocateEv', symObjAddr: 0x3E9C4, symBinAddr: 0xA1300, symSize: 0x4 }
  - { offset: 0x4C9E11, size: 0x8, addend: 0x0, symName: '__ZNSt3__110__function6__funcIZNK11llama_model13create_memoryERK19llama_memory_paramsRK13llama_cparamsE3$_3NS_9allocatorIS9_EEFbiEEclEOi', symObjAddr: 0x3E9C8, symBinAddr: 0xA1304, symSize: 0x44 }
  - { offset: 0x4C9EA4, size: 0x8, addend: 0x0, symName: '__ZNKSt3__110__function6__funcIZNK11llama_model13create_memoryERK19llama_memory_paramsRK13llama_cparamsE3$_3NS_9allocatorIS9_EEFbiEE6targetERKSt9type_info', symObjAddr: 0x3EA0C, symBinAddr: 0xA1348, symSize: 0x64 }
  - { offset: 0x4C9F58, size: 0x8, addend: 0x0, symName: '__ZNKSt3__110__function6__funcIZNK11llama_model13create_memoryERK19llama_memory_paramsRK13llama_cparamsE3$_3NS_9allocatorIS9_EEFbiEE11target_typeEv', symObjAddr: 0x3EA70, symBinAddr: 0xA13AC, symSize: 0xC }
  - { offset: 0x4C9F7B, size: 0x8, addend: 0x0, symName: '__ZNSt3__110__function6__funcIZNK11llama_model13create_memoryERK19llama_memory_paramsRK13llama_cparamsE3$_4NS_9allocatorIS9_EEFiiEED1Ev', symObjAddr: 0x3EA7C, symBinAddr: 0xA13B8, symSize: 0x4 }
  - { offset: 0x4C9FA6, size: 0x8, addend: 0x0, symName: '__ZNSt3__110__function6__funcIZNK11llama_model13create_memoryERK19llama_memory_paramsRK13llama_cparamsE3$_4NS_9allocatorIS9_EEFiiEED0Ev', symObjAddr: 0x3EA80, symBinAddr: 0xA13BC, symSize: 0x4 }
  - { offset: 0x4CA05B, size: 0x8, addend: 0x0, symName: '__ZNKSt3__110__function6__funcIZNK11llama_model13create_memoryERK19llama_memory_paramsRK13llama_cparamsE3$_4NS_9allocatorIS9_EEFiiEE7__cloneEv', symObjAddr: 0x3EA84, symBinAddr: 0xA13C0, symSize: 0x34 }
  - { offset: 0x4CA1A7, size: 0x8, addend: 0x0, symName: '__ZNKSt3__110__function6__funcIZNK11llama_model13create_memoryERK19llama_memory_paramsRK13llama_cparamsE3$_4NS_9allocatorIS9_EEFiiEE7__cloneEPNS0_6__baseISC_EE', symObjAddr: 0x3EAB8, symBinAddr: 0xA13F4, symSize: 0x14 }
  - { offset: 0x4CA214, size: 0x8, addend: 0x0, symName: '__ZNSt3__110__function6__funcIZNK11llama_model13create_memoryERK19llama_memory_paramsRK13llama_cparamsE3$_4NS_9allocatorIS9_EEFiiEE7destroyEv', symObjAddr: 0x3EACC, symBinAddr: 0xA1408, symSize: 0x4 }
  - { offset: 0x4CA263, size: 0x8, addend: 0x0, symName: '__ZNSt3__110__function6__funcIZNK11llama_model13create_memoryERK19llama_memory_paramsRK13llama_cparamsE3$_4NS_9allocatorIS9_EEFiiEE18destroy_deallocateEv', symObjAddr: 0x3EAD0, symBinAddr: 0xA140C, symSize: 0x4 }
  - { offset: 0x4CA298, size: 0x8, addend: 0x0, symName: '__ZNSt3__110__function6__funcIZNK11llama_model13create_memoryERK19llama_memory_paramsRK13llama_cparamsE3$_4NS_9allocatorIS9_EEFiiEE18destroy_deallocateEv', symObjAddr: 0x3EAD0, symBinAddr: 0xA140C, symSize: 0x4 }
  - { offset: 0x4CA2BB, size: 0x8, addend: 0x0, symName: '__ZNSt3__110__function6__funcIZNK11llama_model13create_memoryERK19llama_memory_paramsRK13llama_cparamsE3$_4NS_9allocatorIS9_EEFiiEE18destroy_deallocateEv', symObjAddr: 0x3EAD0, symBinAddr: 0xA140C, symSize: 0x4 }
  - { offset: 0x4CA2E7, size: 0x8, addend: 0x0, symName: '__ZNSt3__110__function6__funcIZNK11llama_model13create_memoryERK19llama_memory_paramsRK13llama_cparamsE3$_4NS_9allocatorIS9_EEFiiEE18destroy_deallocateEv', symObjAddr: 0x3EAD0, symBinAddr: 0xA140C, symSize: 0x4 }
  - { offset: 0x4CA30D, size: 0x8, addend: 0x0, symName: '__ZNSt3__110__function6__funcIZNK11llama_model13create_memoryERK19llama_memory_paramsRK13llama_cparamsE3$_4NS_9allocatorIS9_EEFiiEE18destroy_deallocateEv', symObjAddr: 0x3EAD0, symBinAddr: 0xA140C, symSize: 0x4 }
  - { offset: 0x4CA3B1, size: 0x8, addend: 0x0, symName: '__ZNSt3__110__function6__funcIZNK11llama_model13create_memoryERK19llama_memory_paramsRK13llama_cparamsE3$_4NS_9allocatorIS9_EEFiiEEclEOi', symObjAddr: 0x3EAD4, symBinAddr: 0xA1410, symSize: 0x54 }
  - { offset: 0x4CA426, size: 0x8, addend: 0x0, symName: '__ZNKSt3__110__function6__funcIZNK11llama_model13create_memoryERK19llama_memory_paramsRK13llama_cparamsE3$_4NS_9allocatorIS9_EEFiiEE6targetERKSt9type_info', symObjAddr: 0x3EB28, symBinAddr: 0xA1464, symSize: 0x64 }
  - { offset: 0x4CA4DA, size: 0x8, addend: 0x0, symName: '__ZNKSt3__110__function6__funcIZNK11llama_model13create_memoryERK19llama_memory_paramsRK13llama_cparamsE3$_4NS_9allocatorIS9_EEFiiEE11target_typeEv', symObjAddr: 0x3EB8C, symBinAddr: 0xA14C8, symSize: 0xC }
  - { offset: 0x4CA58B, size: 0x8, addend: 0x0, symName: __GLOBAL__sub_I_llama_model.cpp, symObjAddr: 0x473AC, symBinAddr: 0xA1674, symSize: 0x98 }
  - { offset: 0x4CCB68, size: 0x8, addend: 0x0, symName: __ZL25llama_model_quantize_implRKNSt3__112basic_stringIcNS_11char_traitsIcEENS_9allocatorIcEEEES7_PK27llama_model_quantize_params, symObjAddr: 0x25C, symBinAddr: 0xA1968, symSize: 0x5FBC }
  - { offset: 0x5060C0, size: 0x8, addend: 0x0, symName: '__ZNSt3__111__introsortINS_17_ClassicAlgPolicyERZL25llama_model_quantize_implRKNS_12basic_stringIcNS_11char_traitsIcEENS_9allocatorIcEEEES9_PK27llama_model_quantize_paramsE3$_0PPKN18llama_model_loader19llama_tensor_weightELb0EEEvT1_SK_T0_NS_15iterator_traitsISK_E15difference_typeEb', symObjAddr: 0x1261C, symBinAddr: 0xA8184, symSize: 0x9AC }
  - { offset: 0x506CA6, size: 0x8, addend: 0x0, symName: '__ZNSt3__127__insertion_sort_incompleteB8ne190102INS_17_ClassicAlgPolicyERZL25llama_model_quantize_implRKNS_12basic_stringIcNS_11char_traitsIcEENS_9allocatorIcEEEES9_PK27llama_model_quantize_paramsE3$_0PPKN18llama_model_loader19llama_tensor_weightEEEbT1_SK_T0_', symObjAddr: 0x13238, symBinAddr: 0xA8DA0, symSize: 0x284 }
  - { offset: 0x51D288, size: 0x8, addend: 0x0, symName: '__ZNSt3__17__sort3B8ne190102INS_17_ClassicAlgPolicyERZL25llama_model_quantize_implRKNS_12basic_stringIcNS_11char_traitsIcEENS_9allocatorIcEEEES9_PK27llama_model_quantize_paramsE3$_0PPKN18llama_model_loader19llama_tensor_weightEEEjT1_SK_SK_T0_', symObjAddr: 0x13158, symBinAddr: 0xA8CC0, symSize: 0xE0 }
  - { offset: 0x51D5E1, size: 0x8, addend: 0x0, symName: '__ZNSt3__124__sort5_maybe_branchlessB8ne190102INS_17_ClassicAlgPolicyERZL25llama_model_quantize_implRKNS_12basic_stringIcNS_11char_traitsIcEENS_9allocatorIcEEEES9_PK27llama_model_quantize_paramsE3$_0PPKN18llama_model_loader19llama_tensor_weightELi0EEEvT1_SK_SK_SK_SK_T0_', symObjAddr: 0x12FC8, symBinAddr: 0xA8B30, symSize: 0x190 }
  - { offset: 0x51E15E, size: 0x8, addend: 0x0, symName: '__ZNSt3__114__thread_proxyB8ne190102INS_5tupleIJNS_10unique_ptrINS_15__thread_structENS_14default_deleteIS3_EEEEZL28llama_tensor_dequantize_implP11ggml_tensorRNS_6vectorI7no_initIfENS_9allocatorISB_EEEERNS9_INS_6threadENSC_ISG_EEEEmiE3$_09ggml_typePhPfmEEEEEPvSP_', symObjAddr: 0x1780C, symBinAddr: 0xA9654, symSize: 0xB4 }
  - { offset: 0x51E5A3, size: 0x8, addend: 0x0, symName: '__ZNSt3__114__thread_proxyB8ne190102INS_5tupleIJNS_10unique_ptrINS_15__thread_structENS_14default_deleteIS3_EEEEZL26llama_tensor_quantize_impl9ggml_typePKfPvxxxS9_RNS_6vectorINS_6threadENS_9allocatorISC_EEEEiE3$_0EEEEESA_SA_', symObjAddr: 0x17A6C, symBinAddr: 0xA9878, symSize: 0x78 }
  - { offset: 0x5230AA, size: 0x8, addend: 0x0, symName: _llama_model_quantize_default_params, symObjAddr: 0x0, symBinAddr: 0xA170C, symSize: 0x30 }
  - { offset: 0x52334A, size: 0x8, addend: 0x0, symName: _llama_model_quantize, symObjAddr: 0x30, symBinAddr: 0xA173C, symSize: 0x22C }
  - { offset: 0x52B675, size: 0x8, addend: 0x0, symName: __ZNSt3__16vectorIiNS_9allocatorIiEEE18__assign_with_sizeB8ne190102IPiS5_EEvT_T0_l, symObjAddr: 0x6B14, symBinAddr: 0xA8024, symSize: 0x14C }
  - { offset: 0x52CAC2, size: 0x8, addend: 0x0, symName: '__ZZL25llama_model_quantize_implRKNSt3__112basic_stringIcNS_11char_traitsIcEENS_9allocatorIcEEEES7_PK27llama_model_quantize_paramsENK3$_2clEi', symObjAddr: 0x6314, symBinAddr: 0xA7924, symSize: 0x3C8 }
  - { offset: 0x52D928, size: 0x8, addend: 0x0, symName: '__ZZL25llama_model_quantize_implRKNSt3__112basic_stringIcNS_11char_traitsIcEENS_9allocatorIcEEEES7_PK27llama_model_quantize_paramsENK3$_1clEv', symObjAddr: 0x66DC, symBinAddr: 0xA7CEC, symSize: 0x218 }
  - { offset: 0x52E171, size: 0x8, addend: 0x0, symName: __ZNKSt3__112__hash_tableINS_17__hash_value_typeINS_12basic_stringIcNS_11char_traitsIcEENS_9allocatorIcEEEENS_6vectorIfNS5_IfEEEEEENS_22__unordered_map_hasherIS7_SB_NS_4hashIS7_EENS_8equal_toIS7_EELb1EEENS_21__unordered_map_equalIS7_SB_SG_SE_Lb1EEENS5_ISB_EEE4findIS7_EENS_21__hash_const_iteratorIPNS_11__hash_nodeISB_PvEEEERKT_, symObjAddr: 0x170F8, symBinAddr: 0xA938C, symSize: 0x1B4 }
  - { offset: 0x52E47A, size: 0x8, addend: 0x0, symName: __ZNSt3__16vectorI7no_initIfENS_9allocatorIS2_EEE8__appendEm, symObjAddr: 0x176F8, symBinAddr: 0xA9540, symSize: 0x100 }
  - { offset: 0x52E819, size: 0x8, addend: 0x0, symName: __ZNKSt3__16vectorI7no_initIfENS_9allocatorIS2_EEE20__throw_length_errorB8ne190102Ev, symObjAddr: 0x177F8, symBinAddr: 0xA9640, symSize: 0x14 }
  - { offset: 0x52EB1C, size: 0x8, addend: 0x0, symName: '__ZZL21llama_tensor_get_typeR19quantize_state_impl9ggml_typePK11ggml_tensor11llama_ftypeENK3$_1clEiiPKc', symObjAddr: 0x136E8, symBinAddr: 0xA9228, symSize: 0x164 }
  - { offset: 0x52EE59, size: 0x8, addend: 0x0, symName: __ZNSt3__16__treeINS_12__value_typeIiNS_12basic_stringIcNS_11char_traitsIcEENS_9allocatorIcEEEEEENS_19__map_value_compareIiS8_NS_4lessIiEELb1EEENS5_IS8_EEE7destroyEPNS_11__tree_nodeIS8_PvEE, symObjAddr: 0x17B2C, symBinAddr: 0xA9938, symSize: 0x60 }
  - { offset: 0x52F0D1, size: 0x8, addend: 0x0, symName: __ZN18llama_model_loaderD2Ev, symObjAddr: 0x17B8C, symBinAddr: 0xA9998, symSize: 0x1AC }
  - { offset: 0x52FE78, size: 0x8, addend: 0x0, symName: __ZNKSt3__16vectorINS_6threadENS_9allocatorIS1_EEE20__throw_length_errorB8ne190102Ev, symObjAddr: 0x134BC, symBinAddr: 0xA9024, symSize: 0x14 }
  - { offset: 0x52FEA2, size: 0x8, addend: 0x0, symName: __ZNSt3__114__split_bufferINS_6threadERNS_9allocatorIS1_EEED1Ev, symObjAddr: 0x134D0, symBinAddr: 0xA9038, symSize: 0x50 }
  - { offset: 0x52FEDD, size: 0x8, addend: 0x0, symName: __ZNKSt3__16vectorIPKN18llama_model_loader19llama_tensor_weightENS_9allocatorIS4_EEE20__throw_length_errorB8ne190102Ev, symObjAddr: 0x6D10, symBinAddr: 0xA8170, symSize: 0x14 }
  - { offset: 0x52FF2A, size: 0x8, addend: 0x0, symName: '__ZZL21llama_tensor_get_typeR19quantize_state_impl9ggml_typePK11ggml_tensor11llama_ftypeENK3$_1clEiiPKc', symObjAddr: 0x136E8, symBinAddr: 0xA9228, symSize: 0x164 }
  - { offset: 0x52FF35, size: 0x8, addend: 0x0, symName: __ZNSt3__128__exception_guard_exceptionsINS_6vectorINS_10unique_ptrI12gguf_context20gguf_context_deleterEENS_9allocatorIS5_EEE16__destroy_vectorEED1B8ne190102Ev, symObjAddr: 0x13520, symBinAddr: 0xA9088, symSize: 0x80 }
  - { offset: 0x53012D, size: 0x8, addend: 0x0, symName: '__ZNSt3__110unique_ptrINS_5tupleIJNS0_INS_15__thread_structENS_14default_deleteIS2_EEEEZL28llama_tensor_dequantize_implP11ggml_tensorRNS_6vectorI7no_initIfENS_9allocatorISA_EEEERNS8_INS_6threadENSB_ISF_EEEEmiE3$_09ggml_typePhPfmEEENS3_ISN_EEED1B8ne190102Ev', symObjAddr: 0x178C0, symBinAddr: 0xA9708, symSize: 0x48 }
  - { offset: 0x53032C, size: 0x8, addend: 0x0, symName: __ZNSt3__114__split_bufferINS_6threadERNS_9allocatorIS1_EEED1Ev, symObjAddr: 0x134D0, symBinAddr: 0xA9038, symSize: 0x50 }
  - { offset: 0x530548, size: 0x8, addend: 0x0, symName: '__ZNSt3__110unique_ptrINS_5tupleIJNS0_INS_15__thread_structENS_14default_deleteIS2_EEEEZL26llama_tensor_quantize_impl9ggml_typePKfPvxxxS8_RNS_6vectorINS_6threadENS_9allocatorISB_EEEEiE3$_0EEENS3_ISH_EEED1B8ne190102Ev', symObjAddr: 0x17AE4, symBinAddr: 0xA98F0, symSize: 0x48 }
  - { offset: 0x5306F0, size: 0x8, addend: 0x0, symName: __ZNSt3__114basic_ofstreamIcNS_11char_traitsIcEEED1Ev, symObjAddr: 0x6950, symBinAddr: 0xA7F04, symSize: 0x58 }
  - { offset: 0x530738, size: 0x8, addend: 0x0, symName: __ZNSt3__16vectorINS_10unique_ptrI12gguf_context20gguf_context_deleterEENS_9allocatorIS4_EEED1B8ne190102Ev, symObjAddr: 0x69A8, symBinAddr: 0xA7F5C, symSize: 0x70 }
  - { offset: 0x530920, size: 0x8, addend: 0x0, symName: __ZNSt3__16vectorINS_6threadENS_9allocatorIS1_EEED1B8ne190102Ev, symObjAddr: 0x6A18, symBinAddr: 0xA7FCC, symSize: 0x58 }
  - { offset: 0x531064, size: 0x8, addend: 0x0, symName: __ZNSt3__114basic_ofstreamIcNS_11char_traitsIcEEEC1ERKNS_12basic_stringIcS2_NS_9allocatorIcEEEEj, symObjAddr: 0x135A0, symBinAddr: 0xA9108, symSize: 0x120 }
  - { offset: 0x54DD95, size: 0x8, addend: 0x0, symName: __ZNKSt3__16vectorI7no_initIfENS_9allocatorIS2_EEE20__throw_length_errorB8ne190102Ev, symObjAddr: 0x177F8, symBinAddr: 0xA9640, symSize: 0x14 }
  - { offset: 0x54DDBF, size: 0x8, addend: 0x0, symName: '__ZNSt3__114__thread_proxyB8ne190102INS_5tupleIJNS_10unique_ptrINS_15__thread_structENS_14default_deleteIS3_EEEEZL28llama_tensor_dequantize_implP11ggml_tensorRNS_6vectorI7no_initIfENS_9allocatorISB_EEEERNS9_INS_6threadENSC_ISG_EEEEmiE3$_09ggml_typePhPfmEEEEEPvSP_', symObjAddr: 0x1780C, symBinAddr: 0xA9654, symSize: 0xB4 }
  - { offset: 0x54E024, size: 0x8, addend: 0x0, symName: '__ZZL26llama_tensor_quantize_impl9ggml_typePKfPvxxxS1_RNSt3__16vectorINS3_6threadENS3_9allocatorIS5_EEEEiENK3$_0clEv', symObjAddr: 0x17944, symBinAddr: 0xA9750, symSize: 0x128 }
  - { offset: 0x550CB3, size: 0x8, addend: 0x0, symName: __MergedGlobals, symObjAddr: 0x19CC0, symBinAddr: 0x2804E0, symSize: 0x0 }
  - { offset: 0x550DF8, size: 0x8, addend: 0x0, symName: __ZL22llama_sampler_greedy_i, symObjAddr: 0x19A20, symBinAddr: 0x280240, symSize: 0x0 }
  - { offset: 0x550E06, size: 0x8, addend: 0x0, symName: __ZL12get_rng_seedj, symObjAddr: 0x6E4, symBinAddr: 0xAA228, symSize: 0x160 }
  - { offset: 0x550E32, size: 0x8, addend: 0x0, symName: __MergedGlobals.113, symObjAddr: 0x1F8B68, symBinAddr: 0x302FD8, symSize: 0x0 }
  - { offset: 0x551209, size: 0x8, addend: 0x0, symName: __MergedGlobals, symObjAddr: 0x19CC0, symBinAddr: 0x2804E0, symSize: 0x0 }
  - { offset: 0x551226, size: 0x8, addend: 0x0, symName: __ZL21llama_sampler_top_k_i, symObjAddr: 0x19A50, symBinAddr: 0x280270, symSize: 0x0 }
  - { offset: 0x551234, size: 0x8, addend: 0x0, symName: __ZL43llama_token_data_array_partial_sort_inplaceP22llama_token_data_arrayi, symObjAddr: 0x3090, symBinAddr: 0xACB7C, symSize: 0x4BC }
  - { offset: 0x551971, size: 0x8, addend: 0x0, symName: __ZL35llama_token_data_array_partial_sortRK22llama_token_data_arrayiRNSt3__16vectorI16llama_token_dataNS2_9allocatorIS4_EEEE, symObjAddr: 0x354C, symBinAddr: 0xAD038, symSize: 0x604 }
  - { offset: 0x569184, size: 0x8, addend: 0x0, symName: '__ZNSt3__111__introsortINS_17_ClassicAlgPolicyERZL35llama_token_data_array_partial_sortRK22llama_token_data_arrayiRNS_6vectorI16llama_token_dataNS_9allocatorIS6_EEEEE3$_0PS6_Lb0EEEvT1_SE_T0_NS_15iterator_traitsISE_E15difference_typeEb', symObjAddr: 0x3DAC, symBinAddr: 0xAD7E8, symSize: 0xCCC }
  - { offset: 0x56A52E, size: 0x8, addend: 0x0, symName: '__ZNSt3__127__insertion_sort_incompleteB8ne190102INS_17_ClassicAlgPolicyERZL35llama_token_data_array_partial_sortRK22llama_token_data_arrayiRNS_6vectorI16llama_token_dataNS_9allocatorIS6_EEEEE3$_0PS6_EEbT1_SE_T0_', symObjAddr: 0x4A78, symBinAddr: 0xAE4B4, symSize: 0x488 }
  - { offset: 0x56CD1E, size: 0x8, addend: 0x0, symName: '__ZNSt3__111__introsortINS_17_ClassicAlgPolicyERZL27llama_sampler_typical_applyP13llama_samplerP22llama_token_data_arrayE3$_0PmLb0EEEvT1_S9_T0_NS_15iterator_traitsIS9_E15difference_typeEb', symObjAddr: 0x63EC, symBinAddr: 0xAFE14, symSize: 0xAD8 }
  - { offset: 0x56E9CF, size: 0x8, addend: 0x0, symName: '__ZNSt3__127__insertion_sort_incompleteB8ne190102INS_17_ClassicAlgPolicyERZL27llama_sampler_typical_applyP13llama_samplerP22llama_token_data_arrayE3$_0PmEEbT1_S9_T0_', symObjAddr: 0x7060, symBinAddr: 0xB0A88, symSize: 0x358 }
  - { offset: 0x57924C, size: 0x8, addend: 0x0, symName: __ZNSt3__113regex_replaceB8ne190102INS_20back_insert_iteratorINS_12basic_stringIcNS_11char_traitsIcEENS_9allocatorIcEEEEEEPKcNS_12regex_traitsIcEEcEET_SD_T0_SE_RKNS_11basic_regexIT2_T1_EEPKSG_NS_15regex_constants15match_flag_typeE, symObjAddr: 0x12090, symBinAddr: 0xB2B88, symSize: 0x29C }
  - { offset: 0x57BCC5, size: 0x8, addend: 0x0, symName: '__ZNSt3__119__partial_sort_implB8ne190102INS_17_ClassicAlgPolicyERZL35llama_token_data_array_partial_sortRK22llama_token_data_arrayiRNS_6vectorI16llama_token_dataNS_9allocatorIS6_EEEEE3$_0PS6_SD_EET1_SE_SE_T2_OT0_', symObjAddr: 0x5080, symBinAddr: 0xAEABC, symSize: 0x40C }
  - { offset: 0x57C567, size: 0x8, addend: 0x0, symName: '__ZNSt3__17__sort4B8ne190102INS_17_ClassicAlgPolicyERZL35llama_token_data_array_partial_sortRK22llama_token_data_arrayiRNS_6vectorI16llama_token_dataNS_9allocatorIS6_EEEEE3$_0PS6_EEvT1_SE_SE_SE_T0_', symObjAddr: 0x4F00, symBinAddr: 0xAE93C, symSize: 0x180 }
  - { offset: 0x57D906, size: 0x8, addend: 0x0, symName: '__ZNSt3__124__sort5_maybe_branchlessB8ne190102INS_17_ClassicAlgPolicyERZL27llama_sampler_typical_applyP13llama_samplerP22llama_token_data_arrayE3$_0PmLi0EEEvT1_S9_S9_S9_S9_T0_', symObjAddr: 0x6EC4, symBinAddr: 0xB08EC, symSize: 0x19C }
  - { offset: 0x57D976, size: 0x8, addend: 0x0, symName: '__ZNSt3__124__sort5_maybe_branchlessB8ne190102INS_17_ClassicAlgPolicyERZL27llama_sampler_typical_applyP13llama_samplerP22llama_token_data_arrayE3$_0PmLi0EEEvT1_S9_S9_S9_S9_T0_', symObjAddr: 0x6EC4, symBinAddr: 0xB08EC, symSize: 0x19C }
  - { offset: 0x57D9AE, size: 0x8, addend: 0x0, symName: '__ZNSt3__124__sort5_maybe_branchlessB8ne190102INS_17_ClassicAlgPolicyERZL27llama_sampler_typical_applyP13llama_samplerP22llama_token_data_arrayE3$_0PmLi0EEEvT1_S9_S9_S9_S9_T0_', symObjAddr: 0x6EC4, symBinAddr: 0xB08EC, symSize: 0x19C }
  - { offset: 0x582E4B, size: 0x8, addend: 0x0, symName: __ZL21llama_sampler_top_p_i, symObjAddr: 0x19A80, symBinAddr: 0x2802A0, symSize: 0x0 }
  - { offset: 0x582E66, size: 0x8, addend: 0x0, symName: __ZL21llama_sampler_min_p_i, symObjAddr: 0x19AB0, symBinAddr: 0x2802D0, symSize: 0x0 }
  - { offset: 0x582E81, size: 0x8, addend: 0x0, symName: __ZL23llama_sampler_typical_i, symObjAddr: 0x19AE0, symBinAddr: 0x280300, symSize: 0x0 }
  - { offset: 0x582E9C, size: 0x8, addend: 0x0, symName: __ZL20llama_sampler_temp_i, symObjAddr: 0x19B10, symBinAddr: 0x280330, symSize: 0x0 }
  - { offset: 0x582EB7, size: 0x8, addend: 0x0, symName: __ZL24llama_sampler_temp_ext_i, symObjAddr: 0x19B40, symBinAddr: 0x280360, symSize: 0x0 }
  - { offset: 0x582ED2, size: 0x8, addend: 0x0, symName: __ZL19llama_sampler_xtc_i, symObjAddr: 0x19B70, symBinAddr: 0x280390, symSize: 0x0 }
  - { offset: 0x582EED, size: 0x8, addend: 0x0, symName: __MergedGlobals, symObjAddr: 0x19CC0, symBinAddr: 0x2804E0, symSize: 0x0 }
  - { offset: 0x582F0A, size: 0x8, addend: 0x0, symName: __MergedGlobals, symObjAddr: 0x19CC0, symBinAddr: 0x2804E0, symSize: 0x0 }
  - { offset: 0x582F1B, size: 0x8, addend: 0x0, symName: __ZL31llama_sampler_init_grammar_implPK11llama_vocabPKcS3_bPS3_mPKimS4_m, symObjAddr: 0xC74, symBinAddr: 0xAA7B8, symSize: 0x5EC }
  - { offset: 0x582F3C, size: 0x8, addend: 0x0, symName: __MergedGlobals.113, symObjAddr: 0x1F8B68, symBinAddr: 0x302FD8, symSize: 0x0 }
  - { offset: 0x584D82, size: 0x8, addend: 0x0, symName: __ZL23llama_sampler_grammar_i, symObjAddr: 0x19C90, symBinAddr: 0x2804B0, symSize: 0x0 }
  - { offset: 0x584D9D, size: 0x8, addend: 0x0, symName: __ZL25llama_sampler_penalties_i, symObjAddr: 0x19BA0, symBinAddr: 0x2803C0, symSize: 0x0 }
  - { offset: 0x584DBD, size: 0x8, addend: 0x0, symName: __ZL27llama_sampler_top_n_sigma_i, symObjAddr: 0x19BD0, symBinAddr: 0x2803F0, symSize: 0x0 }
  - { offset: 0x584DD8, size: 0x8, addend: 0x0, symName: __ZL19llama_sampler_dry_i, symObjAddr: 0x19C00, symBinAddr: 0x280420, symSize: 0x0 }
  - { offset: 0x584DF3, size: 0x8, addend: 0x0, symName: __ZL26llama_sampler_logit_bias_i, symObjAddr: 0x19C30, symBinAddr: 0x280450, symSize: 0x0 }
  - { offset: 0x584E0E, size: 0x8, addend: 0x0, symName: __ZL22llama_sampler_infill_i, symObjAddr: 0x19C60, symBinAddr: 0x280480, symSize: 0x0 }
  - { offset: 0x5864BB, size: 0x8, addend: 0x0, symName: __ZL17llama_sample_distP22llama_token_data_arrayRNSt3__123mersenne_twister_engineIjLm32ELm624ELm397ELm31ELj2567483615ELm11ELj4294967295ELm7ELj2636928640ELm15ELj4022730752ELm18ELj1812433253EEE, symObjAddr: 0x85B8, symBinAddr: 0xB1FE0, symSize: 0x1D8 }
  - { offset: 0x58806A, size: 0x8, addend: 0x0, symName: _llama_sampler_init, symObjAddr: 0x0, symBinAddr: 0xA9B44, symSize: 0x2C }
  - { offset: 0x588091, size: 0x8, addend: 0x0, symName: _llama_sampler_name, symObjAddr: 0x2C, symBinAddr: 0xA9B70, symSize: 0x1C }
  - { offset: 0x5880C9, size: 0x8, addend: 0x0, symName: _llama_sampler_accept, symObjAddr: 0x48, symBinAddr: 0xA9B8C, symSize: 0x14 }
  - { offset: 0x5880F8, size: 0x8, addend: 0x0, symName: _llama_sampler_apply, symObjAddr: 0x5C, symBinAddr: 0xA9BA0, symSize: 0x40 }
  - { offset: 0x58812D, size: 0x8, addend: 0x0, symName: _llama_sampler_reset, symObjAddr: 0x9C, symBinAddr: 0xA9BE0, symSize: 0x14 }
  - { offset: 0x58815A, size: 0x8, addend: 0x0, symName: _llama_sampler_reset, symObjAddr: 0x9C, symBinAddr: 0xA9BE0, symSize: 0x14 }
  - { offset: 0x5881A9, size: 0x8, addend: 0x0, symName: _llama_sampler_clone, symObjAddr: 0xB0, symBinAddr: 0xA9BF4, symSize: 0x5C }
  - { offset: 0x5881F9, size: 0x8, addend: 0x0, symName: _llama_sampler_free, symObjAddr: 0x10C, symBinAddr: 0xA9C50, symSize: 0x38 }
  - { offset: 0x58820C, size: 0x8, addend: 0x0, symName: _llama_sampler_free, symObjAddr: 0x10C, symBinAddr: 0xA9C50, symSize: 0x38 }
  - { offset: 0x5886D1, size: 0x8, addend: 0x0, symName: _llama_sampler_sample, symObjAddr: 0x144, symBinAddr: 0xA9C88, symSize: 0x2EC }
  - { offset: 0x589064, size: 0x8, addend: 0x0, symName: __ZNKSt3__16vectorI16llama_token_dataNS_9allocatorIS1_EEE20__throw_length_errorB8ne190102Ev, symObjAddr: 0x3D84, symBinAddr: 0xAD7C0, symSize: 0x14 }
  - { offset: 0x58908E, size: 0x8, addend: 0x0, symName: __ZNKSt3__16vectorIP16llama_token_dataNS_9allocatorIS2_EEE20__throw_length_errorB8ne190102Ev, symObjAddr: 0x3D98, symBinAddr: 0xAD7D4, symSize: 0x14 }
  - { offset: 0x589099, size: 0x8, addend: 0x0, symName: _llama_sampler_chain_init, symObjAddr: 0x430, symBinAddr: 0xA9F74, symSize: 0x50 }
  - { offset: 0x58940F, size: 0x8, addend: 0x0, symName: _llama_sampler_chain_add, symObjAddr: 0x480, symBinAddr: 0xA9FC4, symSize: 0xE8 }
  - { offset: 0x589771, size: 0x8, addend: 0x0, symName: _llama_sampler_chain_get, symObjAddr: 0x568, symBinAddr: 0xAA0AC, symSize: 0x2C }
  - { offset: 0x58977C, size: 0x8, addend: 0x0, symName: __ZNKSt3__16vectorIP13llama_samplerNS_9allocatorIS2_EEE20__throw_length_errorB8ne190102Ev, symObjAddr: 0x18AA8, symBinAddr: 0xB69C0, symSize: 0x14 }
  - { offset: 0x5897B1, size: 0x8, addend: 0x0, symName: _llama_sampler_chain_get, symObjAddr: 0x568, symBinAddr: 0xAA0AC, symSize: 0x2C }
  - { offset: 0x58994E, size: 0x8, addend: 0x0, symName: _llama_sampler_chain_remove, symObjAddr: 0x594, symBinAddr: 0xAA0D8, symSize: 0x88 }
  - { offset: 0x589BA0, size: 0x8, addend: 0x0, symName: _llama_sampler_chain_n, symObjAddr: 0x61C, symBinAddr: 0xAA160, symSize: 0x14 }
  - { offset: 0x589BFB, size: 0x8, addend: 0x0, symName: _llama_sampler_init_greedy, symObjAddr: 0x630, symBinAddr: 0xAA174, symSize: 0x24 }
  - { offset: 0x589CBD, size: 0x8, addend: 0x0, symName: _llama_sampler_init_dist, symObjAddr: 0x654, symBinAddr: 0xAA198, symSize: 0x90 }
  - { offset: 0x589FB0, size: 0x8, addend: 0x0, symName: __ZNSt3__113random_deviceC1B8ne190102Ev, symObjAddr: 0x2B40, symBinAddr: 0xAC62C, symSize: 0x98 }
  - { offset: 0x58A330, size: 0x8, addend: 0x0, symName: _llama_sampler_init_top_k, symObjAddr: 0x844, symBinAddr: 0xAA388, symSize: 0x40 }
  - { offset: 0x58A374, size: 0x8, addend: 0x0, symName: _llama_sampler_init_top_p, symObjAddr: 0x884, symBinAddr: 0xAA3C8, symSize: 0x54 }
  - { offset: 0x58A3FF, size: 0x8, addend: 0x0, symName: _llama_sampler_init_min_p, symObjAddr: 0x8D8, symBinAddr: 0xAA41C, symSize: 0x50 }
  - { offset: 0x58A44C, size: 0x8, addend: 0x0, symName: _llama_sampler_init_typical, symObjAddr: 0x928, symBinAddr: 0xAA46C, symSize: 0x50 }
  - { offset: 0x58A499, size: 0x8, addend: 0x0, symName: _llama_sampler_init_temp, symObjAddr: 0x978, symBinAddr: 0xAA4BC, symSize: 0x48 }
  - { offset: 0x58A4DD, size: 0x8, addend: 0x0, symName: _llama_sampler_init_temp_ext, symObjAddr: 0x9C0, symBinAddr: 0xAA504, symSize: 0x5C }
  - { offset: 0x58A533, size: 0x8, addend: 0x0, symName: _llama_sampler_init_xtc, symObjAddr: 0xA1C, symBinAddr: 0xAA560, symSize: 0xB0 }
  - { offset: 0x58A63C, size: 0x8, addend: 0x0, symName: _llama_sampler_init_mirostat, symObjAddr: 0xACC, symBinAddr: 0xAA610, symSize: 0xC8 }
  - { offset: 0x58A74E, size: 0x8, addend: 0x0, symName: _llama_sampler_init_mirostat_v2, symObjAddr: 0xB94, symBinAddr: 0xAA6D8, symSize: 0xAC }
  - { offset: 0x58A84E, size: 0x8, addend: 0x0, symName: _llama_sampler_init_grammar, symObjAddr: 0xC40, symBinAddr: 0xAA784, symSize: 0x34 }
  - { offset: 0x58ADF6, size: 0x8, addend: 0x0, symName: _llama_sampler_init_grammar_lazy, symObjAddr: 0x1260, symBinAddr: 0xAADA4, symSize: 0x34 }
  - { offset: 0x58AEC6, size: 0x8, addend: 0x0, symName: _llama_sampler_init_grammar_lazy_patterns, symObjAddr: 0x1294, symBinAddr: 0xAADD8, symSize: 0x34 }
  - { offset: 0x58B36B, size: 0x8, addend: 0x0, symName: _llama_sampler_init_penalties, symObjAddr: 0x12C8, symBinAddr: 0xAAE0C, symSize: 0xE0 }
  - { offset: 0x58B74E, size: 0x8, addend: 0x0, symName: _llama_sampler_init_top_n_sigma, symObjAddr: 0x13A8, symBinAddr: 0xAAEEC, symSize: 0x48 }
  - { offset: 0x58CF15, size: 0x8, addend: 0x0, symName: _llama_sampler_init_dry, symObjAddr: 0x13F0, symBinAddr: 0xAAF34, symSize: 0xB68 }
  - { offset: 0x5905E5, size: 0x8, addend: 0x0, symName: __ZNSt3__112__hash_tableINS_17__hash_value_typeIiNS_6vectorIiNS_9allocatorIiEEEEEENS_22__unordered_map_hasherIiS6_NS_4hashIiEENS_8equal_toIiEELb1EEENS_21__unordered_map_equalIiS6_SB_S9_Lb1EEENS3_IS6_EEE27__node_insert_multi_prepareEmRS6_, symObjAddr: 0x162D0, symBinAddr: 0xB41E8, symSize: 0x27C }
  - { offset: 0x5908B0, size: 0x8, addend: 0x0, symName: __ZNSt3__112__hash_tableINS_17__hash_value_typeIiNS_6vectorIiNS_9allocatorIiEEEEEENS_22__unordered_map_hasherIiS6_NS_4hashIiEENS_8equal_toIiEELb1EEENS_21__unordered_map_equalIiS6_SB_S9_Lb1EEENS3_IS6_EEE19__node_insert_multiEPNS_11__hash_nodeIS6_PvEE, symObjAddr: 0x1614C, symBinAddr: 0xB4064, symSize: 0x124 }
  - { offset: 0x590C74, size: 0x8, addend: 0x0, symName: __ZNSt3__118unordered_multimapIiNS_6vectorIiNS_9allocatorIiEEEENS_4hashIiEENS_8equal_toIiEENS2_INS_4pairIKiS4_EEEEED1B8ne190102Ev, symObjAddr: 0x1FA0, symBinAddr: 0xABA9C, symSize: 0x68 }
  - { offset: 0x5910F1, size: 0x8, addend: 0x0, symName: __ZNSt3__110unique_ptrINS_11__hash_nodeINS_17__hash_value_typeIiNS_6vectorIiNS_9allocatorIiEEEEEEPvEENS_22__hash_node_destructorINS4_IS9_EEEEED1B8ne190102Ev, symObjAddr: 0x16270, symBinAddr: 0xB4188, symSize: 0x60 }
  - { offset: 0x59180D, size: 0x8, addend: 0x0, symName: __Z30llama_sampler_init_dry_testingiffiiRKNSt3__16vectorINS0_IiNS_9allocatorIiEEEENS1_IS3_EEEE, symObjAddr: 0x2008, symBinAddr: 0xABB04, symSize: 0x278 }
  - { offset: 0x59291A, size: 0x8, addend: 0x0, symName: _llama_sampler_init_logit_bias, symObjAddr: 0x2280, symBinAddr: 0xABD7C, symSize: 0xC4 }
  - { offset: 0x592DDC, size: 0x8, addend: 0x0, symName: __ZNKSt3__16vectorI16llama_logit_biasNS_9allocatorIS1_EEE20__throw_length_errorB8ne190102Ev, symObjAddr: 0x181E8, symBinAddr: 0xB6100, symSize: 0x14 }
  - { offset: 0x592E06, size: 0x8, addend: 0x0, symName: __ZL25llama_sampler_infill_namePK13llama_sampler, symObjAddr: 0x181FC, symBinAddr: 0xB6114, symSize: 0xC }
  - { offset: 0x592FF7, size: 0x8, addend: 0x0, symName: _llama_sampler_init_infill, symObjAddr: 0x2344, symBinAddr: 0xABE40, symSize: 0x138 }
  - { offset: 0x5934AD, size: 0x8, addend: 0x0, symName: _llama_sampler_get_seed, symObjAddr: 0x247C, symBinAddr: 0xABF78, symSize: 0xBC }
  - { offset: 0x5935CF, size: 0x8, addend: 0x0, symName: _llama_perf_sampler, symObjAddr: 0x2538, symBinAddr: 0xAC034, symSize: 0x70 }
  - { offset: 0x59365C, size: 0x8, addend: 0x0, symName: _llama_perf_sampler_print, symObjAddr: 0x25A8, symBinAddr: 0xAC0A4, symSize: 0xB8 }
  - { offset: 0x5936C7, size: 0x8, addend: 0x0, symName: _llama_perf_sampler_print, symObjAddr: 0x25A8, symBinAddr: 0xAC0A4, symSize: 0xB8 }
  - { offset: 0x59377D, size: 0x8, addend: 0x0, symName: _llama_perf_sampler_reset, symObjAddr: 0x2660, symBinAddr: 0xAC15C, symSize: 0x58 }
  - { offset: 0x593790, size: 0x8, addend: 0x0, symName: _llama_perf_sampler_reset, symObjAddr: 0x2660, symBinAddr: 0xAC15C, symSize: 0x58 }
  - { offset: 0x5937CA, size: 0x8, addend: 0x0, symName: __ZL24llama_sampler_chain_namePK13llama_sampler, symObjAddr: 0x26B8, symBinAddr: 0xAC1B4, symSize: 0xC }
  - { offset: 0x5937DD, size: 0x8, addend: 0x0, symName: __ZL24llama_sampler_chain_namePK13llama_sampler, symObjAddr: 0x26B8, symBinAddr: 0xAC1B4, symSize: 0xC }
  - { offset: 0x593839, size: 0x8, addend: 0x0, symName: __ZL26llama_sampler_chain_acceptP13llama_sampleri, symObjAddr: 0x26C4, symBinAddr: 0xAC1C0, symSize: 0x9C }
  - { offset: 0x59395A, size: 0x8, addend: 0x0, symName: __ZL25llama_sampler_chain_applyP13llama_samplerP22llama_token_data_array, symObjAddr: 0x2760, symBinAddr: 0xAC25C, symSize: 0xCC }
  - { offset: 0x593A8F, size: 0x8, addend: 0x0, symName: __ZL25llama_sampler_chain_resetP13llama_sampler, symObjAddr: 0x282C, symBinAddr: 0xAC328, symSize: 0x58 }
  - { offset: 0x593C1A, size: 0x8, addend: 0x0, symName: __ZL25llama_sampler_chain_clonePK13llama_sampler, symObjAddr: 0x2884, symBinAddr: 0xAC380, symSize: 0x1AC }
  - { offset: 0x594168, size: 0x8, addend: 0x0, symName: __ZL24llama_sampler_chain_freeP13llama_sampler, symObjAddr: 0x2A30, symBinAddr: 0xAC52C, symSize: 0x98 }
  - { offset: 0x59422C, size: 0x8, addend: 0x0, symName: __ZL24llama_sampler_chain_freeP13llama_sampler, symObjAddr: 0x2A30, symBinAddr: 0xAC52C, symSize: 0x98 }
  - { offset: 0x594466, size: 0x8, addend: 0x0, symName: __ZL25llama_sampler_greedy_namePK13llama_sampler, symObjAddr: 0x2AD8, symBinAddr: 0xAC5C4, symSize: 0xC }
  - { offset: 0x59448F, size: 0x8, addend: 0x0, symName: __ZL26llama_sampler_greedy_applyP13llama_samplerP22llama_token_data_array, symObjAddr: 0x2AE4, symBinAddr: 0xAC5D0, symSize: 0x5C }
  - { offset: 0x5944E1, size: 0x8, addend: 0x0, symName: __ZL23llama_sampler_dist_namePK13llama_sampler, symObjAddr: 0x2BD8, symBinAddr: 0xAC6C4, symSize: 0xC }
  - { offset: 0x594628, size: 0x8, addend: 0x0, symName: __ZL24llama_sampler_dist_applyP13llama_samplerP22llama_token_data_array, symObjAddr: 0x2BE4, symBinAddr: 0xAC6D0, symSize: 0x2CC }
  - { offset: 0x594895, size: 0x8, addend: 0x0, symName: __ZL24llama_sampler_dist_resetP13llama_sampler, symObjAddr: 0x2EB0, symBinAddr: 0xAC99C, symSize: 0x64 }
  - { offset: 0x59493B, size: 0x8, addend: 0x0, symName: __ZL24llama_sampler_dist_clonePK13llama_sampler, symObjAddr: 0x2F14, symBinAddr: 0xACA00, symSize: 0xB4 }
  - { offset: 0x594A94, size: 0x8, addend: 0x0, symName: __ZL23llama_sampler_dist_freeP13llama_sampler, symObjAddr: 0x2FC8, symBinAddr: 0xACAB4, symSize: 0x10 }
  - { offset: 0x594AC0, size: 0x8, addend: 0x0, symName: __ZL24llama_sampler_top_k_namePK13llama_sampler, symObjAddr: 0x2FD8, symBinAddr: 0xACAC4, symSize: 0xC }
  - { offset: 0x594B10, size: 0x8, addend: 0x0, symName: __ZL25llama_sampler_top_k_applyP13llama_samplerP22llama_token_data_array, symObjAddr: 0x2FE4, symBinAddr: 0xACAD0, symSize: 0x58 }
  - { offset: 0x594BAA, size: 0x8, addend: 0x0, symName: __ZL25llama_sampler_top_k_clonePK13llama_sampler, symObjAddr: 0x303C, symBinAddr: 0xACB28, symSize: 0x44 }
  - { offset: 0x594C2D, size: 0x8, addend: 0x0, symName: __ZL24llama_sampler_top_k_freeP13llama_sampler, symObjAddr: 0x3080, symBinAddr: 0xACB6C, symSize: 0x10 }
  - { offset: 0x595445, size: 0x8, addend: 0x0, symName: __ZNSt3__16vectorI16llama_token_dataNS_9allocatorIS1_EEE8__appendEm, symObjAddr: 0x3C00, symBinAddr: 0xAD63C, symSize: 0x184 }
  - { offset: 0x595819, size: 0x8, addend: 0x0, symName: __ZNKSt3__16vectorI16llama_token_dataNS_9allocatorIS1_EEE20__throw_length_errorB8ne190102Ev, symObjAddr: 0x3D84, symBinAddr: 0xAD7C0, symSize: 0x14 }
  - { offset: 0x595824, size: 0x8, addend: 0x0, symName: __ZNKSt3__16vectorIP16llama_token_dataNS_9allocatorIS2_EEE20__throw_length_errorB8ne190102Ev, symObjAddr: 0x3D98, symBinAddr: 0xAD7D4, symSize: 0x14 }
  - { offset: 0x59584E, size: 0x8, addend: 0x0, symName: '__ZNSt3__111__introsortINS_17_ClassicAlgPolicyERZL35llama_token_data_array_partial_sortRK22llama_token_data_arrayiRNS_6vectorI16llama_token_dataNS_9allocatorIS6_EEEEE3$_0PS6_Lb0EEEvT1_SE_T0_NS_15iterator_traitsISE_E15difference_typeEb', symObjAddr: 0x3DAC, symBinAddr: 0xAD7E8, symSize: 0xCCC }
  - { offset: 0x595A2C, size: 0x8, addend: 0x0, symName: __ZL24llama_sampler_top_p_namePK13llama_sampler, symObjAddr: 0x548C, symBinAddr: 0xAEEC8, symSize: 0xC }
  - { offset: 0x595ACC, size: 0x8, addend: 0x0, symName: __ZL25llama_sampler_top_p_applyP13llama_samplerP22llama_token_data_array, symObjAddr: 0x5498, symBinAddr: 0xAEED4, symSize: 0x2D8 }
  - { offset: 0x595E2C, size: 0x8, addend: 0x0, symName: __ZL25llama_sampler_top_p_clonePK13llama_sampler, symObjAddr: 0x5770, symBinAddr: 0xAF1AC, symSize: 0x58 }
  - { offset: 0x595E66, size: 0x8, addend: 0x0, symName: __ZL25llama_sampler_top_p_clonePK13llama_sampler, symObjAddr: 0x5770, symBinAddr: 0xAF1AC, symSize: 0x58 }
  - { offset: 0x595F6E, size: 0x8, addend: 0x0, symName: __ZL24llama_sampler_top_p_freeP13llama_sampler, symObjAddr: 0x57C8, symBinAddr: 0xAF204, symSize: 0x40 }
  - { offset: 0x59611A, size: 0x8, addend: 0x0, symName: __ZL24llama_sampler_min_p_namePK13llama_sampler, symObjAddr: 0x5808, symBinAddr: 0xAF244, symSize: 0xC }
  - { offset: 0x59628F, size: 0x8, addend: 0x0, symName: __ZL25llama_sampler_min_p_applyP13llama_samplerP22llama_token_data_array, symObjAddr: 0x5814, symBinAddr: 0xAF250, symSize: 0x300 }
  - { offset: 0x596C1C, size: 0x8, addend: 0x0, symName: __ZL25llama_sampler_min_p_clonePK13llama_sampler, symObjAddr: 0x5B14, symBinAddr: 0xAF550, symSize: 0x54 }
  - { offset: 0x596CA7, size: 0x8, addend: 0x0, symName: __ZL24llama_sampler_min_p_freeP13llama_sampler, symObjAddr: 0x5B68, symBinAddr: 0xAF5A4, symSize: 0x10 }
  - { offset: 0x596CD3, size: 0x8, addend: 0x0, symName: __ZL26llama_sampler_typical_namePK13llama_sampler, symObjAddr: 0x5B78, symBinAddr: 0xAF5B4, symSize: 0xC }
  - { offset: 0x597207, size: 0x8, addend: 0x0, symName: __ZL27llama_sampler_typical_applyP13llama_samplerP22llama_token_data_array, symObjAddr: 0x5B84, symBinAddr: 0xAF5C0, symSize: 0x7DC }
  - { offset: 0x59895B, size: 0x8, addend: 0x0, symName: __ZNKSt3__16vectorImNS_9allocatorImEEE20__throw_length_errorB8ne190102Ev, symObjAddr: 0x63D8, symBinAddr: 0xAFE00, symSize: 0x14 }
  - { offset: 0x598966, size: 0x8, addend: 0x0, symName: __ZNKSt3__16vectorImNS_9allocatorImEEE20__throw_length_errorB8ne190102Ev, symObjAddr: 0x63D8, symBinAddr: 0xAFE00, symSize: 0x14 }
  - { offset: 0x598990, size: 0x8, addend: 0x0, symName: '__ZNSt3__111__introsortINS_17_ClassicAlgPolicyERZL27llama_sampler_typical_applyP13llama_samplerP22llama_token_data_arrayE3$_0PmLb0EEEvT1_S9_T0_NS_15iterator_traitsIS9_E15difference_typeEb', symObjAddr: 0x63EC, symBinAddr: 0xAFE14, symSize: 0xAD8 }
  - { offset: 0x5989C2, size: 0x8, addend: 0x0, symName: __ZL27llama_sampler_typical_clonePK13llama_sampler, symObjAddr: 0x6360, symBinAddr: 0xAFD9C, symSize: 0x54 }
  - { offset: 0x598A4D, size: 0x8, addend: 0x0, symName: __ZL26llama_sampler_typical_freeP13llama_sampler, symObjAddr: 0x63B4, symBinAddr: 0xAFDF0, symSize: 0x10 }
  - { offset: 0x598B3A, size: 0x8, addend: 0x0, symName: __ZL23llama_sampler_temp_namePK13llama_sampler, symObjAddr: 0x73B8, symBinAddr: 0xB0DE0, symSize: 0xC }
  - { offset: 0x598BC0, size: 0x8, addend: 0x0, symName: __ZL24llama_sampler_temp_applyP13llama_samplerP22llama_token_data_array, symObjAddr: 0x73C4, symBinAddr: 0xB0DEC, symSize: 0x114 }
  - { offset: 0x598C81, size: 0x8, addend: 0x0, symName: __ZL24llama_sampler_temp_clonePK13llama_sampler, symObjAddr: 0x74D8, symBinAddr: 0xB0F00, symSize: 0x4C }
  - { offset: 0x598D05, size: 0x8, addend: 0x0, symName: __ZL23llama_sampler_temp_freeP13llama_sampler, symObjAddr: 0x7524, symBinAddr: 0xB0F4C, symSize: 0x10 }
  - { offset: 0x598D31, size: 0x8, addend: 0x0, symName: __ZL27llama_sampler_temp_ext_namePK13llama_sampler, symObjAddr: 0x7534, symBinAddr: 0xB0F5C, symSize: 0xC }
  - { offset: 0x598D5A, size: 0x8, addend: 0x0, symName: __ZL28llama_sampler_temp_ext_applyP13llama_samplerP22llama_token_data_array, symObjAddr: 0x7540, symBinAddr: 0xB0F68, symSize: 0x56C }
  - { offset: 0x5990D2, size: 0x8, addend: 0x0, symName: __ZL28llama_sampler_temp_ext_clonePK13llama_sampler, symObjAddr: 0x7AAC, symBinAddr: 0xB14D4, symSize: 0x54 }
  - { offset: 0x599156, size: 0x8, addend: 0x0, symName: __ZL27llama_sampler_temp_ext_freeP13llama_sampler, symObjAddr: 0x7B00, symBinAddr: 0xB1528, symSize: 0x10 }
  - { offset: 0x599182, size: 0x8, addend: 0x0, symName: __ZL22llama_sampler_xtc_namePK13llama_sampler, symObjAddr: 0x7B10, symBinAddr: 0xB1538, symSize: 0xC }
  - { offset: 0x599232, size: 0x8, addend: 0x0, symName: __ZL22llama_sample_xtc_applyP13llama_samplerP22llama_token_data_array, symObjAddr: 0x7B1C, symBinAddr: 0xB1544, symSize: 0x31C }
  - { offset: 0x59949A, size: 0x8, addend: 0x0, symName: __ZL23llama_sampler_xtc_resetP13llama_sampler, symObjAddr: 0x7E38, symBinAddr: 0xB1860, symSize: 0x64 }
  - { offset: 0x599564, size: 0x8, addend: 0x0, symName: __ZL23llama_sampler_xtc_clonePK13llama_sampler, symObjAddr: 0x7E9C, symBinAddr: 0xB18C4, symSize: 0xD4 }
  - { offset: 0x5996C4, size: 0x8, addend: 0x0, symName: __ZL22llama_sampler_xtc_freeP13llama_sampler, symObjAddr: 0x7F70, symBinAddr: 0xB1998, symSize: 0x10 }
  - { offset: 0x5996F0, size: 0x8, addend: 0x0, symName: __ZL27llama_sampler_mirostat_namePK13llama_sampler, symObjAddr: 0x7F80, symBinAddr: 0xB19A8, symSize: 0xC }
  - { offset: 0x599719, size: 0x8, addend: 0x0, symName: __ZL28llama_sampler_mirostat_applyP13llama_samplerP22llama_token_data_array, symObjAddr: 0x7F8C, symBinAddr: 0xB19B4, symSize: 0x4AC }
  - { offset: 0x599AE1, size: 0x8, addend: 0x0, symName: __ZL28llama_sampler_mirostat_resetP13llama_sampler, symObjAddr: 0x8438, symBinAddr: 0xB1E60, symSize: 0x74 }
  - { offset: 0x599AF4, size: 0x8, addend: 0x0, symName: __ZL28llama_sampler_mirostat_resetP13llama_sampler, symObjAddr: 0x8438, symBinAddr: 0xB1E60, symSize: 0x74 }
  - { offset: 0x599BD3, size: 0x8, addend: 0x0, symName: __ZL28llama_sampler_mirostat_clonePK13llama_sampler, symObjAddr: 0x84AC, symBinAddr: 0xB1ED4, symSize: 0xFC }
  - { offset: 0x599D3C, size: 0x8, addend: 0x0, symName: __ZL27llama_sampler_mirostat_freeP13llama_sampler, symObjAddr: 0x85A8, symBinAddr: 0xB1FD0, symSize: 0x10 }
  - { offset: 0x59A40B, size: 0x8, addend: 0x0, symName: __ZNSt3__121discrete_distributionIiE10param_type6__initEv, symObjAddr: 0x8790, symBinAddr: 0xB21B8, symSize: 0x20C }
  - { offset: 0x59A9E7, size: 0x8, addend: 0x0, symName: __ZNSt3__121discrete_distributionIiEclINS_23mersenne_twister_engineIjLm32ELm624ELm397ELm31ELj2567483615ELm11ELj4294967295ELm7ELj2636928640ELm15ELj4022730752ELm18ELj1812433253EEEEEiRT_RKNS1_10param_typeE, symObjAddr: 0x8A68, symBinAddr: 0xB2490, symSize: 0x164 }
  - { offset: 0x59AA3C, size: 0x8, addend: 0x0, symName: __ZNSt3__121discrete_distributionIiEclINS_23mersenne_twister_engineIjLm32ELm624ELm397ELm31ELj2567483615ELm11ELj4294967295ELm7ELj2636928640ELm15ELj4022730752ELm18ELj1812433253EEEEEiRT_RKNS1_10param_typeE, symObjAddr: 0x8A68, symBinAddr: 0xB2490, symSize: 0x164 }
  - { offset: 0x59ACE1, size: 0x8, addend: 0x0, symName: __ZNKSt3__16vectorIdNS_9allocatorIdEEE20__throw_length_errorB8ne190102Ev, symObjAddr: 0x899C, symBinAddr: 0xB23C4, symSize: 0x14 }
  - { offset: 0x59AD0B, size: 0x8, addend: 0x0, symName: __ZNSt3__16vectorIdNS_9allocatorIdEEE13shrink_to_fitEv, symObjAddr: 0x89B0, symBinAddr: 0xB23D8, symSize: 0xB8 }
  - { offset: 0x59AEA3, size: 0x8, addend: 0x0, symName: __ZNSt3__16vectorIdNS_9allocatorIdEEE13shrink_to_fitEv, symObjAddr: 0x89B0, symBinAddr: 0xB23D8, symSize: 0xB8 }
  - { offset: 0x59B21F, size: 0x8, addend: 0x0, symName: __ZL30llama_sampler_mirostat_v2_namePK13llama_sampler, symObjAddr: 0x8BCC, symBinAddr: 0xB25F4, symSize: 0xC }
  - { offset: 0x59B248, size: 0x8, addend: 0x0, symName: __ZL31llama_sampler_mirostat_v2_applyP13llama_samplerP22llama_token_data_array, symObjAddr: 0x8BD8, symBinAddr: 0xB2600, symSize: 0x428 }
  - { offset: 0x59B5C3, size: 0x8, addend: 0x0, symName: __ZL31llama_sampler_mirostat_v2_resetP13llama_sampler, symObjAddr: 0x9000, symBinAddr: 0xB2A28, symSize: 0x74 }
  - { offset: 0x59B615, size: 0x8, addend: 0x0, symName: __ZL31llama_sampler_mirostat_v2_resetP13llama_sampler, symObjAddr: 0x9000, symBinAddr: 0xB2A28, symSize: 0x74 }
  - { offset: 0x59B6DC, size: 0x8, addend: 0x0, symName: __ZL31llama_sampler_mirostat_v2_clonePK13llama_sampler, symObjAddr: 0x9074, symBinAddr: 0xB2A9C, symSize: 0xDC }
  - { offset: 0x59B838, size: 0x8, addend: 0x0, symName: __ZL30llama_sampler_mirostat_v2_freeP13llama_sampler, symObjAddr: 0x9150, symBinAddr: 0xB2B78, symSize: 0x10 }
  - { offset: 0x5AC122, size: 0x8, addend: 0x0, symName: __ZNKSt3__113match_resultsIPKcNS_9allocatorINS_9sub_matchIS2_EEEEE6formatINS_20back_insert_iteratorINS_12basic_stringIcNS_11char_traitsIcEENS3_IcEEEEEEEET_SG_S2_S2_NS_15regex_constants15match_flag_typeE, symObjAddr: 0x1232C, symBinAddr: 0xB2E24, symSize: 0x28C }
  - { offset: 0x5AC808, size: 0x8, addend: 0x0, symName: __ZNSt3__114regex_iteratorIPKccNS_12regex_traitsIcEEEppEv, symObjAddr: 0x125B8, symBinAddr: 0xB30B0, symSize: 0x120 }
  - { offset: 0x5B1729, size: 0x8, addend: 0x0, symName: __ZL26llama_sampler_grammar_namePK13llama_sampler, symObjAddr: 0x14C90, symBinAddr: 0xB31D0, symSize: 0xC }
  - { offset: 0x5B29ED, size: 0x8, addend: 0x0, symName: __ZL26llama_sampler_grammar_namePK13llama_sampler, symObjAddr: 0x14C90, symBinAddr: 0xB31D0, symSize: 0xC }
  - { offset: 0x5B2A16, size: 0x8, addend: 0x0, symName: __ZL33llama_sampler_grammar_accept_implP13llama_sampleri, symObjAddr: 0x14C9C, symBinAddr: 0xB31DC, symSize: 0x14 }
  - { offset: 0x5B2A89, size: 0x8, addend: 0x0, symName: __ZL27llama_sampler_grammar_applyP13llama_samplerP22llama_token_data_array, symObjAddr: 0x14CB0, symBinAddr: 0xB31F0, symSize: 0x14 }
  - { offset: 0x5B2F93, size: 0x8, addend: 0x0, symName: __ZL27llama_sampler_grammar_resetP13llama_sampler, symObjAddr: 0x14CC4, symBinAddr: 0xB3204, symSize: 0x250 }
  - { offset: 0x5B3A98, size: 0x8, addend: 0x0, symName: __ZL28llama_sampler_penalties_namePK13llama_sampler, symObjAddr: 0x15038, symBinAddr: 0xB3564, symSize: 0xC }
  - { offset: 0x5B3B62, size: 0x8, addend: 0x0, symName: __ZL27llama_sampler_grammar_clonePK13llama_sampler, symObjAddr: 0x14F14, symBinAddr: 0xB3454, symSize: 0xAC }
  - { offset: 0x5B3D66, size: 0x8, addend: 0x0, symName: __ZL26llama_sampler_grammar_freeP13llama_sampler, symObjAddr: 0x14FC0, symBinAddr: 0xB3500, symSize: 0x64 }
  - { offset: 0x5B4000, size: 0x8, addend: 0x0, symName: __ZL28llama_sampler_penalties_namePK13llama_sampler, symObjAddr: 0x15038, symBinAddr: 0xB3564, symSize: 0xC }
  - { offset: 0x5B40C1, size: 0x8, addend: 0x0, symName: __ZL30llama_sampler_penalties_acceptP13llama_sampleri, symObjAddr: 0x15044, symBinAddr: 0xB3570, symSize: 0x1B4 }
  - { offset: 0x5B4775, size: 0x8, addend: 0x0, symName: __ZNSt3__112__hash_tableINS_17__hash_value_typeIiiEENS_22__unordered_map_hasherIiS2_NS_4hashIiEENS_8equal_toIiEELb1EEENS_21__unordered_map_equalIiS2_S7_S5_Lb1EEENS_9allocatorIS2_EEE14__erase_uniqueIiEEmRKT_, symObjAddr: 0x15A70, symBinAddr: 0xB3AD4, symSize: 0x11C }
  - { offset: 0x5B47EF, size: 0x8, addend: 0x0, symName: __ZNSt3__112__hash_tableINS_17__hash_value_typeIiiEENS_22__unordered_map_hasherIiS2_NS_4hashIiEENS_8equal_toIiEELb1EEENS_21__unordered_map_equalIiS2_S7_S5_Lb1EEENS_9allocatorIS2_EEE14__erase_uniqueIiEEmRKT_, symObjAddr: 0x15A70, symBinAddr: 0xB3AD4, symSize: 0x11C }
  - { offset: 0x5B480B, size: 0x8, addend: 0x0, symName: __ZNSt3__112__hash_tableINS_17__hash_value_typeIiiEENS_22__unordered_map_hasherIiS2_NS_4hashIiEENS_8equal_toIiEELb1EEENS_21__unordered_map_equalIiS2_S7_S5_Lb1EEENS_9allocatorIS2_EEE14__erase_uniqueIiEEmRKT_, symObjAddr: 0x15A70, symBinAddr: 0xB3AD4, symSize: 0x11C }
  - { offset: 0x5B4B84, size: 0x8, addend: 0x0, symName: __ZL29llama_sampler_penalties_applyP13llama_samplerP22llama_token_data_array, symObjAddr: 0x151F8, symBinAddr: 0xB3724, symSize: 0x1CC }
  - { offset: 0x5B4DD6, size: 0x8, addend: 0x0, symName: __ZL29llama_sampler_penalties_resetP13llama_sampler, symObjAddr: 0x153C4, symBinAddr: 0xB38F0, symSize: 0x6C }
  - { offset: 0x5B50FA, size: 0x8, addend: 0x0, symName: __ZL29llama_sampler_penalties_clonePK13llama_sampler, symObjAddr: 0x15430, symBinAddr: 0xB395C, symSize: 0x110 }
  - { offset: 0x5B5BCC, size: 0x8, addend: 0x0, symName: __ZL30llama_sampler_top_n_sigma_namePK13llama_sampler, symObjAddr: 0x15E0C, symBinAddr: 0xB3D24, symSize: 0xC }
  - { offset: 0x5B5C80, size: 0x8, addend: 0x0, symName: __ZL28llama_sampler_penalties_freeP13llama_sampler, symObjAddr: 0x15540, symBinAddr: 0xB3A6C, symSize: 0x68 }
  - { offset: 0x5B6839, size: 0x8, addend: 0x0, symName: __ZNSt3__112__hash_tableINS_17__hash_value_typeIiiEENS_22__unordered_map_hasherIiS2_NS_4hashIiEENS_8equal_toIiEELb1EEENS_21__unordered_map_equalIiS2_S7_S5_Lb1EEENS_9allocatorIS2_EEE14__erase_uniqueIiEEmRKT_, symObjAddr: 0x15A70, symBinAddr: 0xB3AD4, symSize: 0x11C }
  - { offset: 0x5B6908, size: 0x8, addend: 0x0, symName: __ZNSt3__112__hash_tableINS_17__hash_value_typeIiiEENS_22__unordered_map_hasherIiS2_NS_4hashIiEENS_8equal_toIiEELb1EEENS_21__unordered_map_equalIiS2_S7_S5_Lb1EEENS_9allocatorIS2_EEE6removeENS_21__hash_const_iteratorIPNS_11__hash_nodeIS2_PvEEEE, symObjAddr: 0x15B8C, symBinAddr: 0xB3BF0, symSize: 0x134 }
  - { offset: 0x5B697E, size: 0x8, addend: 0x0, symName: __ZNSt3__112__hash_tableINS_17__hash_value_typeIiiEENS_22__unordered_map_hasherIiS2_NS_4hashIiEENS_8equal_toIiEELb1EEENS_21__unordered_map_equalIiS2_S7_S5_Lb1EEENS_9allocatorIS2_EEE6removeENS_21__hash_const_iteratorIPNS_11__hash_nodeIS2_PvEEEE, symObjAddr: 0x15B8C, symBinAddr: 0xB3BF0, symSize: 0x134 }
  - { offset: 0x5B699A, size: 0x8, addend: 0x0, symName: __ZNSt3__112__hash_tableINS_17__hash_value_typeIiiEENS_22__unordered_map_hasherIiS2_NS_4hashIiEENS_8equal_toIiEELb1EEENS_21__unordered_map_equalIiS2_S7_S5_Lb1EEENS_9allocatorIS2_EEE6removeENS_21__hash_const_iteratorIPNS_11__hash_nodeIS2_PvEEEE, symObjAddr: 0x15B8C, symBinAddr: 0xB3BF0, symSize: 0x134 }
  - { offset: 0x5B6D88, size: 0x8, addend: 0x0, symName: __ZL30llama_sampler_top_n_sigma_namePK13llama_sampler, symObjAddr: 0x15E0C, symBinAddr: 0xB3D24, symSize: 0xC }
  - { offset: 0x5B6DB1, size: 0x8, addend: 0x0, symName: __ZL31llama_sampler_top_n_sigma_applyP13llama_samplerP22llama_token_data_array, symObjAddr: 0x15E18, symBinAddr: 0xB3D30, symSize: 0x2D8 }
  - { offset: 0x5B705C, size: 0x8, addend: 0x0, symName: __ZL31llama_sampler_top_n_sigma_clonePK13llama_sampler, symObjAddr: 0x160F0, symBinAddr: 0xB4008, symSize: 0x4C }
  - { offset: 0x5B70E0, size: 0x8, addend: 0x0, symName: __ZL30llama_sampler_top_n_sigma_freeP13llama_sampler, symObjAddr: 0x1613C, symBinAddr: 0xB4054, symSize: 0x10 }
  - { offset: 0x5B722A, size: 0x8, addend: 0x0, symName: __ZNSt3__112__hash_tableINS_17__hash_value_typeIiNS_6vectorIiNS_9allocatorIiEEEEEENS_22__unordered_map_hasherIiS6_NS_4hashIiEENS_8equal_toIiEELb1EEENS_21__unordered_map_equalIiS6_SB_S9_Lb1EEENS3_IS6_EEE11__do_rehashILb0EEEvm, symObjAddr: 0x1654C, symBinAddr: 0xB4464, symSize: 0x1C8 }
  - { offset: 0x5B76DA, size: 0x8, addend: 0x0, symName: __ZL22llama_sampler_dry_namePK13llama_sampler, symObjAddr: 0x16714, symBinAddr: 0xB462C, symSize: 0xC }
  - { offset: 0x5B776D, size: 0x8, addend: 0x0, symName: __ZL22llama_sampler_dry_namePK13llama_sampler, symObjAddr: 0x16714, symBinAddr: 0xB462C, symSize: 0xC }
  - { offset: 0x5B7796, size: 0x8, addend: 0x0, symName: __ZL24llama_sampler_dry_acceptP13llama_sampleri, symObjAddr: 0x16720, symBinAddr: 0xB4638, symSize: 0xDC }
  - { offset: 0x5B783E, size: 0x8, addend: 0x0, symName: __ZL23llama_sampler_dry_applyP13llama_samplerP22llama_token_data_array, symObjAddr: 0x167FC, symBinAddr: 0xB4714, symSize: 0xA60 }
  - { offset: 0x5B870B, size: 0x8, addend: 0x0, symName: __ZNSt3__16vectorIiNS_9allocatorIiEEE6assignEmRKi, symObjAddr: 0x173F4, symBinAddr: 0xB530C, symSize: 0x1EC }
  - { offset: 0x5B8C0C, size: 0x8, addend: 0x0, symName: __ZNSt3__112__hash_tableINS_17__hash_value_typeIiNS_6vectorIiNS_9allocatorIiEEEEEENS_22__unordered_map_hasherIiS6_NS_4hashIiEENS_8equal_toIiEELb1EEENS_21__unordered_map_equalIiS6_SB_S9_Lb1EEENS3_IS6_EEE14__assign_multiINS_21__hash_const_iteratorIPNS_11__hash_nodeIS6_PvEEEEEEvT_SO_, symObjAddr: 0x175E0, symBinAddr: 0xB54F8, symSize: 0x154 }
  - { offset: 0x5B8C1E, size: 0x8, addend: 0x0, symName: __ZL23llama_sampler_dry_resetP13llama_sampler, symObjAddr: 0x1725C, symBinAddr: 0xB5174, symSize: 0x74 }
  - { offset: 0x5B8FEB, size: 0x8, addend: 0x0, symName: __ZL23llama_sampler_dry_clonePK13llama_sampler, symObjAddr: 0x172D0, symBinAddr: 0xB51E8, symSize: 0x104 }
  - { offset: 0x5B92F6, size: 0x8, addend: 0x0, symName: __ZNSt3__112__hash_tableINS_17__hash_value_typeIiNS_6vectorIiNS_9allocatorIiEEEEEENS_22__unordered_map_hasherIiS6_NS_4hashIiEENS_8equal_toIiEELb1EEENS_21__unordered_map_equalIiS6_SB_S9_Lb1EEENS3_IS6_EEE14__assign_multiINS_21__hash_const_iteratorIPNS_11__hash_nodeIS6_PvEEEEEEvT_SO_, symObjAddr: 0x175E0, symBinAddr: 0xB54F8, symSize: 0x154 }
  - { offset: 0x5B991B, size: 0x8, addend: 0x0, symName: __ZNSt3__112__hash_tableINS_17__hash_value_typeIiiEENS_22__unordered_map_hasherIiS2_NS_4hashIiEENS_8equal_toIiEELb1EEENS_21__unordered_map_equalIiS2_S7_S5_Lb1EEENS_9allocatorIS2_EEE14__assign_multiINS_21__hash_const_iteratorIPNS_11__hash_nodeIS2_PvEEEEEEvT_SL_, symObjAddr: 0x17854, symBinAddr: 0xB576C, symSize: 0x12C }
  - { offset: 0x5BA02A, size: 0x8, addend: 0x0, symName: __ZL22llama_sampler_dry_freeP13llama_sampler, symObjAddr: 0x173D4, symBinAddr: 0xB52EC, symSize: 0x20 }
  - { offset: 0x5BA081, size: 0x8, addend: 0x0, symName: __ZN17llama_sampler_dryD2Ev, symObjAddr: 0x17EE8, symBinAddr: 0xB5E00, symSize: 0xB0 }
  - { offset: 0x5BACE6, size: 0x8, addend: 0x0, symName: __ZNSt3__112__hash_tableINS_17__hash_value_typeIiNS_6vectorIiNS_9allocatorIiEEEEEENS_22__unordered_map_hasherIiS6_NS_4hashIiEENS_8equal_toIiEELb1EEENS_21__unordered_map_equalIiS6_SB_S9_Lb1EEENS3_IS6_EEE16__construct_nodeIJRKNS_4pairIKiS5_EEEEENS_10unique_ptrINS_11__hash_nodeIS6_PvEENS_22__hash_node_destructorINS3_ISQ_EEEEEEDpOT_, symObjAddr: 0x17780, symBinAddr: 0xB5698, symSize: 0xD4 }
  - { offset: 0x5BB3E5, size: 0x8, addend: 0x0, symName: __ZNSt3__112__hash_tableINS_17__hash_value_typeIiNS_6vectorIiNS_9allocatorIiEEEEEENS_22__unordered_map_hasherIiS6_NS_4hashIiEENS_8equal_toIiEELb1EEENS_21__unordered_map_equalIiS6_SB_S9_Lb1EEENS3_IS6_EEE17__deallocate_nodeEPNS_16__hash_node_baseIPNS_11__hash_nodeIS6_PvEEEE, symObjAddr: 0x17734, symBinAddr: 0xB564C, symSize: 0x4C }
  - { offset: 0x5BB9CF, size: 0x8, addend: 0x0, symName: __ZNSt3__112__hash_tableINS_17__hash_value_typeIiiEENS_22__unordered_map_hasherIiS2_NS_4hashIiEENS_8equal_toIiEELb1EEENS_21__unordered_map_equalIiS2_S7_S5_Lb1EEENS_9allocatorIS2_EEE19__node_insert_multiEPNS_11__hash_nodeIS2_PvEE, symObjAddr: 0x17980, symBinAddr: 0xB5898, symSize: 0x124 }
  - { offset: 0x5BBC0A, size: 0x8, addend: 0x0, symName: __ZNSt3__112__hash_tableINS_17__hash_value_typeIiiEENS_22__unordered_map_hasherIiS2_NS_4hashIiEENS_8equal_toIiEELb1EEENS_21__unordered_map_equalIiS2_S7_S5_Lb1EEENS_9allocatorIS2_EEE27__node_insert_multi_prepareEmRS2_, symObjAddr: 0x17AA4, symBinAddr: 0xB59BC, symSize: 0x27C }
  - { offset: 0x5BBF41, size: 0x8, addend: 0x0, symName: __ZNSt3__112__hash_tableINS_17__hash_value_typeIiiEENS_22__unordered_map_hasherIiS2_NS_4hashIiEENS_8equal_toIiEELb1EEENS_21__unordered_map_equalIiS2_S7_S5_Lb1EEENS_9allocatorIS2_EEE11__do_rehashILb0EEEvm, symObjAddr: 0x17D20, symBinAddr: 0xB5C38, symSize: 0x1C8 }
  - { offset: 0x5BC3F1, size: 0x8, addend: 0x0, symName: __ZN17llama_sampler_dryD2Ev, symObjAddr: 0x17EE8, symBinAddr: 0xB5E00, symSize: 0xB0 }
  - { offset: 0x5BC406, size: 0x8, addend: 0x0, symName: __ZL29llama_sampler_logit_bias_namePK13llama_sampler, symObjAddr: 0x17F98, symBinAddr: 0xB5EB0, symSize: 0xC }
  - { offset: 0x5BC736, size: 0x8, addend: 0x0, symName: __ZL30llama_sampler_logit_bias_applyP13llama_samplerP22llama_token_data_array, symObjAddr: 0x17FA4, symBinAddr: 0xB5EBC, symSize: 0x1DC }
  - { offset: 0x5BCCE8, size: 0x8, addend: 0x0, symName: __ZL30llama_sampler_logit_bias_clonePK13llama_sampler, symObjAddr: 0x18180, symBinAddr: 0xB6098, symSize: 0x18 }
  - { offset: 0x5BCCF3, size: 0x8, addend: 0x0, symName: __ZL30llama_sampler_logit_bias_clonePK13llama_sampler, symObjAddr: 0x18180, symBinAddr: 0xB6098, symSize: 0x18 }
  - { offset: 0x5BCDD3, size: 0x8, addend: 0x0, symName: __ZL29llama_sampler_logit_bias_freeP13llama_sampler, symObjAddr: 0x18198, symBinAddr: 0xB60B0, symSize: 0x50 }
  - { offset: 0x5BD0C5, size: 0x8, addend: 0x0, symName: __ZL25llama_sampler_infill_namePK13llama_sampler, symObjAddr: 0x181FC, symBinAddr: 0xB6114, symSize: 0xC }
  - { offset: 0x5BD23D, size: 0x8, addend: 0x0, symName: __ZL26llama_sampler_infill_applyP13llama_samplerP22llama_token_data_array, symObjAddr: 0x18208, symBinAddr: 0xB6120, symSize: 0x844 }
  - { offset: 0x5BDA17, size: 0x8, addend: 0x0, symName: __ZL26llama_sampler_infill_clonePK13llama_sampler, symObjAddr: 0x18A4C, symBinAddr: 0xB6964, symSize: 0xC }
  - { offset: 0x5BDA2A, size: 0x8, addend: 0x0, symName: __ZL26llama_sampler_infill_clonePK13llama_sampler, symObjAddr: 0x18A4C, symBinAddr: 0xB6964, symSize: 0xC }
  - { offset: 0x5BDAB7, size: 0x8, addend: 0x0, symName: __ZL25llama_sampler_infill_freeP13llama_sampler, symObjAddr: 0x18A58, symBinAddr: 0xB6970, symSize: 0x50 }
  - { offset: 0x5E8F2E, size: 0x8, addend: 0x0, symName: '__ZNSt3__111__introsortINS_17_ClassicAlgPolicyERZN11llama_vocab4impl4loadER18llama_model_loaderRK6LLM_KVE3$_0PiLb0EEEvT1_SC_T0_NS_15iterator_traitsISC_E15difference_typeEb', symObjAddr: 0x125B8, symBinAddr: 0xC7D34, symSize: 0xDA0 }
  - { offset: 0x5EAA76, size: 0x8, addend: 0x0, symName: '__ZNSt3__127__insertion_sort_incompleteB8ne190102INS_17_ClassicAlgPolicyERZN11llama_vocab4impl4loadER18llama_model_loaderRK6LLM_KVE3$_0PiEEbT1_SC_T0_', symObjAddr: 0x13774, symBinAddr: 0xC8EF0, symSize: 0x39C }
  - { offset: 0x5EF116, size: 0x8, addend: 0x0, symName: __ZNSt3__111__introsortINS_17_ClassicAlgPolicyERZN20llm_tokenizer_plamo25buildERK11llama_vocabEUlRKNS_12basic_stringIcNS_11char_traitsIcEENS_9allocatorIcEEEESD_E_PSB_Lb0EEEvT1_SH_T0_NS_15iterator_traitsISH_E15difference_typeEb, symObjAddr: 0x17858, symBinAddr: 0xCCC34, symSize: 0x470 }
  - { offset: 0x5EF915, size: 0x8, addend: 0x0, symName: __ZNSt3__126__insertion_sort_unguardedB8ne190102INS_17_ClassicAlgPolicyERZN20llm_tokenizer_plamo25buildERK11llama_vocabEUlRKNS_12basic_stringIcNS_11char_traitsIcEENS_9allocatorIcEEEESD_E_PSB_EEvT1_SH_T0_, symObjAddr: 0x180F8, symBinAddr: 0xCD4D4, symSize: 0x120 }
  - { offset: 0x5EFDA5, size: 0x8, addend: 0x0, symName: __ZNSt3__111__sift_downB8ne190102INS_17_ClassicAlgPolicyERZN20llm_tokenizer_plamo25buildERK11llama_vocabEUlRKNS_12basic_stringIcNS_11char_traitsIcEENS_9allocatorIcEEEESD_E_PSB_EEvT1_OT0_NS_15iterator_traitsISH_E15difference_typeESH_, symObjAddr: 0x18BCC, symBinAddr: 0xCDFA8, symSize: 0x1B4 }
  - { offset: 0x5F02D5, size: 0x8, addend: 0x0, symName: __ZNSt3__131__partition_with_equals_on_leftB8ne190102INS_17_ClassicAlgPolicyEPNS_12basic_stringIcNS_11char_traitsIcEENS_9allocatorIcEEEERZN20llm_tokenizer_plamo25buildERK11llama_vocabEUlRKS7_SE_E_EET0_SH_SH_T1_, symObjAddr: 0x18390, symBinAddr: 0xCD76C, symSize: 0x1C4 }
  - { offset: 0x5F08F4, size: 0x8, addend: 0x0, symName: __ZNSt3__132__partition_with_equals_on_rightB8ne190102INS_17_ClassicAlgPolicyEPNS_12basic_stringIcNS_11char_traitsIcEENS_9allocatorIcEEEERZN20llm_tokenizer_plamo25buildERK11llama_vocabEUlRKS7_SE_E_EENS_4pairIT0_bEESI_SI_T1_, symObjAddr: 0x18554, symBinAddr: 0xCD930, symSize: 0x1D4 }
  - { offset: 0x5F0F0B, size: 0x8, addend: 0x0, symName: __ZNSt3__127__insertion_sort_incompleteB8ne190102INS_17_ClassicAlgPolicyERZN20llm_tokenizer_plamo25buildERK11llama_vocabEUlRKNS_12basic_stringIcNS_11char_traitsIcEENS_9allocatorIcEEEESD_E_PSB_EEbT1_SH_T0_, symObjAddr: 0x18728, symBinAddr: 0xCDB04, symSize: 0x2E0 }
  - { offset: 0x5F35A2, size: 0x8, addend: 0x0, symName: __ZNSt3__110__pop_heapB8ne190102INS_17_ClassicAlgPolicyEN14llm_bigram_spm10comparatorENS_11__wrap_iterIPS2_EEEEvT1_S7_RT0_NS_15iterator_traitsIS7_E15difference_typeE, symObjAddr: 0xE42C, symBinAddr: 0xC4A4C, symSize: 0x214 }
  - { offset: 0x5F3F63, size: 0x8, addend: 0x0, symName: __ZNSt3__1plB8ne190102IcNS_11char_traitsIcEENS_9allocatorIcEEEENS_12basic_stringIT_T0_T1_EERKS9_PKS6_, symObjAddr: 0xCBCC, symBinAddr: 0xC343C, symSize: 0xF0 }
  - { offset: 0x5F431B, size: 0x8, addend: 0x0, symName: __ZNK11llama_vocab24get_precompiled_charsmapEv, symObjAddr: 0xCCBC, symBinAddr: 0xC352C, symSize: 0x8C }
  - { offset: 0x5F4D83, size: 0x8, addend: 0x0, symName: __ZNSt3__19__sift_upB8ne190102INS_17_ClassicAlgPolicyERN14llm_bigram_bpe10comparatorENS_11__wrap_iterIPS2_EEEEvT1_S8_OT0_NS_15iterator_traitsIS8_E15difference_typeE, symObjAddr: 0xECD8, symBinAddr: 0xC52E4, symSize: 0x190 }
  - { offset: 0x5F6F66, size: 0x8, addend: 0x0, symName: '__ZNSt3__17__sort3B8ne190102INS_17_ClassicAlgPolicyERZN11llama_vocab4impl4loadER18llama_model_loaderRK6LLM_KVE3$_0PiEEjT1_SC_SC_T0_', symObjAddr: 0x13608, symBinAddr: 0xC8D84, symSize: 0x16C }
  - { offset: 0x5F75D8, size: 0x8, addend: 0x0, symName: '__ZNSt3__124__sort5_maybe_branchlessB8ne190102INS_17_ClassicAlgPolicyERZN11llama_vocab4impl4loadER18llama_model_loaderRK6LLM_KVE3$_0PiLi0EEEvT1_SC_SC_SC_SC_T0_', symObjAddr: 0x13358, symBinAddr: 0xC8AD4, symSize: 0x2B0 }
  - { offset: 0x5F983F, size: 0x8, addend: 0x0, symName: __ZNSt3__17__sort3B8ne190102INS_17_ClassicAlgPolicyERZN20llm_tokenizer_plamo25buildERK11llama_vocabEUlRKNS_12basic_stringIcNS_11char_traitsIcEENS_9allocatorIcEEEESD_E_PSB_EEjT1_SH_SH_T0_, symObjAddr: 0x18218, symBinAddr: 0xCD5F4, symSize: 0x178 }
  - { offset: 0x5F9CA1, size: 0x8, addend: 0x0, symName: __ZNSt3__17__sort5B8ne190102INS_17_ClassicAlgPolicyERZN20llm_tokenizer_plamo25buildERK11llama_vocabEUlRKNS_12basic_stringIcNS_11char_traitsIcEENS_9allocatorIcEEEESD_E_PSB_EEvT1_SH_SH_SH_SH_T0_, symObjAddr: 0x18A08, symBinAddr: 0xCDDE4, symSize: 0x1C4 }
  - { offset: 0x5FA325, size: 0x8, addend: 0x0, symName: __ZNSt3__116__insertion_sortB8ne190102INS_17_ClassicAlgPolicyERZN20llm_tokenizer_plamo25buildERK11llama_vocabEUlRKNS_12basic_stringIcNS_11char_traitsIcEENS_9allocatorIcEEEESD_E_PSB_EEvT1_SH_T0_, symObjAddr: 0x17FB8, symBinAddr: 0xCD394, symSize: 0x140 }
  - { offset: 0x5FA787, size: 0x8, addend: 0x0, symName: __ZNSt3__111__sort_heapB8ne190102INS_17_ClassicAlgPolicyERZN20llm_tokenizer_plamo25buildERK11llama_vocabEUlRKNS_12basic_stringIcNS_11char_traitsIcEENS_9allocatorIcEEEESD_E_PSB_EEvT1_SH_OT0_, symObjAddr: 0x18D80, symBinAddr: 0xCE15C, symSize: 0x210 }
  - { offset: 0x5FAE00, size: 0x8, addend: 0x0, symName: __ZNSt3__19__sift_upB8ne190102INS_17_ClassicAlgPolicyERZN20llm_tokenizer_plamo25buildERK11llama_vocabEUlRKNS_12basic_stringIcNS_11char_traitsIcEENS_9allocatorIcEEEESD_E_PSB_EEvT1_SH_OT0_NS_15iterator_traitsISH_E15difference_typeE, symObjAddr: 0x18F90, symBinAddr: 0xCE36C, symSize: 0x118 }
  - { offset: 0x5FE440, size: 0x8, addend: 0x0, symName: __ZNK11llama_vocab4impl14token_to_pieceEiPciib, symObjAddr: 0xA3D0, symBinAddr: 0xC0C40, symSize: 0x648 }
  - { offset: 0x5FF29D, size: 0x8, addend: 0x0, symName: __ZNK11llama_vocab13byte_to_tokenEh, symObjAddr: 0x50E8, symBinAddr: 0xBB9D8, symSize: 0x3AC }
  - { offset: 0x603D3E, size: 0x8, addend: 0x0, symName: __ZN11llama_vocab4impl4loadER18llama_model_loaderRK6LLM_KV, symObjAddr: 0x0, symBinAddr: 0xB69D4, symSize: 0x4CC0 }
  - { offset: 0x610882, size: 0x8, addend: 0x0, symName: __ZNSt3__16vectorIN11llama_vocab10token_dataENS_9allocatorIS2_EEE8__appendEm, symObjAddr: 0x117F4, symBinAddr: 0xC7388, symSize: 0x17C }
  - { offset: 0x611088, size: 0x8, addend: 0x0, symName: __ZNKSt3__16vectorIN11llama_vocab10token_dataENS_9allocatorIS2_EEE20__throw_length_errorB8ne190102Ev, symObjAddr: 0x11970, symBinAddr: 0xC7504, symSize: 0x14 }
  - { offset: 0x61121D, size: 0x8, addend: 0x0, symName: __ZNSt3__112__hash_tableINS_17__hash_value_typeINS_4pairINS_12basic_stringIcNS_11char_traitsIcEENS_9allocatorIcEEEES8_EEiEENS_22__unordered_map_hasherIS9_SA_N11llama_vocab4impl9pair_hashENS_8equal_toIS9_EELb1EEENS_21__unordered_map_equalIS9_SA_SG_SE_Lb1EEENS6_ISA_EEE25__emplace_unique_key_argsIS9_JS9_RiEEENS2_INS_15__hash_iteratorIPNS_11__hash_nodeISA_PvEEEEbEERKT_DpOT0_, symObjAddr: 0x11984, symBinAddr: 0xC7518, symSize: 0x4D4 }
  - { offset: 0x611D4E, size: 0x8, addend: 0x0, symName: __ZNSt3__112__hash_tableINS_17__hash_value_typeINS_12basic_stringIcNS_11char_traitsIcEENS_9allocatorIcEEEEiEENS_22__unordered_map_hasherIS7_S8_NS_4hashIS7_EENS_8equal_toIS7_EELb1EEENS_21__unordered_map_equalIS7_S8_SD_SB_Lb1EEENS5_IS8_EEE25__emplace_unique_key_argsIS7_JRKNS_21piecewise_construct_tENS_5tupleIJRKS7_EEENSN_IJEEEEEENS_4pairINS_15__hash_iteratorIPNS_11__hash_nodeIS8_PvEEEEbEERKT_DpOT0_, symObjAddr: 0x10BB4, symBinAddr: 0xC6B94, symSize: 0x440 }
  - { offset: 0x6126EE, size: 0x8, addend: 0x0, symName: __ZN11llama_vocab4impl14init_tokenizerE16llama_vocab_type, symObjAddr: 0x4E9C, symBinAddr: 0xBB78C, symSize: 0x24C }
  - { offset: 0x612C27, size: 0x8, addend: 0x0, symName: __ZNK11llama_vocab4impl8tokenizeERKNSt3__112basic_stringIcNS1_11char_traitsIcEENS1_9allocatorIcEEEEbb, symObjAddr: 0x54A4, symBinAddr: 0xBBD84, symSize: 0x1608 }
  - { offset: 0x619B6A, size: 0x8, addend: 0x0, symName: __ZNSt3__16vectorIcNS_9allocatorIcEEE18__assign_with_sizeB8ne190102IPKcS6_EEvT_T0_l, symObjAddr: 0x12064, symBinAddr: 0xC7BF8, symSize: 0x13C }
  - { offset: 0x61A596, size: 0x8, addend: 0x0, symName: __ZNK11llama_vocab4impl24token_to_piece_for_cacheEib, symObjAddr: 0x6B9C, symBinAddr: 0xBD47C, symSize: 0x140 }
  - { offset: 0x61AA1E, size: 0x8, addend: 0x0, symName: __ZNKSt3__112__hash_tableINS_17__hash_value_typeINS_12basic_stringIcNS_11char_traitsIcEENS_9allocatorIcEEEEiEENS_22__unordered_map_hasherIS7_S8_NS_4hashIS7_EENS_8equal_toIS7_EELb1EEENS_21__unordered_map_equalIS7_S8_SD_SB_Lb1EEENS5_IS8_EEE4findIS7_EENS_21__hash_const_iteratorIPNS_11__hash_nodeIS8_PvEEEERKT_, symObjAddr: 0x13B24, symBinAddr: 0xC92A0, symSize: 0x1B4 }
  - { offset: 0x61AD27, size: 0x8, addend: 0x0, symName: __ZNSt3__112__hash_tableINS_17__hash_value_typeINS_12basic_stringIcNS_11char_traitsIcEENS_9allocatorIcEEEEiEENS_22__unordered_map_hasherIS7_S8_NS_4hashIS7_EENS_8equal_toIS7_EELb1EEENS_21__unordered_map_equalIS7_S8_SD_SB_Lb1EEENS5_IS8_EEE4findIS7_EENS_15__hash_iteratorIPNS_11__hash_nodeIS8_PvEEEERKT_, symObjAddr: 0x11640, symBinAddr: 0xC71D4, symSize: 0x1B4 }
  - { offset: 0x61B017, size: 0x8, addend: 0x0, symName: __ZNSt3__16vectorI10llm_symbolNS_9allocatorIS1_EEE18__assign_with_sizeB8ne190102IPS1_S6_EEvT_T0_l, symObjAddr: 0xEE7C, symBinAddr: 0xC5474, symSize: 0x180 }
  - { offset: 0x61B03A, size: 0x8, addend: 0x0, symName: __ZNSt3__16__treeINS_12__value_typeINS_12basic_stringIcNS_11char_traitsIcEENS_9allocatorIcEEEENS_4pairIiiEEEENS_19__map_value_compareIS7_SA_NS_4lessIS7_EELb1EEENS5_ISA_EEE7destroyEPNS_11__tree_nodeISA_PvEE, symObjAddr: 0xE654, symBinAddr: 0xC4C60, symSize: 0x60 }
  - { offset: 0x61B045, size: 0x8, addend: 0x0, symName: __ZNKSt3__16vectorIN11llama_vocab10token_dataENS_9allocatorIS2_EEE20__throw_out_of_rangeB8ne190102Ev, symObjAddr: 0x13B10, symBinAddr: 0xC928C, symSize: 0x14 }
  - { offset: 0x61B06F, size: 0x8, addend: 0x0, symName: __ZNKSt3__112__hash_tableINS_17__hash_value_typeINS_12basic_stringIcNS_11char_traitsIcEENS_9allocatorIcEEEEiEENS_22__unordered_map_hasherIS7_S8_NS_4hashIS7_EENS_8equal_toIS7_EELb1EEENS_21__unordered_map_equalIS7_S8_SD_SB_Lb1EEENS5_IS8_EEE4findIS7_EENS_21__hash_const_iteratorIPNS_11__hash_nodeIS8_PvEEEERKT_, symObjAddr: 0x13B24, symBinAddr: 0xC92A0, symSize: 0x1B4 }
  - { offset: 0x61B55E, size: 0x8, addend: 0x0, symName: __ZNKSt3__112basic_stringIcNS_11char_traitsIcEENS_9allocatorIcEEE6substrB8ne190102Emm, symObjAddr: 0x4D4C, symBinAddr: 0xBB694, symSize: 0xF8 }
  - { offset: 0x61BB71, size: 0x8, addend: 0x0, symName: __ZN20llm_tokenizer_plamo25buildERK11llama_vocab, symObjAddr: 0x15728, symBinAddr: 0xCAE48, symSize: 0x174C }
  - { offset: 0x622CA9, size: 0x8, addend: 0x0, symName: __ZN17llm_tokenizer_bpeC2ERK11llama_vocab, symObjAddr: 0x13CE0, symBinAddr: 0xC945C, symSize: 0xE3C }
  - { offset: 0x62799E, size: 0x8, addend: 0x0, symName: __ZN18llm_tokenizer_rwkvC2ERK11llama_vocab, symObjAddr: 0x15534, symBinAddr: 0xCAC54, symSize: 0x17C }
  - { offset: 0x627F5C, size: 0x8, addend: 0x0, symName: __ZN17llm_tokenizer_ugmC2ERK11llama_vocabRKNSt3__16vectorIcNS3_9allocatorIcEEEE, symObjAddr: 0x14F74, symBinAddr: 0xCA694, symSize: 0x2C8 }
  - { offset: 0x628A9C, size: 0x8, addend: 0x0, symName: __ZNSt3__113unordered_mapIxiNS_4hashIxEENS_8equal_toIxEENS_9allocatorINS_4pairIKxiEEEEED1B8ne190102Ev, symObjAddr: 0x16E74, symBinAddr: 0xCC594, symSize: 0x48 }
  - { offset: 0x62A31C, size: 0x8, addend: 0x0, symName: __ZNK11llama_vocab4impl22tokenizer_st_partitionERNSt3__112forward_listI23fragment_buffer_variantNS1_9allocatorIS3_EEEEb, symObjAddr: 0x7338, symBinAddr: 0xBDBA8, symSize: 0x5BC }
  - { offset: 0x62BC4E, size: 0x8, addend: 0x0, symName: __ZNK20llm_tokenizer_plamo26encodeERKNSt3__112basic_stringIcNS0_11char_traitsIcEENS0_9allocatorIcEEEE, symObjAddr: 0xFC9C, symBinAddr: 0xC619C, symSize: 0x864 }
  - { offset: 0x62E182, size: 0x8, addend: 0x0, symName: __ZNK25llm_tokenizer_bpe_session10append_bosERNSt3__16vectorIiNS0_9allocatorIiEEEE, symObjAddr: 0x7CD4, symBinAddr: 0xBE544, symSize: 0x138 }
  - { offset: 0x62E5D9, size: 0x8, addend: 0x0, symName: __ZN25llm_tokenizer_bpe_session8tokenizeERKNSt3__112basic_stringIcNS0_11char_traitsIcEENS0_9allocatorIcEEEERNS0_6vectorIiNS4_IiEEEE, symObjAddr: 0x7E0C, symBinAddr: 0xBE67C, symSize: 0x1318 }
  - { offset: 0x62E5E4, size: 0x8, addend: 0x0, symName: __ZN25llm_tokenizer_bpe_session8tokenizeERKNSt3__112basic_stringIcNS0_11char_traitsIcEENS0_9allocatorIcEEEERNS0_6vectorIiNS4_IiEEEE, symObjAddr: 0x7E0C, symBinAddr: 0xBE67C, symSize: 0x1318 }
  - { offset: 0x632F4C, size: 0x8, addend: 0x0, symName: __ZN26llm_tokenizer_rwkv_session8tokenizeERKNSt3__112basic_stringIcNS0_11char_traitsIcEENS0_9allocatorIcEEEERNS0_6vectorIiNS4_IiEEEE, symObjAddr: 0xA0D0, symBinAddr: 0xC0940, symSize: 0x2A4 }
  - { offset: 0x633AD1, size: 0x8, addend: 0x0, symName: __ZNSt3__112forward_listI23fragment_buffer_variantNS_9allocatorIS1_EEED1Ev, symObjAddr: 0xA374, symBinAddr: 0xC0BE4, symSize: 0x5C }
  - { offset: 0x633ADC, size: 0x8, addend: 0x0, symName: __ZNK25llm_tokenizer_bpe_session10append_eosERNSt3__16vectorIiNS0_9allocatorIiEEEE, symObjAddr: 0x9124, symBinAddr: 0xBF994, symSize: 0x138 }
  - { offset: 0x633F33, size: 0x8, addend: 0x0, symName: __ZN25llm_tokenizer_bpe_sessionD1Ev, symObjAddr: 0x925C, symBinAddr: 0xBFACC, symSize: 0x90 }
  - { offset: 0x633F3E, size: 0x8, addend: 0x0, symName: __ZN25llm_tokenizer_wpm_session8tokenizeERKNSt3__112basic_stringIcNS0_11char_traitsIcEENS0_9allocatorIcEEEERNS0_6vectorIiNS4_IiEEEE, symObjAddr: 0x92EC, symBinAddr: 0xBFB5C, symSize: 0x7F8 }
  - { offset: 0x635BEA, size: 0x8, addend: 0x0, symName: __ZN25llm_tokenizer_ugm_session8tokenizeERKNSt3__112basic_stringIcNS0_11char_traitsIcEENS0_9allocatorIcEEEERNS0_6vectorIiNS4_IiEEEE, symObjAddr: 0x9AE4, symBinAddr: 0xC0354, symSize: 0x5EC }
  - { offset: 0x636DCF, size: 0x8, addend: 0x0, symName: __ZNSt3__16vectorIiNS_9allocatorIiEEE9push_backB8ne190102ERKi, symObjAddr: 0x6AAC, symBinAddr: 0xBD38C, symSize: 0xF0 }
  - { offset: 0x6371C9, size: 0x8, addend: 0x0, symName: __ZNK11llama_vocab4impl24token_to_piece_for_cacheEib, symObjAddr: 0x6B9C, symBinAddr: 0xBD47C, symSize: 0x140 }
  - { offset: 0x6371EF, size: 0x8, addend: 0x0, symName: __ZN25llm_tokenizer_spm_session8tokenizeERKNSt3__112basic_stringIcNS0_11char_traitsIcEENS0_9allocatorIcEEEERNS0_6vectorIiNS4_IiEEEE, symObjAddr: 0x7960, symBinAddr: 0xBE1D0, symSize: 0x328 }
  - { offset: 0x6378CE, size: 0x8, addend: 0x0, symName: __ZN25llm_tokenizer_spm_sessionD1Ev, symObjAddr: 0x7C88, symBinAddr: 0xBE4F8, symSize: 0x4C }
  - { offset: 0x6378D9, size: 0x8, addend: 0x0, symName: __ZNSt3__16__treeINS_12__value_typeINS_12basic_stringIcNS_11char_traitsIcEENS_9allocatorIcEEEENS_4pairIiiEEEENS_19__map_value_compareIS7_SA_NS_4lessIS7_EELb1EEENS5_ISA_EEE7destroyEPNS_11__tree_nodeISA_PvEE, symObjAddr: 0xE654, symBinAddr: 0xC4C60, symSize: 0x60 }
  - { offset: 0x637B53, size: 0x8, addend: 0x0, symName: __ZN25llm_tokenizer_spm_sessionD1Ev, symObjAddr: 0x7C88, symBinAddr: 0xBE4F8, symSize: 0x4C }
  - { offset: 0x637EB3, size: 0x8, addend: 0x0, symName: __ZN25llm_tokenizer_bpe_sessionD1Ev, symObjAddr: 0x925C, symBinAddr: 0xBFACC, symSize: 0x90 }
  - { offset: 0x63849D, size: 0x8, addend: 0x0, symName: __ZNSt3__112forward_listI23fragment_buffer_variantNS_9allocatorIS1_EEED1Ev, symObjAddr: 0xA374, symBinAddr: 0xC0BE4, symSize: 0x5C }
  - { offset: 0x63885C, size: 0x8, addend: 0x0, symName: __ZNK11llama_vocab4impl8get_typeEv, symObjAddr: 0x6D4C, symBinAddr: 0xBD5BC, symSize: 0x8 }
  - { offset: 0x63887E, size: 0x8, addend: 0x0, symName: __ZNK11llama_vocab4impl9type_nameEv, symObjAddr: 0x6D54, symBinAddr: 0xBD5C4, symSize: 0x154 }
  - { offset: 0x638DF7, size: 0x8, addend: 0x0, symName: __ZNK11llama_vocab4impl9is_normalEi, symObjAddr: 0x6EA8, symBinAddr: 0xBD718, symSize: 0x50 }
  - { offset: 0x638E4B, size: 0x8, addend: 0x0, symName: __ZNK11llama_vocab4impl10is_unknownEi, symObjAddr: 0x6EF8, symBinAddr: 0xBD768, symSize: 0x50 }
  - { offset: 0x638E5E, size: 0x8, addend: 0x0, symName: __ZNK11llama_vocab4impl10is_unknownEi, symObjAddr: 0x6EF8, symBinAddr: 0xBD768, symSize: 0x50 }
  - { offset: 0x638EB2, size: 0x8, addend: 0x0, symName: __ZNK11llama_vocab4impl10is_controlEi, symObjAddr: 0x6F48, symBinAddr: 0xBD7B8, symSize: 0x50 }
  - { offset: 0x638EC5, size: 0x8, addend: 0x0, symName: __ZNK11llama_vocab4impl10is_controlEi, symObjAddr: 0x6F48, symBinAddr: 0xBD7B8, symSize: 0x50 }
  - { offset: 0x638F19, size: 0x8, addend: 0x0, symName: __ZNK11llama_vocab4impl7is_byteEi, symObjAddr: 0x6F98, symBinAddr: 0xBD808, symSize: 0x50 }
  - { offset: 0x638F2C, size: 0x8, addend: 0x0, symName: __ZNK11llama_vocab4impl7is_byteEi, symObjAddr: 0x6F98, symBinAddr: 0xBD808, symSize: 0x50 }
  - { offset: 0x638F80, size: 0x8, addend: 0x0, symName: __ZNK11llama_vocab4impl15is_user_definedEi, symObjAddr: 0x6FE8, symBinAddr: 0xBD858, symSize: 0x50 }
  - { offset: 0x638F93, size: 0x8, addend: 0x0, symName: __ZNK11llama_vocab4impl15is_user_definedEi, symObjAddr: 0x6FE8, symBinAddr: 0xBD858, symSize: 0x50 }
  - { offset: 0x638FE7, size: 0x8, addend: 0x0, symName: __ZNK11llama_vocab4impl9is_unusedEi, symObjAddr: 0x7038, symBinAddr: 0xBD8A8, symSize: 0x50 }
  - { offset: 0x638FFA, size: 0x8, addend: 0x0, symName: __ZNK11llama_vocab4impl9is_unusedEi, symObjAddr: 0x7038, symBinAddr: 0xBD8A8, symSize: 0x50 }
  - { offset: 0x63904E, size: 0x8, addend: 0x0, symName: __ZNK11llama_vocab4impl6is_eogEi, symObjAddr: 0x7088, symBinAddr: 0xBD8F8, symSize: 0x40 }
  - { offset: 0x639061, size: 0x8, addend: 0x0, symName: __ZNK11llama_vocab4impl6is_eogEi, symObjAddr: 0x7088, symBinAddr: 0xBD8F8, symSize: 0x40 }
  - { offset: 0x639128, size: 0x8, addend: 0x0, symName: __ZNK11llama_vocab4impl13token_to_byteEi, symObjAddr: 0x70C8, symBinAddr: 0xBD938, symSize: 0x20C }
  - { offset: 0x639629, size: 0x8, addend: 0x0, symName: __ZNK11llama_vocab4impl14token_get_attrEi, symObjAddr: 0x72D4, symBinAddr: 0xBDB44, symSize: 0x64 }
  - { offset: 0x63965D, size: 0x8, addend: 0x0, symName: __ZNK11llama_vocab4impl14token_get_attrEi, symObjAddr: 0x72D4, symBinAddr: 0xBDB44, symSize: 0x64 }
  - { offset: 0x6396D7, size: 0x8, addend: 0x0, symName: __ZNK11llama_vocab4impl22tokenizer_st_partitionERNSt3__112forward_listI23fragment_buffer_variantNS1_9allocatorIS3_EEEEb, symObjAddr: 0x7338, symBinAddr: 0xBDBA8, symSize: 0x5BC }
  - { offset: 0x639D1A, size: 0x8, addend: 0x0, symName: __ZNK11llama_vocab14get_token_dataEi, symObjAddr: 0x78F4, symBinAddr: 0xBE164, symSize: 0x64 }
  - { offset: 0x639DB1, size: 0x8, addend: 0x0, symName: __ZNK11llama_vocab14token_to_pieceEiPciib, symObjAddr: 0x7958, symBinAddr: 0xBE1C8, symSize: 0x8 }
  - { offset: 0x639DBC, size: 0x8, addend: 0x0, symName: __ZNK11llama_vocab14token_to_pieceEiPciib, symObjAddr: 0x7958, symBinAddr: 0xBE1C8, symSize: 0x8 }
  - { offset: 0x639E08, size: 0x8, addend: 0x0, symName: __ZNK11llama_vocab14token_to_pieceEiPciib, symObjAddr: 0x7958, symBinAddr: 0xBE1C8, symSize: 0x8 }
  - { offset: 0x63A205, size: 0x8, addend: 0x0, symName: __ZN25llm_tokenizer_spm_session14try_add_bigramEii, symObjAddr: 0xD688, symBinAddr: 0xC3EF8, symSize: 0x234 }
  - { offset: 0x63A8F9, size: 0x8, addend: 0x0, symName: __ZN25llm_tokenizer_spm_session9resegmentER10llm_symbolRNSt3__16vectorIiNS2_9allocatorIiEEEE, symObjAddr: 0xD8BC, symBinAddr: 0xC412C, symSize: 0x490 }
  - { offset: 0x63BD13, size: 0x8, addend: 0x0, symName: __ZNKSt3__16vectorI10llm_symbolNS_9allocatorIS1_EEE20__throw_length_errorB8ne190102Ev, symObjAddr: 0xDD4C, symBinAddr: 0xC45BC, symSize: 0x14 }
  - { offset: 0x63C7A8, size: 0x8, addend: 0x0, symName: __ZN25llm_tokenizer_bpe_session14add_new_bigramEii, symObjAddr: 0xE6B4, symBinAddr: 0xC4CC0, symSize: 0x3D0 }
  - { offset: 0x63DAD5, size: 0x8, addend: 0x0, symName: __ZNSt3__16vectorI10llm_symbolNS_9allocatorIS1_EEE18__assign_with_sizeB8ne190102IPS1_S6_EEvT_T0_l, symObjAddr: 0xEE7C, symBinAddr: 0xC5474, symSize: 0x180 }
  - { offset: 0x63E532, size: 0x8, addend: 0x0, symName: __ZN25llm_tokenizer_wpm_session10preprocessERKNSt3__112basic_stringIcNS0_11char_traitsIcEENS0_9allocatorIcEEEE, symObjAddr: 0xEFFC, symBinAddr: 0xC55F4, symSize: 0x554 }
  - { offset: 0x63EE0B, size: 0x8, addend: 0x0, symName: __ZN25llm_tokenizer_wpm_session10preprocessERKNSt3__112basic_stringIcNS0_11char_traitsIcEENS0_9allocatorIcEEEE, symObjAddr: 0xEFFC, symBinAddr: 0xC55F4, symSize: 0x554 }
  - { offset: 0x641133, size: 0x8, addend: 0x0, symName: __ZN25llm_tokenizer_ugm_session9normalizeERKNSt3__112basic_stringIcNS0_11char_traitsIcEENS0_9allocatorIcEEEEPS6_, symObjAddr: 0xF648, symBinAddr: 0xC5B48, symSize: 0x33C }
  - { offset: 0x6419A3, size: 0x8, addend: 0x0, symName: __ZNKSt3__16vectorIN25llm_tokenizer_ugm_session17best_tokenizationENS_9allocatorIS2_EEE20__throw_length_errorB8ne190102Ev, symObjAddr: 0xFC88, symBinAddr: 0xC6188, symSize: 0x14 }
  - { offset: 0x6419CD, size: 0x8, addend: 0x0, symName: __ZNK20llm_tokenizer_plamo26encodeERKNSt3__112basic_stringIcNS0_11char_traitsIcEENS0_9allocatorIcEEEE, symObjAddr: 0xFC9C, symBinAddr: 0xC619C, symSize: 0x864 }
  - { offset: 0x641C05, size: 0x8, addend: 0x0, symName: __ZNK11llama_vocab7is_byteEi, symObjAddr: 0xB30C, symBinAddr: 0xC1B7C, symSize: 0x54 }
  - { offset: 0x641C32, size: 0x8, addend: 0x0, symName: __ZNK11llama_vocab7is_byteEi, symObjAddr: 0xB30C, symBinAddr: 0xC1B7C, symSize: 0x54 }
  - { offset: 0x641C8D, size: 0x8, addend: 0x0, symName: __ZNK11llama_vocab4impl14token_to_pieceEi, symObjAddr: 0xB360, symBinAddr: 0xC1BD0, symSize: 0x3C }
  - { offset: 0x641CA0, size: 0x8, addend: 0x0, symName: '__ZZNK11llama_vocab4impl14token_to_pieceEiPciibENK3$_0clEPKcm', symObjAddr: 0xAA18, symBinAddr: 0xC1288, symSize: 0xC4 }
  - { offset: 0x641CE5, size: 0x8, addend: 0x0, symName: __ZL25llama_unescape_whitespaceRNSt3__112basic_stringIcNS_11char_traitsIcEENS_9allocatorIcEEEE, symObjAddr: 0xAADC, symBinAddr: 0xC134C, symSize: 0xC4 }
  - { offset: 0x641CF8, size: 0x8, addend: 0x0, symName: __ZL25llama_unescape_rwkv_tokenRKNSt3__112basic_stringIcNS_11char_traitsIcEENS_9allocatorIcEEEE, symObjAddr: 0xAE1C, symBinAddr: 0xC168C, symSize: 0x4F0 }
  - { offset: 0x64329F, size: 0x8, addend: 0x0, symName: __ZL25llama_unescape_whitespaceRNSt3__112basic_stringIcNS_11char_traitsIcEENS_9allocatorIcEEEE, symObjAddr: 0xAADC, symBinAddr: 0xC134C, symSize: 0xC4 }
  - { offset: 0x6438E8, size: 0x8, addend: 0x0, symName: __ZL17llama_decode_textRKNSt3__112basic_stringIcNS_11char_traitsIcEENS_9allocatorIcEEEE, symObjAddr: 0xABA0, symBinAddr: 0xC1410, symSize: 0x27C }
  - { offset: 0x64463A, size: 0x8, addend: 0x0, symName: __ZNKSt3__16vectorINS_12basic_stringIcNS_11char_traitsIcEENS_9allocatorIcEEEENS4_IS6_EEE20__throw_out_of_rangeB8ne190102Ev, symObjAddr: 0x19974, symBinAddr: 0xCED50, symSize: 0x14 }
  - { offset: 0x644664, size: 0x8, addend: 0x0, symName: __ZN11llama_vocab4implD2Ev, symObjAddr: 0x19988, symBinAddr: 0xCED64, symSize: 0x1D4 }
  - { offset: 0x644CA7, size: 0x8, addend: 0x0, symName: __ZNK11llama_vocab4impl14token_to_pieceEi, symObjAddr: 0xB360, symBinAddr: 0xC1BD0, symSize: 0x3C }
  - { offset: 0x644D0C, size: 0x8, addend: 0x0, symName: __ZNK11llama_vocab4impl10detokenizeEPKiiPcibb, symObjAddr: 0xB39C, symBinAddr: 0xC1C0C, symSize: 0x3CC }
  - { offset: 0x644D17, size: 0x8, addend: 0x0, symName: __ZNK11llama_vocab4impl10detokenizeEPKiiPcibb, symObjAddr: 0xB39C, symBinAddr: 0xC1C0C, symSize: 0x3CC }
  - { offset: 0x644F68, size: 0x8, addend: 0x0, symName: __ZNK11llama_vocab4impl10print_infoEv, symObjAddr: 0xB768, symBinAddr: 0xC1FD8, symSize: 0x6E0 }
  - { offset: 0x64503A, size: 0x8, addend: 0x0, symName: __ZNK11llama_vocab4impl10print_infoEv, symObjAddr: 0xB768, symBinAddr: 0xC1FD8, symSize: 0x6E0 }
  - { offset: 0x6469E4, size: 0x8, addend: 0x0, symName: __ZNK11llama_vocab8n_tokensEv, symObjAddr: 0xBE48, symBinAddr: 0xC26B8, symSize: 0x14 }
  - { offset: 0x646A08, size: 0x8, addend: 0x0, symName: __ZNK11llama_vocab8n_tokensEv, symObjAddr: 0xBE48, symBinAddr: 0xC26B8, symSize: 0x14 }
  - { offset: 0x646F70, size: 0x8, addend: 0x0, symName: __ZN11llama_vocabC2Ev, symObjAddr: 0xBE5C, symBinAddr: 0xC26CC, symSize: 0xC0 }
  - { offset: 0x6474D8, size: 0x8, addend: 0x0, symName: __ZN11llama_vocabC1Ev, symObjAddr: 0xBF1C, symBinAddr: 0xC278C, symSize: 0xC0 }
  - { offset: 0x647AE9, size: 0x8, addend: 0x0, symName: __ZN11llama_vocabD2Ev, symObjAddr: 0xBFDC, symBinAddr: 0xC284C, symSize: 0x3C }
  - { offset: 0x647BCA, size: 0x8, addend: 0x0, symName: __ZN11llama_vocab4implD2Ev, symObjAddr: 0x19988, symBinAddr: 0xCED64, symSize: 0x1D4 }
  - { offset: 0x6490D1, size: 0x8, addend: 0x0, symName: __ZN11llama_vocabD1Ev, symObjAddr: 0xC018, symBinAddr: 0xC2888, symSize: 0x3C }
